
MDP_HelloWorld.elf:     file format elf32-littlearm

Sections:
Idx Name          Size      VMA       LMA       File off  Algn
  0 .isr_vector   00000188  08000000  08000000  00010000  2**0
                  CONTENTS, ALLOC, LOAD, READONLY, DATA
  1 .text         00009f64  08000190  08000190  00010190  2**4
                  CONTENTS, ALLOC, LOAD, READONLY, CODE
  2 .rodata       00000f74  0800a0f8  0800a0f8  0001a0f8  2**3
                  CONTENTS, ALLOC, LOAD, READONLY, DATA
  3 .ARM.extab    00000000  0800b06c  0800b06c  000201e8  2**0
                  CONTENTS
  4 .ARM          00000008  0800b06c  0800b06c  0001b06c  2**2
                  CONTENTS, ALLOC, LOAD, READONLY, DATA
  5 .preinit_array 00000000  0800b074  0800b074  000201e8  2**0
                  CONTENTS, ALLOC, LOAD, DATA
  6 .init_array   00000004  0800b074  0800b074  0001b074  2**2
                  CONTENTS, ALLOC, LOAD, DATA
  7 .fini_array   00000004  0800b078  0800b078  0001b078  2**2
                  CONTENTS, ALLOC, LOAD, DATA
  8 .data         000001e8  20000000  0800b07c  00020000  2**2
                  CONTENTS, ALLOC, LOAD, DATA
  9 .ccmram       00000000  10000000  10000000  000201e8  2**0
                  CONTENTS
 10 .bss          00004f68  200001e8  200001e8  000201e8  2**2
                  ALLOC
 11 ._user_heap_stack 00000600  20005150  20005150  000201e8  2**0
                  ALLOC
 12 .ARM.attributes 00000030  00000000  00000000  000201e8  2**0
                  CONTENTS, READONLY
 13 .comment      00000053  00000000  00000000  00020218  2**0
                  CONTENTS, READONLY
 14 .debug_frame  000015c4  00000000  00000000  0002026c  2**2
                  CONTENTS, READONLY, DEBUGGING, OCTETS

Disassembly of section .text:

08000190 <__do_global_dtors_aux>:
 8000190:	b510      	push	{r4, lr}
 8000192:	4c05      	ldr	r4, [pc, #20]	; (80001a8 <__do_global_dtors_aux+0x18>)
 8000194:	7823      	ldrb	r3, [r4, #0]
 8000196:	b933      	cbnz	r3, 80001a6 <__do_global_dtors_aux+0x16>
 8000198:	4b04      	ldr	r3, [pc, #16]	; (80001ac <__do_global_dtors_aux+0x1c>)
 800019a:	b113      	cbz	r3, 80001a2 <__do_global_dtors_aux+0x12>
 800019c:	4804      	ldr	r0, [pc, #16]	; (80001b0 <__do_global_dtors_aux+0x20>)
 800019e:	f3af 8000 	nop.w
 80001a2:	2301      	movs	r3, #1
 80001a4:	7023      	strb	r3, [r4, #0]
 80001a6:	bd10      	pop	{r4, pc}
 80001a8:	200001e8 	.word	0x200001e8
 80001ac:	00000000 	.word	0x00000000
 80001b0:	0800a0dc 	.word	0x0800a0dc

080001b4 <frame_dummy>:
 80001b4:	b508      	push	{r3, lr}
 80001b6:	4b03      	ldr	r3, [pc, #12]	; (80001c4 <frame_dummy+0x10>)
 80001b8:	b11b      	cbz	r3, 80001c2 <frame_dummy+0xe>
 80001ba:	4903      	ldr	r1, [pc, #12]	; (80001c8 <frame_dummy+0x14>)
 80001bc:	4803      	ldr	r0, [pc, #12]	; (80001cc <frame_dummy+0x18>)
 80001be:	f3af 8000 	nop.w
 80001c2:	bd08      	pop	{r3, pc}
 80001c4:	00000000 	.word	0x00000000
 80001c8:	200001ec 	.word	0x200001ec
 80001cc:	0800a0dc 	.word	0x0800a0dc

080001d0 <strlen>:
 80001d0:	4603      	mov	r3, r0
 80001d2:	f813 2b01 	ldrb.w	r2, [r3], #1
 80001d6:	2a00      	cmp	r2, #0
 80001d8:	d1fb      	bne.n	80001d2 <strlen+0x2>
 80001da:	1a18      	subs	r0, r3, r0
 80001dc:	3801      	subs	r0, #1
 80001de:	4770      	bx	lr

080001e0 <memchr>:
 80001e0:	f001 01ff 	and.w	r1, r1, #255	; 0xff
 80001e4:	2a10      	cmp	r2, #16
 80001e6:	db2b      	blt.n	8000240 <memchr+0x60>
 80001e8:	f010 0f07 	tst.w	r0, #7
 80001ec:	d008      	beq.n	8000200 <memchr+0x20>
 80001ee:	f810 3b01 	ldrb.w	r3, [r0], #1
 80001f2:	3a01      	subs	r2, #1
 80001f4:	428b      	cmp	r3, r1
 80001f6:	d02d      	beq.n	8000254 <memchr+0x74>
 80001f8:	f010 0f07 	tst.w	r0, #7
 80001fc:	b342      	cbz	r2, 8000250 <memchr+0x70>
 80001fe:	d1f6      	bne.n	80001ee <memchr+0xe>
 8000200:	b4f0      	push	{r4, r5, r6, r7}
 8000202:	ea41 2101 	orr.w	r1, r1, r1, lsl #8
 8000206:	ea41 4101 	orr.w	r1, r1, r1, lsl #16
 800020a:	f022 0407 	bic.w	r4, r2, #7
 800020e:	f07f 0700 	mvns.w	r7, #0
 8000212:	2300      	movs	r3, #0
 8000214:	e8f0 5602 	ldrd	r5, r6, [r0], #8
 8000218:	3c08      	subs	r4, #8
 800021a:	ea85 0501 	eor.w	r5, r5, r1
 800021e:	ea86 0601 	eor.w	r6, r6, r1
 8000222:	fa85 f547 	uadd8	r5, r5, r7
 8000226:	faa3 f587 	sel	r5, r3, r7
 800022a:	fa86 f647 	uadd8	r6, r6, r7
 800022e:	faa5 f687 	sel	r6, r5, r7
 8000232:	b98e      	cbnz	r6, 8000258 <memchr+0x78>
 8000234:	d1ee      	bne.n	8000214 <memchr+0x34>
 8000236:	bcf0      	pop	{r4, r5, r6, r7}
 8000238:	f001 01ff 	and.w	r1, r1, #255	; 0xff
 800023c:	f002 0207 	and.w	r2, r2, #7
 8000240:	b132      	cbz	r2, 8000250 <memchr+0x70>
 8000242:	f810 3b01 	ldrb.w	r3, [r0], #1
 8000246:	3a01      	subs	r2, #1
 8000248:	ea83 0301 	eor.w	r3, r3, r1
 800024c:	b113      	cbz	r3, 8000254 <memchr+0x74>
 800024e:	d1f8      	bne.n	8000242 <memchr+0x62>
 8000250:	2000      	movs	r0, #0
 8000252:	4770      	bx	lr
 8000254:	3801      	subs	r0, #1
 8000256:	4770      	bx	lr
 8000258:	2d00      	cmp	r5, #0
 800025a:	bf06      	itte	eq
 800025c:	4635      	moveq	r5, r6
 800025e:	3803      	subeq	r0, #3
 8000260:	3807      	subne	r0, #7
 8000262:	f015 0f01 	tst.w	r5, #1
 8000266:	d107      	bne.n	8000278 <memchr+0x98>
 8000268:	3001      	adds	r0, #1
 800026a:	f415 7f80 	tst.w	r5, #256	; 0x100
 800026e:	bf02      	ittt	eq
 8000270:	3001      	addeq	r0, #1
 8000272:	f415 3fc0 	tsteq.w	r5, #98304	; 0x18000
 8000276:	3001      	addeq	r0, #1
 8000278:	bcf0      	pop	{r4, r5, r6, r7}
 800027a:	3801      	subs	r0, #1
 800027c:	4770      	bx	lr
 800027e:	bf00      	nop

08000280 <__aeabi_drsub>:
 8000280:	f081 4100 	eor.w	r1, r1, #2147483648	; 0x80000000
 8000284:	e002      	b.n	800028c <__adddf3>
 8000286:	bf00      	nop

08000288 <__aeabi_dsub>:
 8000288:	f083 4300 	eor.w	r3, r3, #2147483648	; 0x80000000

0800028c <__adddf3>:
 800028c:	b530      	push	{r4, r5, lr}
 800028e:	ea4f 0441 	mov.w	r4, r1, lsl #1
 8000292:	ea4f 0543 	mov.w	r5, r3, lsl #1
 8000296:	ea94 0f05 	teq	r4, r5
 800029a:	bf08      	it	eq
 800029c:	ea90 0f02 	teqeq	r0, r2
 80002a0:	bf1f      	itttt	ne
 80002a2:	ea54 0c00 	orrsne.w	ip, r4, r0
 80002a6:	ea55 0c02 	orrsne.w	ip, r5, r2
 80002aa:	ea7f 5c64 	mvnsne.w	ip, r4, asr #21
 80002ae:	ea7f 5c65 	mvnsne.w	ip, r5, asr #21
 80002b2:	f000 80e2 	beq.w	800047a <__adddf3+0x1ee>
 80002b6:	ea4f 5454 	mov.w	r4, r4, lsr #21
 80002ba:	ebd4 5555 	rsbs	r5, r4, r5, lsr #21
 80002be:	bfb8      	it	lt
 80002c0:	426d      	neglt	r5, r5
 80002c2:	dd0c      	ble.n	80002de <__adddf3+0x52>
 80002c4:	442c      	add	r4, r5
 80002c6:	ea80 0202 	eor.w	r2, r0, r2
 80002ca:	ea81 0303 	eor.w	r3, r1, r3
 80002ce:	ea82 0000 	eor.w	r0, r2, r0
 80002d2:	ea83 0101 	eor.w	r1, r3, r1
 80002d6:	ea80 0202 	eor.w	r2, r0, r2
 80002da:	ea81 0303 	eor.w	r3, r1, r3
 80002de:	2d36      	cmp	r5, #54	; 0x36
 80002e0:	bf88      	it	hi
 80002e2:	bd30      	pophi	{r4, r5, pc}
 80002e4:	f011 4f00 	tst.w	r1, #2147483648	; 0x80000000
 80002e8:	ea4f 3101 	mov.w	r1, r1, lsl #12
 80002ec:	f44f 1c80 	mov.w	ip, #1048576	; 0x100000
 80002f0:	ea4c 3111 	orr.w	r1, ip, r1, lsr #12
 80002f4:	d002      	beq.n	80002fc <__adddf3+0x70>
 80002f6:	4240      	negs	r0, r0
 80002f8:	eb61 0141 	sbc.w	r1, r1, r1, lsl #1
 80002fc:	f013 4f00 	tst.w	r3, #2147483648	; 0x80000000
 8000300:	ea4f 3303 	mov.w	r3, r3, lsl #12
 8000304:	ea4c 3313 	orr.w	r3, ip, r3, lsr #12
 8000308:	d002      	beq.n	8000310 <__adddf3+0x84>
 800030a:	4252      	negs	r2, r2
 800030c:	eb63 0343 	sbc.w	r3, r3, r3, lsl #1
 8000310:	ea94 0f05 	teq	r4, r5
 8000314:	f000 80a7 	beq.w	8000466 <__adddf3+0x1da>
 8000318:	f1a4 0401 	sub.w	r4, r4, #1
 800031c:	f1d5 0e20 	rsbs	lr, r5, #32
 8000320:	db0d      	blt.n	800033e <__adddf3+0xb2>
 8000322:	fa02 fc0e 	lsl.w	ip, r2, lr
 8000326:	fa22 f205 	lsr.w	r2, r2, r5
 800032a:	1880      	adds	r0, r0, r2
 800032c:	f141 0100 	adc.w	r1, r1, #0
 8000330:	fa03 f20e 	lsl.w	r2, r3, lr
 8000334:	1880      	adds	r0, r0, r2
 8000336:	fa43 f305 	asr.w	r3, r3, r5
 800033a:	4159      	adcs	r1, r3
 800033c:	e00e      	b.n	800035c <__adddf3+0xd0>
 800033e:	f1a5 0520 	sub.w	r5, r5, #32
 8000342:	f10e 0e20 	add.w	lr, lr, #32
 8000346:	2a01      	cmp	r2, #1
 8000348:	fa03 fc0e 	lsl.w	ip, r3, lr
 800034c:	bf28      	it	cs
 800034e:	f04c 0c02 	orrcs.w	ip, ip, #2
 8000352:	fa43 f305 	asr.w	r3, r3, r5
 8000356:	18c0      	adds	r0, r0, r3
 8000358:	eb51 71e3 	adcs.w	r1, r1, r3, asr #31
 800035c:	f001 4500 	and.w	r5, r1, #2147483648	; 0x80000000
 8000360:	d507      	bpl.n	8000372 <__adddf3+0xe6>
 8000362:	f04f 0e00 	mov.w	lr, #0
 8000366:	f1dc 0c00 	rsbs	ip, ip, #0
 800036a:	eb7e 0000 	sbcs.w	r0, lr, r0
 800036e:	eb6e 0101 	sbc.w	r1, lr, r1
 8000372:	f5b1 1f80 	cmp.w	r1, #1048576	; 0x100000
 8000376:	d31b      	bcc.n	80003b0 <__adddf3+0x124>
 8000378:	f5b1 1f00 	cmp.w	r1, #2097152	; 0x200000
 800037c:	d30c      	bcc.n	8000398 <__adddf3+0x10c>
 800037e:	0849      	lsrs	r1, r1, #1
 8000380:	ea5f 0030 	movs.w	r0, r0, rrx
 8000384:	ea4f 0c3c 	mov.w	ip, ip, rrx
 8000388:	f104 0401 	add.w	r4, r4, #1
 800038c:	ea4f 5244 	mov.w	r2, r4, lsl #21
 8000390:	f512 0f80 	cmn.w	r2, #4194304	; 0x400000
 8000394:	f080 809a 	bcs.w	80004cc <__adddf3+0x240>
 8000398:	f1bc 4f00 	cmp.w	ip, #2147483648	; 0x80000000
 800039c:	bf08      	it	eq
 800039e:	ea5f 0c50 	movseq.w	ip, r0, lsr #1
 80003a2:	f150 0000 	adcs.w	r0, r0, #0
 80003a6:	eb41 5104 	adc.w	r1, r1, r4, lsl #20
 80003aa:	ea41 0105 	orr.w	r1, r1, r5
 80003ae:	bd30      	pop	{r4, r5, pc}
 80003b0:	ea5f 0c4c 	movs.w	ip, ip, lsl #1
 80003b4:	4140      	adcs	r0, r0
 80003b6:	eb41 0101 	adc.w	r1, r1, r1
 80003ba:	3c01      	subs	r4, #1
 80003bc:	bf28      	it	cs
 80003be:	f5b1 1f80 	cmpcs.w	r1, #1048576	; 0x100000
 80003c2:	d2e9      	bcs.n	8000398 <__adddf3+0x10c>
 80003c4:	f091 0f00 	teq	r1, #0
 80003c8:	bf04      	itt	eq
 80003ca:	4601      	moveq	r1, r0
 80003cc:	2000      	moveq	r0, #0
 80003ce:	fab1 f381 	clz	r3, r1
 80003d2:	bf08      	it	eq
 80003d4:	3320      	addeq	r3, #32
 80003d6:	f1a3 030b 	sub.w	r3, r3, #11
 80003da:	f1b3 0220 	subs.w	r2, r3, #32
 80003de:	da0c      	bge.n	80003fa <__adddf3+0x16e>
 80003e0:	320c      	adds	r2, #12
 80003e2:	dd08      	ble.n	80003f6 <__adddf3+0x16a>
 80003e4:	f102 0c14 	add.w	ip, r2, #20
 80003e8:	f1c2 020c 	rsb	r2, r2, #12
 80003ec:	fa01 f00c 	lsl.w	r0, r1, ip
 80003f0:	fa21 f102 	lsr.w	r1, r1, r2
 80003f4:	e00c      	b.n	8000410 <__adddf3+0x184>
 80003f6:	f102 0214 	add.w	r2, r2, #20
 80003fa:	bfd8      	it	le
 80003fc:	f1c2 0c20 	rsble	ip, r2, #32
 8000400:	fa01 f102 	lsl.w	r1, r1, r2
 8000404:	fa20 fc0c 	lsr.w	ip, r0, ip
 8000408:	bfdc      	itt	le
 800040a:	ea41 010c 	orrle.w	r1, r1, ip
 800040e:	4090      	lslle	r0, r2
 8000410:	1ae4      	subs	r4, r4, r3
 8000412:	bfa2      	ittt	ge
 8000414:	eb01 5104 	addge.w	r1, r1, r4, lsl #20
 8000418:	4329      	orrge	r1, r5
 800041a:	bd30      	popge	{r4, r5, pc}
 800041c:	ea6f 0404 	mvn.w	r4, r4
 8000420:	3c1f      	subs	r4, #31
 8000422:	da1c      	bge.n	800045e <__adddf3+0x1d2>
 8000424:	340c      	adds	r4, #12
 8000426:	dc0e      	bgt.n	8000446 <__adddf3+0x1ba>
 8000428:	f104 0414 	add.w	r4, r4, #20
 800042c:	f1c4 0220 	rsb	r2, r4, #32
 8000430:	fa20 f004 	lsr.w	r0, r0, r4
 8000434:	fa01 f302 	lsl.w	r3, r1, r2
 8000438:	ea40 0003 	orr.w	r0, r0, r3
 800043c:	fa21 f304 	lsr.w	r3, r1, r4
 8000440:	ea45 0103 	orr.w	r1, r5, r3
 8000444:	bd30      	pop	{r4, r5, pc}
 8000446:	f1c4 040c 	rsb	r4, r4, #12
 800044a:	f1c4 0220 	rsb	r2, r4, #32
 800044e:	fa20 f002 	lsr.w	r0, r0, r2
 8000452:	fa01 f304 	lsl.w	r3, r1, r4
 8000456:	ea40 0003 	orr.w	r0, r0, r3
 800045a:	4629      	mov	r1, r5
 800045c:	bd30      	pop	{r4, r5, pc}
 800045e:	fa21 f004 	lsr.w	r0, r1, r4
 8000462:	4629      	mov	r1, r5
 8000464:	bd30      	pop	{r4, r5, pc}
 8000466:	f094 0f00 	teq	r4, #0
 800046a:	f483 1380 	eor.w	r3, r3, #1048576	; 0x100000
 800046e:	bf06      	itte	eq
 8000470:	f481 1180 	eoreq.w	r1, r1, #1048576	; 0x100000
 8000474:	3401      	addeq	r4, #1
 8000476:	3d01      	subne	r5, #1
 8000478:	e74e      	b.n	8000318 <__adddf3+0x8c>
 800047a:	ea7f 5c64 	mvns.w	ip, r4, asr #21
 800047e:	bf18      	it	ne
 8000480:	ea7f 5c65 	mvnsne.w	ip, r5, asr #21
 8000484:	d029      	beq.n	80004da <__adddf3+0x24e>
 8000486:	ea94 0f05 	teq	r4, r5
 800048a:	bf08      	it	eq
 800048c:	ea90 0f02 	teqeq	r0, r2
 8000490:	d005      	beq.n	800049e <__adddf3+0x212>
 8000492:	ea54 0c00 	orrs.w	ip, r4, r0
 8000496:	bf04      	itt	eq
 8000498:	4619      	moveq	r1, r3
 800049a:	4610      	moveq	r0, r2
 800049c:	bd30      	pop	{r4, r5, pc}
 800049e:	ea91 0f03 	teq	r1, r3
 80004a2:	bf1e      	ittt	ne
 80004a4:	2100      	movne	r1, #0
 80004a6:	2000      	movne	r0, #0
 80004a8:	bd30      	popne	{r4, r5, pc}
 80004aa:	ea5f 5c54 	movs.w	ip, r4, lsr #21
 80004ae:	d105      	bne.n	80004bc <__adddf3+0x230>
 80004b0:	0040      	lsls	r0, r0, #1
 80004b2:	4149      	adcs	r1, r1
 80004b4:	bf28      	it	cs
 80004b6:	f041 4100 	orrcs.w	r1, r1, #2147483648	; 0x80000000
 80004ba:	bd30      	pop	{r4, r5, pc}
 80004bc:	f514 0480 	adds.w	r4, r4, #4194304	; 0x400000
 80004c0:	bf3c      	itt	cc
 80004c2:	f501 1180 	addcc.w	r1, r1, #1048576	; 0x100000
 80004c6:	bd30      	popcc	{r4, r5, pc}
 80004c8:	f001 4500 	and.w	r5, r1, #2147483648	; 0x80000000
 80004cc:	f045 41fe 	orr.w	r1, r5, #2130706432	; 0x7f000000
 80004d0:	f441 0170 	orr.w	r1, r1, #15728640	; 0xf00000
 80004d4:	f04f 0000 	mov.w	r0, #0
 80004d8:	bd30      	pop	{r4, r5, pc}
 80004da:	ea7f 5c64 	mvns.w	ip, r4, asr #21
 80004de:	bf1a      	itte	ne
 80004e0:	4619      	movne	r1, r3
 80004e2:	4610      	movne	r0, r2
 80004e4:	ea7f 5c65 	mvnseq.w	ip, r5, asr #21
 80004e8:	bf1c      	itt	ne
 80004ea:	460b      	movne	r3, r1
 80004ec:	4602      	movne	r2, r0
 80004ee:	ea50 3401 	orrs.w	r4, r0, r1, lsl #12
 80004f2:	bf06      	itte	eq
 80004f4:	ea52 3503 	orrseq.w	r5, r2, r3, lsl #12
 80004f8:	ea91 0f03 	teqeq	r1, r3
 80004fc:	f441 2100 	orrne.w	r1, r1, #524288	; 0x80000
 8000500:	bd30      	pop	{r4, r5, pc}
 8000502:	bf00      	nop

08000504 <__aeabi_ui2d>:
 8000504:	f090 0f00 	teq	r0, #0
 8000508:	bf04      	itt	eq
 800050a:	2100      	moveq	r1, #0
 800050c:	4770      	bxeq	lr
 800050e:	b530      	push	{r4, r5, lr}
 8000510:	f44f 6480 	mov.w	r4, #1024	; 0x400
 8000514:	f104 0432 	add.w	r4, r4, #50	; 0x32
 8000518:	f04f 0500 	mov.w	r5, #0
 800051c:	f04f 0100 	mov.w	r1, #0
 8000520:	e750      	b.n	80003c4 <__adddf3+0x138>
 8000522:	bf00      	nop

08000524 <__aeabi_i2d>:
 8000524:	f090 0f00 	teq	r0, #0
 8000528:	bf04      	itt	eq
 800052a:	2100      	moveq	r1, #0
 800052c:	4770      	bxeq	lr
 800052e:	b530      	push	{r4, r5, lr}
 8000530:	f44f 6480 	mov.w	r4, #1024	; 0x400
 8000534:	f104 0432 	add.w	r4, r4, #50	; 0x32
 8000538:	f010 4500 	ands.w	r5, r0, #2147483648	; 0x80000000
 800053c:	bf48      	it	mi
 800053e:	4240      	negmi	r0, r0
 8000540:	f04f 0100 	mov.w	r1, #0
 8000544:	e73e      	b.n	80003c4 <__adddf3+0x138>
 8000546:	bf00      	nop

08000548 <__aeabi_f2d>:
 8000548:	0042      	lsls	r2, r0, #1
 800054a:	ea4f 01e2 	mov.w	r1, r2, asr #3
 800054e:	ea4f 0131 	mov.w	r1, r1, rrx
 8000552:	ea4f 7002 	mov.w	r0, r2, lsl #28
 8000556:	bf1f      	itttt	ne
 8000558:	f012 437f 	andsne.w	r3, r2, #4278190080	; 0xff000000
 800055c:	f093 4f7f 	teqne	r3, #4278190080	; 0xff000000
 8000560:	f081 5160 	eorne.w	r1, r1, #939524096	; 0x38000000
 8000564:	4770      	bxne	lr
 8000566:	f032 427f 	bics.w	r2, r2, #4278190080	; 0xff000000
 800056a:	bf08      	it	eq
 800056c:	4770      	bxeq	lr
 800056e:	f093 4f7f 	teq	r3, #4278190080	; 0xff000000
 8000572:	bf04      	itt	eq
 8000574:	f441 2100 	orreq.w	r1, r1, #524288	; 0x80000
 8000578:	4770      	bxeq	lr
 800057a:	b530      	push	{r4, r5, lr}
 800057c:	f44f 7460 	mov.w	r4, #896	; 0x380
 8000580:	f001 4500 	and.w	r5, r1, #2147483648	; 0x80000000
 8000584:	f021 4100 	bic.w	r1, r1, #2147483648	; 0x80000000
 8000588:	e71c      	b.n	80003c4 <__adddf3+0x138>
 800058a:	bf00      	nop

0800058c <__aeabi_ul2d>:
 800058c:	ea50 0201 	orrs.w	r2, r0, r1
 8000590:	bf08      	it	eq
 8000592:	4770      	bxeq	lr
 8000594:	b530      	push	{r4, r5, lr}
 8000596:	f04f 0500 	mov.w	r5, #0
 800059a:	e00a      	b.n	80005b2 <__aeabi_l2d+0x16>

0800059c <__aeabi_l2d>:
 800059c:	ea50 0201 	orrs.w	r2, r0, r1
 80005a0:	bf08      	it	eq
 80005a2:	4770      	bxeq	lr
 80005a4:	b530      	push	{r4, r5, lr}
 80005a6:	f011 4500 	ands.w	r5, r1, #2147483648	; 0x80000000
 80005aa:	d502      	bpl.n	80005b2 <__aeabi_l2d+0x16>
 80005ac:	4240      	negs	r0, r0
 80005ae:	eb61 0141 	sbc.w	r1, r1, r1, lsl #1
 80005b2:	f44f 6480 	mov.w	r4, #1024	; 0x400
 80005b6:	f104 0432 	add.w	r4, r4, #50	; 0x32
 80005ba:	ea5f 5c91 	movs.w	ip, r1, lsr #22
 80005be:	f43f aed8 	beq.w	8000372 <__adddf3+0xe6>
 80005c2:	f04f 0203 	mov.w	r2, #3
 80005c6:	ea5f 0cdc 	movs.w	ip, ip, lsr #3
 80005ca:	bf18      	it	ne
 80005cc:	3203      	addne	r2, #3
 80005ce:	ea5f 0cdc 	movs.w	ip, ip, lsr #3
 80005d2:	bf18      	it	ne
 80005d4:	3203      	addne	r2, #3
 80005d6:	eb02 02dc 	add.w	r2, r2, ip, lsr #3
 80005da:	f1c2 0320 	rsb	r3, r2, #32
 80005de:	fa00 fc03 	lsl.w	ip, r0, r3
 80005e2:	fa20 f002 	lsr.w	r0, r0, r2
 80005e6:	fa01 fe03 	lsl.w	lr, r1, r3
 80005ea:	ea40 000e 	orr.w	r0, r0, lr
 80005ee:	fa21 f102 	lsr.w	r1, r1, r2
 80005f2:	4414      	add	r4, r2
 80005f4:	e6bd      	b.n	8000372 <__adddf3+0xe6>
 80005f6:	bf00      	nop

080005f8 <__aeabi_dmul>:
 80005f8:	b570      	push	{r4, r5, r6, lr}
 80005fa:	f04f 0cff 	mov.w	ip, #255	; 0xff
 80005fe:	f44c 6ce0 	orr.w	ip, ip, #1792	; 0x700
 8000602:	ea1c 5411 	ands.w	r4, ip, r1, lsr #20
 8000606:	bf1d      	ittte	ne
 8000608:	ea1c 5513 	andsne.w	r5, ip, r3, lsr #20
 800060c:	ea94 0f0c 	teqne	r4, ip
 8000610:	ea95 0f0c 	teqne	r5, ip
 8000614:	f000 f8de 	bleq	80007d4 <__aeabi_dmul+0x1dc>
 8000618:	442c      	add	r4, r5
 800061a:	ea81 0603 	eor.w	r6, r1, r3
 800061e:	ea21 514c 	bic.w	r1, r1, ip, lsl #21
 8000622:	ea23 534c 	bic.w	r3, r3, ip, lsl #21
 8000626:	ea50 3501 	orrs.w	r5, r0, r1, lsl #12
 800062a:	bf18      	it	ne
 800062c:	ea52 3503 	orrsne.w	r5, r2, r3, lsl #12
 8000630:	f441 1180 	orr.w	r1, r1, #1048576	; 0x100000
 8000634:	f443 1380 	orr.w	r3, r3, #1048576	; 0x100000
 8000638:	d038      	beq.n	80006ac <__aeabi_dmul+0xb4>
 800063a:	fba0 ce02 	umull	ip, lr, r0, r2
 800063e:	f04f 0500 	mov.w	r5, #0
 8000642:	fbe1 e502 	umlal	lr, r5, r1, r2
 8000646:	f006 4200 	and.w	r2, r6, #2147483648	; 0x80000000
 800064a:	fbe0 e503 	umlal	lr, r5, r0, r3
 800064e:	f04f 0600 	mov.w	r6, #0
 8000652:	fbe1 5603 	umlal	r5, r6, r1, r3
 8000656:	f09c 0f00 	teq	ip, #0
 800065a:	bf18      	it	ne
 800065c:	f04e 0e01 	orrne.w	lr, lr, #1
 8000660:	f1a4 04ff 	sub.w	r4, r4, #255	; 0xff
 8000664:	f5b6 7f00 	cmp.w	r6, #512	; 0x200
 8000668:	f564 7440 	sbc.w	r4, r4, #768	; 0x300
 800066c:	d204      	bcs.n	8000678 <__aeabi_dmul+0x80>
 800066e:	ea5f 0e4e 	movs.w	lr, lr, lsl #1
 8000672:	416d      	adcs	r5, r5
 8000674:	eb46 0606 	adc.w	r6, r6, r6
 8000678:	ea42 21c6 	orr.w	r1, r2, r6, lsl #11
 800067c:	ea41 5155 	orr.w	r1, r1, r5, lsr #21
 8000680:	ea4f 20c5 	mov.w	r0, r5, lsl #11
 8000684:	ea40 505e 	orr.w	r0, r0, lr, lsr #21
 8000688:	ea4f 2ece 	mov.w	lr, lr, lsl #11
 800068c:	f1b4 0cfd 	subs.w	ip, r4, #253	; 0xfd
 8000690:	bf88      	it	hi
 8000692:	f5bc 6fe0 	cmphi.w	ip, #1792	; 0x700
 8000696:	d81e      	bhi.n	80006d6 <__aeabi_dmul+0xde>
 8000698:	f1be 4f00 	cmp.w	lr, #2147483648	; 0x80000000
 800069c:	bf08      	it	eq
 800069e:	ea5f 0e50 	movseq.w	lr, r0, lsr #1
 80006a2:	f150 0000 	adcs.w	r0, r0, #0
 80006a6:	eb41 5104 	adc.w	r1, r1, r4, lsl #20
 80006aa:	bd70      	pop	{r4, r5, r6, pc}
 80006ac:	f006 4600 	and.w	r6, r6, #2147483648	; 0x80000000
 80006b0:	ea46 0101 	orr.w	r1, r6, r1
 80006b4:	ea40 0002 	orr.w	r0, r0, r2
 80006b8:	ea81 0103 	eor.w	r1, r1, r3
 80006bc:	ebb4 045c 	subs.w	r4, r4, ip, lsr #1
 80006c0:	bfc2      	ittt	gt
 80006c2:	ebd4 050c 	rsbsgt	r5, r4, ip
 80006c6:	ea41 5104 	orrgt.w	r1, r1, r4, lsl #20
 80006ca:	bd70      	popgt	{r4, r5, r6, pc}
 80006cc:	f441 1180 	orr.w	r1, r1, #1048576	; 0x100000
 80006d0:	f04f 0e00 	mov.w	lr, #0
 80006d4:	3c01      	subs	r4, #1
 80006d6:	f300 80ab 	bgt.w	8000830 <__aeabi_dmul+0x238>
 80006da:	f114 0f36 	cmn.w	r4, #54	; 0x36
 80006de:	bfde      	ittt	le
 80006e0:	2000      	movle	r0, #0
 80006e2:	f001 4100 	andle.w	r1, r1, #2147483648	; 0x80000000
 80006e6:	bd70      	pople	{r4, r5, r6, pc}
 80006e8:	f1c4 0400 	rsb	r4, r4, #0
 80006ec:	3c20      	subs	r4, #32
 80006ee:	da35      	bge.n	800075c <__aeabi_dmul+0x164>
 80006f0:	340c      	adds	r4, #12
 80006f2:	dc1b      	bgt.n	800072c <__aeabi_dmul+0x134>
 80006f4:	f104 0414 	add.w	r4, r4, #20
 80006f8:	f1c4 0520 	rsb	r5, r4, #32
 80006fc:	fa00 f305 	lsl.w	r3, r0, r5
 8000700:	fa20 f004 	lsr.w	r0, r0, r4
 8000704:	fa01 f205 	lsl.w	r2, r1, r5
 8000708:	ea40 0002 	orr.w	r0, r0, r2
 800070c:	f001 4200 	and.w	r2, r1, #2147483648	; 0x80000000
 8000710:	f021 4100 	bic.w	r1, r1, #2147483648	; 0x80000000
 8000714:	eb10 70d3 	adds.w	r0, r0, r3, lsr #31
 8000718:	fa21 f604 	lsr.w	r6, r1, r4
 800071c:	eb42 0106 	adc.w	r1, r2, r6
 8000720:	ea5e 0e43 	orrs.w	lr, lr, r3, lsl #1
 8000724:	bf08      	it	eq
 8000726:	ea20 70d3 	biceq.w	r0, r0, r3, lsr #31
 800072a:	bd70      	pop	{r4, r5, r6, pc}
 800072c:	f1c4 040c 	rsb	r4, r4, #12
 8000730:	f1c4 0520 	rsb	r5, r4, #32
 8000734:	fa00 f304 	lsl.w	r3, r0, r4
 8000738:	fa20 f005 	lsr.w	r0, r0, r5
 800073c:	fa01 f204 	lsl.w	r2, r1, r4
 8000740:	ea40 0002 	orr.w	r0, r0, r2
 8000744:	f001 4100 	and.w	r1, r1, #2147483648	; 0x80000000
 8000748:	eb10 70d3 	adds.w	r0, r0, r3, lsr #31
 800074c:	f141 0100 	adc.w	r1, r1, #0
 8000750:	ea5e 0e43 	orrs.w	lr, lr, r3, lsl #1
 8000754:	bf08      	it	eq
 8000756:	ea20 70d3 	biceq.w	r0, r0, r3, lsr #31
 800075a:	bd70      	pop	{r4, r5, r6, pc}
 800075c:	f1c4 0520 	rsb	r5, r4, #32
 8000760:	fa00 f205 	lsl.w	r2, r0, r5
 8000764:	ea4e 0e02 	orr.w	lr, lr, r2
 8000768:	fa20 f304 	lsr.w	r3, r0, r4
 800076c:	fa01 f205 	lsl.w	r2, r1, r5
 8000770:	ea43 0302 	orr.w	r3, r3, r2
 8000774:	fa21 f004 	lsr.w	r0, r1, r4
 8000778:	f001 4100 	and.w	r1, r1, #2147483648	; 0x80000000
 800077c:	fa21 f204 	lsr.w	r2, r1, r4
 8000780:	ea20 0002 	bic.w	r0, r0, r2
 8000784:	eb00 70d3 	add.w	r0, r0, r3, lsr #31
 8000788:	ea5e 0e43 	orrs.w	lr, lr, r3, lsl #1
 800078c:	bf08      	it	eq
 800078e:	ea20 70d3 	biceq.w	r0, r0, r3, lsr #31
 8000792:	bd70      	pop	{r4, r5, r6, pc}
 8000794:	f094 0f00 	teq	r4, #0
 8000798:	d10f      	bne.n	80007ba <__aeabi_dmul+0x1c2>
 800079a:	f001 4600 	and.w	r6, r1, #2147483648	; 0x80000000
 800079e:	0040      	lsls	r0, r0, #1
 80007a0:	eb41 0101 	adc.w	r1, r1, r1
 80007a4:	f411 1f80 	tst.w	r1, #1048576	; 0x100000
 80007a8:	bf08      	it	eq
 80007aa:	3c01      	subeq	r4, #1
 80007ac:	d0f7      	beq.n	800079e <__aeabi_dmul+0x1a6>
 80007ae:	ea41 0106 	orr.w	r1, r1, r6
 80007b2:	f095 0f00 	teq	r5, #0
 80007b6:	bf18      	it	ne
 80007b8:	4770      	bxne	lr
 80007ba:	f003 4600 	and.w	r6, r3, #2147483648	; 0x80000000
 80007be:	0052      	lsls	r2, r2, #1
 80007c0:	eb43 0303 	adc.w	r3, r3, r3
 80007c4:	f413 1f80 	tst.w	r3, #1048576	; 0x100000
 80007c8:	bf08      	it	eq
 80007ca:	3d01      	subeq	r5, #1
 80007cc:	d0f7      	beq.n	80007be <__aeabi_dmul+0x1c6>
 80007ce:	ea43 0306 	orr.w	r3, r3, r6
 80007d2:	4770      	bx	lr
 80007d4:	ea94 0f0c 	teq	r4, ip
 80007d8:	ea0c 5513 	and.w	r5, ip, r3, lsr #20
 80007dc:	bf18      	it	ne
 80007de:	ea95 0f0c 	teqne	r5, ip
 80007e2:	d00c      	beq.n	80007fe <__aeabi_dmul+0x206>
 80007e4:	ea50 0641 	orrs.w	r6, r0, r1, lsl #1
 80007e8:	bf18      	it	ne
 80007ea:	ea52 0643 	orrsne.w	r6, r2, r3, lsl #1
 80007ee:	d1d1      	bne.n	8000794 <__aeabi_dmul+0x19c>
 80007f0:	ea81 0103 	eor.w	r1, r1, r3
 80007f4:	f001 4100 	and.w	r1, r1, #2147483648	; 0x80000000
 80007f8:	f04f 0000 	mov.w	r0, #0
 80007fc:	bd70      	pop	{r4, r5, r6, pc}
 80007fe:	ea50 0641 	orrs.w	r6, r0, r1, lsl #1
 8000802:	bf06      	itte	eq
 8000804:	4610      	moveq	r0, r2
 8000806:	4619      	moveq	r1, r3
 8000808:	ea52 0643 	orrsne.w	r6, r2, r3, lsl #1
 800080c:	d019      	beq.n	8000842 <__aeabi_dmul+0x24a>
 800080e:	ea94 0f0c 	teq	r4, ip
 8000812:	d102      	bne.n	800081a <__aeabi_dmul+0x222>
 8000814:	ea50 3601 	orrs.w	r6, r0, r1, lsl #12
 8000818:	d113      	bne.n	8000842 <__aeabi_dmul+0x24a>
 800081a:	ea95 0f0c 	teq	r5, ip
 800081e:	d105      	bne.n	800082c <__aeabi_dmul+0x234>
 8000820:	ea52 3603 	orrs.w	r6, r2, r3, lsl #12
 8000824:	bf1c      	itt	ne
 8000826:	4610      	movne	r0, r2
 8000828:	4619      	movne	r1, r3
 800082a:	d10a      	bne.n	8000842 <__aeabi_dmul+0x24a>
 800082c:	ea81 0103 	eor.w	r1, r1, r3
 8000830:	f001 4100 	and.w	r1, r1, #2147483648	; 0x80000000
 8000834:	f041 41fe 	orr.w	r1, r1, #2130706432	; 0x7f000000
 8000838:	f441 0170 	orr.w	r1, r1, #15728640	; 0xf00000
 800083c:	f04f 0000 	mov.w	r0, #0
 8000840:	bd70      	pop	{r4, r5, r6, pc}
 8000842:	f041 41fe 	orr.w	r1, r1, #2130706432	; 0x7f000000
 8000846:	f441 0178 	orr.w	r1, r1, #16252928	; 0xf80000
 800084a:	bd70      	pop	{r4, r5, r6, pc}

0800084c <__aeabi_ddiv>:
 800084c:	b570      	push	{r4, r5, r6, lr}
 800084e:	f04f 0cff 	mov.w	ip, #255	; 0xff
 8000852:	f44c 6ce0 	orr.w	ip, ip, #1792	; 0x700
 8000856:	ea1c 5411 	ands.w	r4, ip, r1, lsr #20
 800085a:	bf1d      	ittte	ne
 800085c:	ea1c 5513 	andsne.w	r5, ip, r3, lsr #20
 8000860:	ea94 0f0c 	teqne	r4, ip
 8000864:	ea95 0f0c 	teqne	r5, ip
 8000868:	f000 f8a7 	bleq	80009ba <__aeabi_ddiv+0x16e>
 800086c:	eba4 0405 	sub.w	r4, r4, r5
 8000870:	ea81 0e03 	eor.w	lr, r1, r3
 8000874:	ea52 3503 	orrs.w	r5, r2, r3, lsl #12
 8000878:	ea4f 3101 	mov.w	r1, r1, lsl #12
 800087c:	f000 8088 	beq.w	8000990 <__aeabi_ddiv+0x144>
 8000880:	ea4f 3303 	mov.w	r3, r3, lsl #12
 8000884:	f04f 5580 	mov.w	r5, #268435456	; 0x10000000
 8000888:	ea45 1313 	orr.w	r3, r5, r3, lsr #4
 800088c:	ea43 6312 	orr.w	r3, r3, r2, lsr #24
 8000890:	ea4f 2202 	mov.w	r2, r2, lsl #8
 8000894:	ea45 1511 	orr.w	r5, r5, r1, lsr #4
 8000898:	ea45 6510 	orr.w	r5, r5, r0, lsr #24
 800089c:	ea4f 2600 	mov.w	r6, r0, lsl #8
 80008a0:	f00e 4100 	and.w	r1, lr, #2147483648	; 0x80000000
 80008a4:	429d      	cmp	r5, r3
 80008a6:	bf08      	it	eq
 80008a8:	4296      	cmpeq	r6, r2
 80008aa:	f144 04fd 	adc.w	r4, r4, #253	; 0xfd
 80008ae:	f504 7440 	add.w	r4, r4, #768	; 0x300
 80008b2:	d202      	bcs.n	80008ba <__aeabi_ddiv+0x6e>
 80008b4:	085b      	lsrs	r3, r3, #1
 80008b6:	ea4f 0232 	mov.w	r2, r2, rrx
 80008ba:	1ab6      	subs	r6, r6, r2
 80008bc:	eb65 0503 	sbc.w	r5, r5, r3
 80008c0:	085b      	lsrs	r3, r3, #1
 80008c2:	ea4f 0232 	mov.w	r2, r2, rrx
 80008c6:	f44f 1080 	mov.w	r0, #1048576	; 0x100000
 80008ca:	f44f 2c00 	mov.w	ip, #524288	; 0x80000
 80008ce:	ebb6 0e02 	subs.w	lr, r6, r2
 80008d2:	eb75 0e03 	sbcs.w	lr, r5, r3
 80008d6:	bf22      	ittt	cs
 80008d8:	1ab6      	subcs	r6, r6, r2
 80008da:	4675      	movcs	r5, lr
 80008dc:	ea40 000c 	orrcs.w	r0, r0, ip
 80008e0:	085b      	lsrs	r3, r3, #1
 80008e2:	ea4f 0232 	mov.w	r2, r2, rrx
 80008e6:	ebb6 0e02 	subs.w	lr, r6, r2
 80008ea:	eb75 0e03 	sbcs.w	lr, r5, r3
 80008ee:	bf22      	ittt	cs
 80008f0:	1ab6      	subcs	r6, r6, r2
 80008f2:	4675      	movcs	r5, lr
 80008f4:	ea40 005c 	orrcs.w	r0, r0, ip, lsr #1
 80008f8:	085b      	lsrs	r3, r3, #1
 80008fa:	ea4f 0232 	mov.w	r2, r2, rrx
 80008fe:	ebb6 0e02 	subs.w	lr, r6, r2
 8000902:	eb75 0e03 	sbcs.w	lr, r5, r3
 8000906:	bf22      	ittt	cs
 8000908:	1ab6      	subcs	r6, r6, r2
 800090a:	4675      	movcs	r5, lr
 800090c:	ea40 009c 	orrcs.w	r0, r0, ip, lsr #2
 8000910:	085b      	lsrs	r3, r3, #1
 8000912:	ea4f 0232 	mov.w	r2, r2, rrx
 8000916:	ebb6 0e02 	subs.w	lr, r6, r2
 800091a:	eb75 0e03 	sbcs.w	lr, r5, r3
 800091e:	bf22      	ittt	cs
 8000920:	1ab6      	subcs	r6, r6, r2
 8000922:	4675      	movcs	r5, lr
 8000924:	ea40 00dc 	orrcs.w	r0, r0, ip, lsr #3
 8000928:	ea55 0e06 	orrs.w	lr, r5, r6
 800092c:	d018      	beq.n	8000960 <__aeabi_ddiv+0x114>
 800092e:	ea4f 1505 	mov.w	r5, r5, lsl #4
 8000932:	ea45 7516 	orr.w	r5, r5, r6, lsr #28
 8000936:	ea4f 1606 	mov.w	r6, r6, lsl #4
 800093a:	ea4f 03c3 	mov.w	r3, r3, lsl #3
 800093e:	ea43 7352 	orr.w	r3, r3, r2, lsr #29
 8000942:	ea4f 02c2 	mov.w	r2, r2, lsl #3
 8000946:	ea5f 1c1c 	movs.w	ip, ip, lsr #4
 800094a:	d1c0      	bne.n	80008ce <__aeabi_ddiv+0x82>
 800094c:	f411 1f80 	tst.w	r1, #1048576	; 0x100000
 8000950:	d10b      	bne.n	800096a <__aeabi_ddiv+0x11e>
 8000952:	ea41 0100 	orr.w	r1, r1, r0
 8000956:	f04f 0000 	mov.w	r0, #0
 800095a:	f04f 4c00 	mov.w	ip, #2147483648	; 0x80000000
 800095e:	e7b6      	b.n	80008ce <__aeabi_ddiv+0x82>
 8000960:	f411 1f80 	tst.w	r1, #1048576	; 0x100000
 8000964:	bf04      	itt	eq
 8000966:	4301      	orreq	r1, r0
 8000968:	2000      	moveq	r0, #0
 800096a:	f1b4 0cfd 	subs.w	ip, r4, #253	; 0xfd
 800096e:	bf88      	it	hi
 8000970:	f5bc 6fe0 	cmphi.w	ip, #1792	; 0x700
 8000974:	f63f aeaf 	bhi.w	80006d6 <__aeabi_dmul+0xde>
 8000978:	ebb5 0c03 	subs.w	ip, r5, r3
 800097c:	bf04      	itt	eq
 800097e:	ebb6 0c02 	subseq.w	ip, r6, r2
 8000982:	ea5f 0c50 	movseq.w	ip, r0, lsr #1
 8000986:	f150 0000 	adcs.w	r0, r0, #0
 800098a:	eb41 5104 	adc.w	r1, r1, r4, lsl #20
 800098e:	bd70      	pop	{r4, r5, r6, pc}
 8000990:	f00e 4e00 	and.w	lr, lr, #2147483648	; 0x80000000
 8000994:	ea4e 3111 	orr.w	r1, lr, r1, lsr #12
 8000998:	eb14 045c 	adds.w	r4, r4, ip, lsr #1
 800099c:	bfc2      	ittt	gt
 800099e:	ebd4 050c 	rsbsgt	r5, r4, ip
 80009a2:	ea41 5104 	orrgt.w	r1, r1, r4, lsl #20
 80009a6:	bd70      	popgt	{r4, r5, r6, pc}
 80009a8:	f441 1180 	orr.w	r1, r1, #1048576	; 0x100000
 80009ac:	f04f 0e00 	mov.w	lr, #0
 80009b0:	3c01      	subs	r4, #1
 80009b2:	e690      	b.n	80006d6 <__aeabi_dmul+0xde>
 80009b4:	ea45 0e06 	orr.w	lr, r5, r6
 80009b8:	e68d      	b.n	80006d6 <__aeabi_dmul+0xde>
 80009ba:	ea0c 5513 	and.w	r5, ip, r3, lsr #20
 80009be:	ea94 0f0c 	teq	r4, ip
 80009c2:	bf08      	it	eq
 80009c4:	ea95 0f0c 	teqeq	r5, ip
 80009c8:	f43f af3b 	beq.w	8000842 <__aeabi_dmul+0x24a>
 80009cc:	ea94 0f0c 	teq	r4, ip
 80009d0:	d10a      	bne.n	80009e8 <__aeabi_ddiv+0x19c>
 80009d2:	ea50 3401 	orrs.w	r4, r0, r1, lsl #12
 80009d6:	f47f af34 	bne.w	8000842 <__aeabi_dmul+0x24a>
 80009da:	ea95 0f0c 	teq	r5, ip
 80009de:	f47f af25 	bne.w	800082c <__aeabi_dmul+0x234>
 80009e2:	4610      	mov	r0, r2
 80009e4:	4619      	mov	r1, r3
 80009e6:	e72c      	b.n	8000842 <__aeabi_dmul+0x24a>
 80009e8:	ea95 0f0c 	teq	r5, ip
 80009ec:	d106      	bne.n	80009fc <__aeabi_ddiv+0x1b0>
 80009ee:	ea52 3503 	orrs.w	r5, r2, r3, lsl #12
 80009f2:	f43f aefd 	beq.w	80007f0 <__aeabi_dmul+0x1f8>
 80009f6:	4610      	mov	r0, r2
 80009f8:	4619      	mov	r1, r3
 80009fa:	e722      	b.n	8000842 <__aeabi_dmul+0x24a>
 80009fc:	ea50 0641 	orrs.w	r6, r0, r1, lsl #1
 8000a00:	bf18      	it	ne
 8000a02:	ea52 0643 	orrsne.w	r6, r2, r3, lsl #1
 8000a06:	f47f aec5 	bne.w	8000794 <__aeabi_dmul+0x19c>
 8000a0a:	ea50 0441 	orrs.w	r4, r0, r1, lsl #1
 8000a0e:	f47f af0d 	bne.w	800082c <__aeabi_dmul+0x234>
 8000a12:	ea52 0543 	orrs.w	r5, r2, r3, lsl #1
 8000a16:	f47f aeeb 	bne.w	80007f0 <__aeabi_dmul+0x1f8>
 8000a1a:	e712      	b.n	8000842 <__aeabi_dmul+0x24a>

08000a1c <__gedf2>:
 8000a1c:	f04f 3cff 	mov.w	ip, #4294967295
 8000a20:	e006      	b.n	8000a30 <__cmpdf2+0x4>
 8000a22:	bf00      	nop

08000a24 <__ledf2>:
 8000a24:	f04f 0c01 	mov.w	ip, #1
 8000a28:	e002      	b.n	8000a30 <__cmpdf2+0x4>
 8000a2a:	bf00      	nop

08000a2c <__cmpdf2>:
 8000a2c:	f04f 0c01 	mov.w	ip, #1
 8000a30:	f84d cd04 	str.w	ip, [sp, #-4]!
 8000a34:	ea4f 0c41 	mov.w	ip, r1, lsl #1
 8000a38:	ea7f 5c6c 	mvns.w	ip, ip, asr #21
 8000a3c:	ea4f 0c43 	mov.w	ip, r3, lsl #1
 8000a40:	bf18      	it	ne
 8000a42:	ea7f 5c6c 	mvnsne.w	ip, ip, asr #21
 8000a46:	d01b      	beq.n	8000a80 <__cmpdf2+0x54>
 8000a48:	b001      	add	sp, #4
 8000a4a:	ea50 0c41 	orrs.w	ip, r0, r1, lsl #1
 8000a4e:	bf0c      	ite	eq
 8000a50:	ea52 0c43 	orrseq.w	ip, r2, r3, lsl #1
 8000a54:	ea91 0f03 	teqne	r1, r3
 8000a58:	bf02      	ittt	eq
 8000a5a:	ea90 0f02 	teqeq	r0, r2
 8000a5e:	2000      	moveq	r0, #0
 8000a60:	4770      	bxeq	lr
 8000a62:	f110 0f00 	cmn.w	r0, #0
 8000a66:	ea91 0f03 	teq	r1, r3
 8000a6a:	bf58      	it	pl
 8000a6c:	4299      	cmppl	r1, r3
 8000a6e:	bf08      	it	eq
 8000a70:	4290      	cmpeq	r0, r2
 8000a72:	bf2c      	ite	cs
 8000a74:	17d8      	asrcs	r0, r3, #31
 8000a76:	ea6f 70e3 	mvncc.w	r0, r3, asr #31
 8000a7a:	f040 0001 	orr.w	r0, r0, #1
 8000a7e:	4770      	bx	lr
 8000a80:	ea4f 0c41 	mov.w	ip, r1, lsl #1
 8000a84:	ea7f 5c6c 	mvns.w	ip, ip, asr #21
 8000a88:	d102      	bne.n	8000a90 <__cmpdf2+0x64>
 8000a8a:	ea50 3c01 	orrs.w	ip, r0, r1, lsl #12
 8000a8e:	d107      	bne.n	8000aa0 <__cmpdf2+0x74>
 8000a90:	ea4f 0c43 	mov.w	ip, r3, lsl #1
 8000a94:	ea7f 5c6c 	mvns.w	ip, ip, asr #21
 8000a98:	d1d6      	bne.n	8000a48 <__cmpdf2+0x1c>
 8000a9a:	ea52 3c03 	orrs.w	ip, r2, r3, lsl #12
 8000a9e:	d0d3      	beq.n	8000a48 <__cmpdf2+0x1c>
 8000aa0:	f85d 0b04 	ldr.w	r0, [sp], #4
 8000aa4:	4770      	bx	lr
 8000aa6:	bf00      	nop

08000aa8 <__aeabi_cdrcmple>:
 8000aa8:	4684      	mov	ip, r0
 8000aaa:	4610      	mov	r0, r2
 8000aac:	4662      	mov	r2, ip
 8000aae:	468c      	mov	ip, r1
 8000ab0:	4619      	mov	r1, r3
 8000ab2:	4663      	mov	r3, ip
 8000ab4:	e000      	b.n	8000ab8 <__aeabi_cdcmpeq>
 8000ab6:	bf00      	nop

08000ab8 <__aeabi_cdcmpeq>:
 8000ab8:	b501      	push	{r0, lr}
 8000aba:	f7ff ffb7 	bl	8000a2c <__cmpdf2>
 8000abe:	2800      	cmp	r0, #0
 8000ac0:	bf48      	it	mi
 8000ac2:	f110 0f00 	cmnmi.w	r0, #0
 8000ac6:	bd01      	pop	{r0, pc}

08000ac8 <__aeabi_dcmpeq>:
 8000ac8:	f84d ed08 	str.w	lr, [sp, #-8]!
 8000acc:	f7ff fff4 	bl	8000ab8 <__aeabi_cdcmpeq>
 8000ad0:	bf0c      	ite	eq
 8000ad2:	2001      	moveq	r0, #1
 8000ad4:	2000      	movne	r0, #0
 8000ad6:	f85d fb08 	ldr.w	pc, [sp], #8
 8000ada:	bf00      	nop

08000adc <__aeabi_dcmplt>:
 8000adc:	f84d ed08 	str.w	lr, [sp, #-8]!
 8000ae0:	f7ff ffea 	bl	8000ab8 <__aeabi_cdcmpeq>
 8000ae4:	bf34      	ite	cc
 8000ae6:	2001      	movcc	r0, #1
 8000ae8:	2000      	movcs	r0, #0
 8000aea:	f85d fb08 	ldr.w	pc, [sp], #8
 8000aee:	bf00      	nop

08000af0 <__aeabi_dcmple>:
 8000af0:	f84d ed08 	str.w	lr, [sp, #-8]!
 8000af4:	f7ff ffe0 	bl	8000ab8 <__aeabi_cdcmpeq>
 8000af8:	bf94      	ite	ls
 8000afa:	2001      	movls	r0, #1
 8000afc:	2000      	movhi	r0, #0
 8000afe:	f85d fb08 	ldr.w	pc, [sp], #8
 8000b02:	bf00      	nop

08000b04 <__aeabi_dcmpge>:
 8000b04:	f84d ed08 	str.w	lr, [sp, #-8]!
 8000b08:	f7ff ffce 	bl	8000aa8 <__aeabi_cdrcmple>
 8000b0c:	bf94      	ite	ls
 8000b0e:	2001      	movls	r0, #1
 8000b10:	2000      	movhi	r0, #0
 8000b12:	f85d fb08 	ldr.w	pc, [sp], #8
 8000b16:	bf00      	nop

08000b18 <__aeabi_dcmpgt>:
 8000b18:	f84d ed08 	str.w	lr, [sp, #-8]!
 8000b1c:	f7ff ffc4 	bl	8000aa8 <__aeabi_cdrcmple>
 8000b20:	bf34      	ite	cc
 8000b22:	2001      	movcc	r0, #1
 8000b24:	2000      	movcs	r0, #0
 8000b26:	f85d fb08 	ldr.w	pc, [sp], #8
 8000b2a:	bf00      	nop

08000b2c <__aeabi_dcmpun>:
 8000b2c:	ea4f 0c41 	mov.w	ip, r1, lsl #1
 8000b30:	ea7f 5c6c 	mvns.w	ip, ip, asr #21
 8000b34:	d102      	bne.n	8000b3c <__aeabi_dcmpun+0x10>
 8000b36:	ea50 3c01 	orrs.w	ip, r0, r1, lsl #12
 8000b3a:	d10a      	bne.n	8000b52 <__aeabi_dcmpun+0x26>
 8000b3c:	ea4f 0c43 	mov.w	ip, r3, lsl #1
 8000b40:	ea7f 5c6c 	mvns.w	ip, ip, asr #21
 8000b44:	d102      	bne.n	8000b4c <__aeabi_dcmpun+0x20>
 8000b46:	ea52 3c03 	orrs.w	ip, r2, r3, lsl #12
 8000b4a:	d102      	bne.n	8000b52 <__aeabi_dcmpun+0x26>
 8000b4c:	f04f 0000 	mov.w	r0, #0
 8000b50:	4770      	bx	lr
 8000b52:	f04f 0001 	mov.w	r0, #1
 8000b56:	4770      	bx	lr

08000b58 <__aeabi_d2iz>:
 8000b58:	ea4f 0241 	mov.w	r2, r1, lsl #1
 8000b5c:	f512 1200 	adds.w	r2, r2, #2097152	; 0x200000
 8000b60:	d215      	bcs.n	8000b8e <__aeabi_d2iz+0x36>
 8000b62:	d511      	bpl.n	8000b88 <__aeabi_d2iz+0x30>
 8000b64:	f46f 7378 	mvn.w	r3, #992	; 0x3e0
 8000b68:	ebb3 5262 	subs.w	r2, r3, r2, asr #21
 8000b6c:	d912      	bls.n	8000b94 <__aeabi_d2iz+0x3c>
 8000b6e:	ea4f 23c1 	mov.w	r3, r1, lsl #11
 8000b72:	f043 4300 	orr.w	r3, r3, #2147483648	; 0x80000000
 8000b76:	ea43 5350 	orr.w	r3, r3, r0, lsr #21
 8000b7a:	f011 4f00 	tst.w	r1, #2147483648	; 0x80000000
 8000b7e:	fa23 f002 	lsr.w	r0, r3, r2
 8000b82:	bf18      	it	ne
 8000b84:	4240      	negne	r0, r0
 8000b86:	4770      	bx	lr
 8000b88:	f04f 0000 	mov.w	r0, #0
 8000b8c:	4770      	bx	lr
 8000b8e:	ea50 3001 	orrs.w	r0, r0, r1, lsl #12
 8000b92:	d105      	bne.n	8000ba0 <__aeabi_d2iz+0x48>
 8000b94:	f011 4000 	ands.w	r0, r1, #2147483648	; 0x80000000
 8000b98:	bf08      	it	eq
 8000b9a:	f06f 4000 	mvneq.w	r0, #2147483648	; 0x80000000
 8000b9e:	4770      	bx	lr
 8000ba0:	f04f 0000 	mov.w	r0, #0
 8000ba4:	4770      	bx	lr
 8000ba6:	bf00      	nop

08000ba8 <__aeabi_d2f>:
 8000ba8:	ea4f 0241 	mov.w	r2, r1, lsl #1
 8000bac:	f1b2 43e0 	subs.w	r3, r2, #1879048192	; 0x70000000
 8000bb0:	bf24      	itt	cs
 8000bb2:	f5b3 1c00 	subscs.w	ip, r3, #2097152	; 0x200000
 8000bb6:	f1dc 5cfe 	rsbscs	ip, ip, #532676608	; 0x1fc00000
 8000bba:	d90d      	bls.n	8000bd8 <__aeabi_d2f+0x30>
 8000bbc:	f001 4c00 	and.w	ip, r1, #2147483648	; 0x80000000
 8000bc0:	ea4f 02c0 	mov.w	r2, r0, lsl #3
 8000bc4:	ea4c 7050 	orr.w	r0, ip, r0, lsr #29
 8000bc8:	f1b2 4f00 	cmp.w	r2, #2147483648	; 0x80000000
 8000bcc:	eb40 0083 	adc.w	r0, r0, r3, lsl #2
 8000bd0:	bf08      	it	eq
 8000bd2:	f020 0001 	biceq.w	r0, r0, #1
 8000bd6:	4770      	bx	lr
 8000bd8:	f011 4f80 	tst.w	r1, #1073741824	; 0x40000000
 8000bdc:	d121      	bne.n	8000c22 <__aeabi_d2f+0x7a>
 8000bde:	f113 7238 	adds.w	r2, r3, #48234496	; 0x2e00000
 8000be2:	bfbc      	itt	lt
 8000be4:	f001 4000 	andlt.w	r0, r1, #2147483648	; 0x80000000
 8000be8:	4770      	bxlt	lr
 8000bea:	f441 1180 	orr.w	r1, r1, #1048576	; 0x100000
 8000bee:	ea4f 5252 	mov.w	r2, r2, lsr #21
 8000bf2:	f1c2 0218 	rsb	r2, r2, #24
 8000bf6:	f1c2 0c20 	rsb	ip, r2, #32
 8000bfa:	fa10 f30c 	lsls.w	r3, r0, ip
 8000bfe:	fa20 f002 	lsr.w	r0, r0, r2
 8000c02:	bf18      	it	ne
 8000c04:	f040 0001 	orrne.w	r0, r0, #1
 8000c08:	ea4f 23c1 	mov.w	r3, r1, lsl #11
 8000c0c:	ea4f 23d3 	mov.w	r3, r3, lsr #11
 8000c10:	fa03 fc0c 	lsl.w	ip, r3, ip
 8000c14:	ea40 000c 	orr.w	r0, r0, ip
 8000c18:	fa23 f302 	lsr.w	r3, r3, r2
 8000c1c:	ea4f 0343 	mov.w	r3, r3, lsl #1
 8000c20:	e7cc      	b.n	8000bbc <__aeabi_d2f+0x14>
 8000c22:	ea7f 5362 	mvns.w	r3, r2, asr #21
 8000c26:	d107      	bne.n	8000c38 <__aeabi_d2f+0x90>
 8000c28:	ea50 3301 	orrs.w	r3, r0, r1, lsl #12
 8000c2c:	bf1e      	ittt	ne
 8000c2e:	f04f 40fe 	movne.w	r0, #2130706432	; 0x7f000000
 8000c32:	f440 0040 	orrne.w	r0, r0, #12582912	; 0xc00000
 8000c36:	4770      	bxne	lr
 8000c38:	f001 4000 	and.w	r0, r1, #2147483648	; 0x80000000
 8000c3c:	f040 40fe 	orr.w	r0, r0, #2130706432	; 0x7f000000
 8000c40:	f440 0000 	orr.w	r0, r0, #8388608	; 0x800000
 8000c44:	4770      	bx	lr
 8000c46:	bf00      	nop

08000c48 <__aeabi_uldivmod>:
 8000c48:	b953      	cbnz	r3, 8000c60 <__aeabi_uldivmod+0x18>
 8000c4a:	b94a      	cbnz	r2, 8000c60 <__aeabi_uldivmod+0x18>
 8000c4c:	2900      	cmp	r1, #0
 8000c4e:	bf08      	it	eq
 8000c50:	2800      	cmpeq	r0, #0
 8000c52:	bf1c      	itt	ne
 8000c54:	f04f 31ff 	movne.w	r1, #4294967295
 8000c58:	f04f 30ff 	movne.w	r0, #4294967295
 8000c5c:	f000 b96e 	b.w	8000f3c <__aeabi_idiv0>
 8000c60:	f1ad 0c08 	sub.w	ip, sp, #8
 8000c64:	e96d ce04 	strd	ip, lr, [sp, #-16]!
 8000c68:	f000 f806 	bl	8000c78 <__udivmoddi4>
 8000c6c:	f8dd e004 	ldr.w	lr, [sp, #4]
 8000c70:	e9dd 2302 	ldrd	r2, r3, [sp, #8]
 8000c74:	b004      	add	sp, #16
 8000c76:	4770      	bx	lr

08000c78 <__udivmoddi4>:
 8000c78:	e92d 47f0 	stmdb	sp!, {r4, r5, r6, r7, r8, r9, sl, lr}
 8000c7c:	9d08      	ldr	r5, [sp, #32]
 8000c7e:	4604      	mov	r4, r0
 8000c80:	468c      	mov	ip, r1
 8000c82:	2b00      	cmp	r3, #0
 8000c84:	f040 8083 	bne.w	8000d8e <__udivmoddi4+0x116>
 8000c88:	428a      	cmp	r2, r1
 8000c8a:	4617      	mov	r7, r2
 8000c8c:	d947      	bls.n	8000d1e <__udivmoddi4+0xa6>
 8000c8e:	fab2 f282 	clz	r2, r2
 8000c92:	b142      	cbz	r2, 8000ca6 <__udivmoddi4+0x2e>
 8000c94:	f1c2 0020 	rsb	r0, r2, #32
 8000c98:	fa24 f000 	lsr.w	r0, r4, r0
 8000c9c:	4091      	lsls	r1, r2
 8000c9e:	4097      	lsls	r7, r2
 8000ca0:	ea40 0c01 	orr.w	ip, r0, r1
 8000ca4:	4094      	lsls	r4, r2
 8000ca6:	ea4f 4817 	mov.w	r8, r7, lsr #16
 8000caa:	0c23      	lsrs	r3, r4, #16
 8000cac:	fbbc f6f8 	udiv	r6, ip, r8
 8000cb0:	fa1f fe87 	uxth.w	lr, r7
 8000cb4:	fb08 c116 	mls	r1, r8, r6, ip
 8000cb8:	ea43 4301 	orr.w	r3, r3, r1, lsl #16
 8000cbc:	fb06 f10e 	mul.w	r1, r6, lr
 8000cc0:	4299      	cmp	r1, r3
 8000cc2:	d909      	bls.n	8000cd8 <__udivmoddi4+0x60>
 8000cc4:	18fb      	adds	r3, r7, r3
 8000cc6:	f106 30ff 	add.w	r0, r6, #4294967295
 8000cca:	f080 8119 	bcs.w	8000f00 <__udivmoddi4+0x288>
 8000cce:	4299      	cmp	r1, r3
 8000cd0:	f240 8116 	bls.w	8000f00 <__udivmoddi4+0x288>
 8000cd4:	3e02      	subs	r6, #2
 8000cd6:	443b      	add	r3, r7
 8000cd8:	1a5b      	subs	r3, r3, r1
 8000cda:	b2a4      	uxth	r4, r4
 8000cdc:	fbb3 f0f8 	udiv	r0, r3, r8
 8000ce0:	fb08 3310 	mls	r3, r8, r0, r3
 8000ce4:	ea44 4403 	orr.w	r4, r4, r3, lsl #16
 8000ce8:	fb00 fe0e 	mul.w	lr, r0, lr
 8000cec:	45a6      	cmp	lr, r4
 8000cee:	d909      	bls.n	8000d04 <__udivmoddi4+0x8c>
 8000cf0:	193c      	adds	r4, r7, r4
 8000cf2:	f100 33ff 	add.w	r3, r0, #4294967295
 8000cf6:	f080 8105 	bcs.w	8000f04 <__udivmoddi4+0x28c>
 8000cfa:	45a6      	cmp	lr, r4
 8000cfc:	f240 8102 	bls.w	8000f04 <__udivmoddi4+0x28c>
 8000d00:	3802      	subs	r0, #2
 8000d02:	443c      	add	r4, r7
 8000d04:	ea40 4006 	orr.w	r0, r0, r6, lsl #16
 8000d08:	eba4 040e 	sub.w	r4, r4, lr
 8000d0c:	2600      	movs	r6, #0
 8000d0e:	b11d      	cbz	r5, 8000d18 <__udivmoddi4+0xa0>
 8000d10:	40d4      	lsrs	r4, r2
 8000d12:	2300      	movs	r3, #0
 8000d14:	e9c5 4300 	strd	r4, r3, [r5]
 8000d18:	4631      	mov	r1, r6
 8000d1a:	e8bd 87f0 	ldmia.w	sp!, {r4, r5, r6, r7, r8, r9, sl, pc}
 8000d1e:	b902      	cbnz	r2, 8000d22 <__udivmoddi4+0xaa>
 8000d20:	deff      	udf	#255	; 0xff
 8000d22:	fab2 f282 	clz	r2, r2
 8000d26:	2a00      	cmp	r2, #0
 8000d28:	d150      	bne.n	8000dcc <__udivmoddi4+0x154>
 8000d2a:	1bcb      	subs	r3, r1, r7
 8000d2c:	ea4f 4e17 	mov.w	lr, r7, lsr #16
 8000d30:	fa1f f887 	uxth.w	r8, r7
 8000d34:	2601      	movs	r6, #1
 8000d36:	fbb3 fcfe 	udiv	ip, r3, lr
 8000d3a:	0c21      	lsrs	r1, r4, #16
 8000d3c:	fb0e 331c 	mls	r3, lr, ip, r3
 8000d40:	ea41 4103 	orr.w	r1, r1, r3, lsl #16
 8000d44:	fb08 f30c 	mul.w	r3, r8, ip
 8000d48:	428b      	cmp	r3, r1
 8000d4a:	d907      	bls.n	8000d5c <__udivmoddi4+0xe4>
 8000d4c:	1879      	adds	r1, r7, r1
 8000d4e:	f10c 30ff 	add.w	r0, ip, #4294967295
 8000d52:	d202      	bcs.n	8000d5a <__udivmoddi4+0xe2>
 8000d54:	428b      	cmp	r3, r1
 8000d56:	f200 80e9 	bhi.w	8000f2c <__udivmoddi4+0x2b4>
 8000d5a:	4684      	mov	ip, r0
 8000d5c:	1ac9      	subs	r1, r1, r3
 8000d5e:	b2a3      	uxth	r3, r4
 8000d60:	fbb1 f0fe 	udiv	r0, r1, lr
 8000d64:	fb0e 1110 	mls	r1, lr, r0, r1
 8000d68:	ea43 4401 	orr.w	r4, r3, r1, lsl #16
 8000d6c:	fb08 f800 	mul.w	r8, r8, r0
 8000d70:	45a0      	cmp	r8, r4
 8000d72:	d907      	bls.n	8000d84 <__udivmoddi4+0x10c>
 8000d74:	193c      	adds	r4, r7, r4
 8000d76:	f100 33ff 	add.w	r3, r0, #4294967295
 8000d7a:	d202      	bcs.n	8000d82 <__udivmoddi4+0x10a>
 8000d7c:	45a0      	cmp	r8, r4
 8000d7e:	f200 80d9 	bhi.w	8000f34 <__udivmoddi4+0x2bc>
 8000d82:	4618      	mov	r0, r3
 8000d84:	eba4 0408 	sub.w	r4, r4, r8
 8000d88:	ea40 400c 	orr.w	r0, r0, ip, lsl #16
 8000d8c:	e7bf      	b.n	8000d0e <__udivmoddi4+0x96>
 8000d8e:	428b      	cmp	r3, r1
 8000d90:	d909      	bls.n	8000da6 <__udivmoddi4+0x12e>
 8000d92:	2d00      	cmp	r5, #0
 8000d94:	f000 80b1 	beq.w	8000efa <__udivmoddi4+0x282>
 8000d98:	2600      	movs	r6, #0
 8000d9a:	e9c5 0100 	strd	r0, r1, [r5]
 8000d9e:	4630      	mov	r0, r6
 8000da0:	4631      	mov	r1, r6
 8000da2:	e8bd 87f0 	ldmia.w	sp!, {r4, r5, r6, r7, r8, r9, sl, pc}
 8000da6:	fab3 f683 	clz	r6, r3
 8000daa:	2e00      	cmp	r6, #0
 8000dac:	d14a      	bne.n	8000e44 <__udivmoddi4+0x1cc>
 8000dae:	428b      	cmp	r3, r1
 8000db0:	d302      	bcc.n	8000db8 <__udivmoddi4+0x140>
 8000db2:	4282      	cmp	r2, r0
 8000db4:	f200 80b8 	bhi.w	8000f28 <__udivmoddi4+0x2b0>
 8000db8:	1a84      	subs	r4, r0, r2
 8000dba:	eb61 0103 	sbc.w	r1, r1, r3
 8000dbe:	2001      	movs	r0, #1
 8000dc0:	468c      	mov	ip, r1
 8000dc2:	2d00      	cmp	r5, #0
 8000dc4:	d0a8      	beq.n	8000d18 <__udivmoddi4+0xa0>
 8000dc6:	e9c5 4c00 	strd	r4, ip, [r5]
 8000dca:	e7a5      	b.n	8000d18 <__udivmoddi4+0xa0>
 8000dcc:	f1c2 0320 	rsb	r3, r2, #32
 8000dd0:	fa20 f603 	lsr.w	r6, r0, r3
 8000dd4:	4097      	lsls	r7, r2
 8000dd6:	fa01 f002 	lsl.w	r0, r1, r2
 8000dda:	ea4f 4e17 	mov.w	lr, r7, lsr #16
 8000dde:	40d9      	lsrs	r1, r3
 8000de0:	4330      	orrs	r0, r6
 8000de2:	0c03      	lsrs	r3, r0, #16
 8000de4:	fbb1 f6fe 	udiv	r6, r1, lr
 8000de8:	fa1f f887 	uxth.w	r8, r7
 8000dec:	fb0e 1116 	mls	r1, lr, r6, r1
 8000df0:	ea43 4301 	orr.w	r3, r3, r1, lsl #16
 8000df4:	fb06 f108 	mul.w	r1, r6, r8
 8000df8:	4299      	cmp	r1, r3
 8000dfa:	fa04 f402 	lsl.w	r4, r4, r2
 8000dfe:	d909      	bls.n	8000e14 <__udivmoddi4+0x19c>
 8000e00:	18fb      	adds	r3, r7, r3
 8000e02:	f106 3cff 	add.w	ip, r6, #4294967295
 8000e06:	f080 808d 	bcs.w	8000f24 <__udivmoddi4+0x2ac>
 8000e0a:	4299      	cmp	r1, r3
 8000e0c:	f240 808a 	bls.w	8000f24 <__udivmoddi4+0x2ac>
 8000e10:	3e02      	subs	r6, #2
 8000e12:	443b      	add	r3, r7
 8000e14:	1a5b      	subs	r3, r3, r1
 8000e16:	b281      	uxth	r1, r0
 8000e18:	fbb3 f0fe 	udiv	r0, r3, lr
 8000e1c:	fb0e 3310 	mls	r3, lr, r0, r3
 8000e20:	ea41 4103 	orr.w	r1, r1, r3, lsl #16
 8000e24:	fb00 f308 	mul.w	r3, r0, r8
 8000e28:	428b      	cmp	r3, r1
 8000e2a:	d907      	bls.n	8000e3c <__udivmoddi4+0x1c4>
 8000e2c:	1879      	adds	r1, r7, r1
 8000e2e:	f100 3cff 	add.w	ip, r0, #4294967295
 8000e32:	d273      	bcs.n	8000f1c <__udivmoddi4+0x2a4>
 8000e34:	428b      	cmp	r3, r1
 8000e36:	d971      	bls.n	8000f1c <__udivmoddi4+0x2a4>
 8000e38:	3802      	subs	r0, #2
 8000e3a:	4439      	add	r1, r7
 8000e3c:	1acb      	subs	r3, r1, r3
 8000e3e:	ea40 4606 	orr.w	r6, r0, r6, lsl #16
 8000e42:	e778      	b.n	8000d36 <__udivmoddi4+0xbe>
 8000e44:	f1c6 0c20 	rsb	ip, r6, #32
 8000e48:	fa03 f406 	lsl.w	r4, r3, r6
 8000e4c:	fa22 f30c 	lsr.w	r3, r2, ip
 8000e50:	431c      	orrs	r4, r3
 8000e52:	fa20 f70c 	lsr.w	r7, r0, ip
 8000e56:	fa01 f306 	lsl.w	r3, r1, r6
 8000e5a:	ea4f 4e14 	mov.w	lr, r4, lsr #16
 8000e5e:	fa21 f10c 	lsr.w	r1, r1, ip
 8000e62:	431f      	orrs	r7, r3
 8000e64:	0c3b      	lsrs	r3, r7, #16
 8000e66:	fbb1 f9fe 	udiv	r9, r1, lr
 8000e6a:	fa1f f884 	uxth.w	r8, r4
 8000e6e:	fb0e 1119 	mls	r1, lr, r9, r1
 8000e72:	ea43 4101 	orr.w	r1, r3, r1, lsl #16
 8000e76:	fb09 fa08 	mul.w	sl, r9, r8
 8000e7a:	458a      	cmp	sl, r1
 8000e7c:	fa02 f206 	lsl.w	r2, r2, r6
 8000e80:	fa00 f306 	lsl.w	r3, r0, r6
 8000e84:	d908      	bls.n	8000e98 <__udivmoddi4+0x220>
 8000e86:	1861      	adds	r1, r4, r1
 8000e88:	f109 30ff 	add.w	r0, r9, #4294967295
 8000e8c:	d248      	bcs.n	8000f20 <__udivmoddi4+0x2a8>
 8000e8e:	458a      	cmp	sl, r1
 8000e90:	d946      	bls.n	8000f20 <__udivmoddi4+0x2a8>
 8000e92:	f1a9 0902 	sub.w	r9, r9, #2
 8000e96:	4421      	add	r1, r4
 8000e98:	eba1 010a 	sub.w	r1, r1, sl
 8000e9c:	b2bf      	uxth	r7, r7
 8000e9e:	fbb1 f0fe 	udiv	r0, r1, lr
 8000ea2:	fb0e 1110 	mls	r1, lr, r0, r1
 8000ea6:	ea47 4701 	orr.w	r7, r7, r1, lsl #16
 8000eaa:	fb00 f808 	mul.w	r8, r0, r8
 8000eae:	45b8      	cmp	r8, r7
 8000eb0:	d907      	bls.n	8000ec2 <__udivmoddi4+0x24a>
 8000eb2:	19e7      	adds	r7, r4, r7
 8000eb4:	f100 31ff 	add.w	r1, r0, #4294967295
 8000eb8:	d22e      	bcs.n	8000f18 <__udivmoddi4+0x2a0>
 8000eba:	45b8      	cmp	r8, r7
 8000ebc:	d92c      	bls.n	8000f18 <__udivmoddi4+0x2a0>
 8000ebe:	3802      	subs	r0, #2
 8000ec0:	4427      	add	r7, r4
 8000ec2:	ea40 4009 	orr.w	r0, r0, r9, lsl #16
 8000ec6:	eba7 0708 	sub.w	r7, r7, r8
 8000eca:	fba0 8902 	umull	r8, r9, r0, r2
 8000ece:	454f      	cmp	r7, r9
 8000ed0:	46c6      	mov	lr, r8
 8000ed2:	4649      	mov	r1, r9
 8000ed4:	d31a      	bcc.n	8000f0c <__udivmoddi4+0x294>
 8000ed6:	d017      	beq.n	8000f08 <__udivmoddi4+0x290>
 8000ed8:	b15d      	cbz	r5, 8000ef2 <__udivmoddi4+0x27a>
 8000eda:	ebb3 020e 	subs.w	r2, r3, lr
 8000ede:	eb67 0701 	sbc.w	r7, r7, r1
 8000ee2:	fa07 fc0c 	lsl.w	ip, r7, ip
 8000ee6:	40f2      	lsrs	r2, r6
 8000ee8:	ea4c 0202 	orr.w	r2, ip, r2
 8000eec:	40f7      	lsrs	r7, r6
 8000eee:	e9c5 2700 	strd	r2, r7, [r5]
 8000ef2:	2600      	movs	r6, #0
 8000ef4:	4631      	mov	r1, r6
 8000ef6:	e8bd 87f0 	ldmia.w	sp!, {r4, r5, r6, r7, r8, r9, sl, pc}
 8000efa:	462e      	mov	r6, r5
 8000efc:	4628      	mov	r0, r5
 8000efe:	e70b      	b.n	8000d18 <__udivmoddi4+0xa0>
 8000f00:	4606      	mov	r6, r0
 8000f02:	e6e9      	b.n	8000cd8 <__udivmoddi4+0x60>
 8000f04:	4618      	mov	r0, r3
 8000f06:	e6fd      	b.n	8000d04 <__udivmoddi4+0x8c>
 8000f08:	4543      	cmp	r3, r8
 8000f0a:	d2e5      	bcs.n	8000ed8 <__udivmoddi4+0x260>
 8000f0c:	ebb8 0e02 	subs.w	lr, r8, r2
 8000f10:	eb69 0104 	sbc.w	r1, r9, r4
 8000f14:	3801      	subs	r0, #1
 8000f16:	e7df      	b.n	8000ed8 <__udivmoddi4+0x260>
 8000f18:	4608      	mov	r0, r1
 8000f1a:	e7d2      	b.n	8000ec2 <__udivmoddi4+0x24a>
 8000f1c:	4660      	mov	r0, ip
 8000f1e:	e78d      	b.n	8000e3c <__udivmoddi4+0x1c4>
 8000f20:	4681      	mov	r9, r0
 8000f22:	e7b9      	b.n	8000e98 <__udivmoddi4+0x220>
 8000f24:	4666      	mov	r6, ip
 8000f26:	e775      	b.n	8000e14 <__udivmoddi4+0x19c>
 8000f28:	4630      	mov	r0, r6
 8000f2a:	e74a      	b.n	8000dc2 <__udivmoddi4+0x14a>
 8000f2c:	f1ac 0c02 	sub.w	ip, ip, #2
 8000f30:	4439      	add	r1, r7
 8000f32:	e713      	b.n	8000d5c <__udivmoddi4+0xe4>
 8000f34:	3802      	subs	r0, #2
 8000f36:	443c      	add	r4, r7
 8000f38:	e724      	b.n	8000d84 <__udivmoddi4+0x10c>
 8000f3a:	bf00      	nop

08000f3c <__aeabi_idiv0>:
 8000f3c:	4770      	bx	lr
 8000f3e:	bf00      	nop

08000f40 <OLED_WR_Byte>:
 8000f40:	b570      	push	{r4, r5, r6, lr}
 8000f42:	460a      	mov	r2, r1
 8000f44:	4604      	mov	r4, r0
 8000f46:	b101      	cbz	r1, 8000f4a <OLED_WR_Byte+0xa>
 8000f48:	2201      	movs	r2, #1
 8000f4a:	4813      	ldr	r0, [pc, #76]	; (8000f98 <OLED_WR_Byte+0x58>)
 8000f4c:	4e12      	ldr	r6, [pc, #72]	; (8000f98 <OLED_WR_Byte+0x58>)
 8000f4e:	f44f 7180 	mov.w	r1, #256	; 0x100
 8000f52:	f002 fab7 	bl	80034c4 <HAL_GPIO_WritePin>
 8000f56:	2508      	movs	r5, #8
 8000f58:	2200      	movs	r2, #0
 8000f5a:	2120      	movs	r1, #32
 8000f5c:	4630      	mov	r0, r6
 8000f5e:	f002 fab1 	bl	80034c4 <HAL_GPIO_WritePin>
 8000f62:	0623      	lsls	r3, r4, #24
 8000f64:	bf4c      	ite	mi
 8000f66:	2201      	movmi	r2, #1
 8000f68:	2200      	movpl	r2, #0
 8000f6a:	2140      	movs	r1, #64	; 0x40
 8000f6c:	4630      	mov	r0, r6
 8000f6e:	f002 faa9 	bl	80034c4 <HAL_GPIO_WritePin>
 8000f72:	3d01      	subs	r5, #1
 8000f74:	2201      	movs	r2, #1
 8000f76:	2120      	movs	r1, #32
 8000f78:	4630      	mov	r0, r6
 8000f7a:	f002 faa3 	bl	80034c4 <HAL_GPIO_WritePin>
 8000f7e:	0064      	lsls	r4, r4, #1
 8000f80:	f015 05ff 	ands.w	r5, r5, #255	; 0xff
 8000f84:	b2e4      	uxtb	r4, r4
 8000f86:	d1e7      	bne.n	8000f58 <OLED_WR_Byte+0x18>
 8000f88:	e8bd 4070 	ldmia.w	sp!, {r4, r5, r6, lr}
 8000f8c:	4802      	ldr	r0, [pc, #8]	; (8000f98 <OLED_WR_Byte+0x58>)
 8000f8e:	2201      	movs	r2, #1
 8000f90:	f44f 7180 	mov.w	r1, #256	; 0x100
 8000f94:	f002 ba96 	b.w	80034c4 <HAL_GPIO_WritePin>
 8000f98:	40021000 	.word	0x40021000

08000f9c <OLED_Refresh_Gram>:
 8000f9c:	b570      	push	{r4, r5, r6, lr}
 8000f9e:	4e0f      	ldr	r6, [pc, #60]	; (8000fdc <OLED_Refresh_Gram+0x40>)
 8000fa0:	24b0      	movs	r4, #176	; 0xb0
 8000fa2:	2100      	movs	r1, #0
 8000fa4:	4620      	mov	r0, r4
 8000fa6:	f7ff ffcb 	bl	8000f40 <OLED_WR_Byte>
 8000faa:	2100      	movs	r1, #0
 8000fac:	4608      	mov	r0, r1
 8000fae:	f7ff ffc7 	bl	8000f40 <OLED_WR_Byte>
 8000fb2:	2100      	movs	r1, #0
 8000fb4:	2010      	movs	r0, #16
 8000fb6:	f7ff ffc3 	bl	8000f40 <OLED_WR_Byte>
 8000fba:	2500      	movs	r5, #0
 8000fbc:	f816 0035 	ldrb.w	r0, [r6, r5, lsl #3]
 8000fc0:	2101      	movs	r1, #1
 8000fc2:	3501      	adds	r5, #1
 8000fc4:	f7ff ffbc 	bl	8000f40 <OLED_WR_Byte>
 8000fc8:	2d80      	cmp	r5, #128	; 0x80
 8000fca:	d1f7      	bne.n	8000fbc <OLED_Refresh_Gram+0x20>
 8000fcc:	3401      	adds	r4, #1
 8000fce:	b2e4      	uxtb	r4, r4
 8000fd0:	2cb8      	cmp	r4, #184	; 0xb8
 8000fd2:	f106 0601 	add.w	r6, r6, #1
 8000fd6:	d1e4      	bne.n	8000fa2 <OLED_Refresh_Gram+0x6>
 8000fd8:	bd70      	pop	{r4, r5, r6, pc}
 8000fda:	bf00      	nop
 8000fdc:	20004b28 	.word	0x20004b28

08000fe0 <OLED_Clear>:
 8000fe0:	4908      	ldr	r1, [pc, #32]	; (8001004 <OLED_Clear+0x24>)
 8000fe2:	2308      	movs	r3, #8
 8000fe4:	2000      	movs	r0, #0
 8000fe6:	2200      	movs	r2, #0
 8000fe8:	f801 0032 	strb.w	r0, [r1, r2, lsl #3]
 8000fec:	3201      	adds	r2, #1
 8000fee:	2a80      	cmp	r2, #128	; 0x80
 8000ff0:	d1fa      	bne.n	8000fe8 <OLED_Clear+0x8>
 8000ff2:	3b01      	subs	r3, #1
 8000ff4:	f013 03ff 	ands.w	r3, r3, #255	; 0xff
 8000ff8:	f101 0101 	add.w	r1, r1, #1
 8000ffc:	d1f3      	bne.n	8000fe6 <OLED_Clear+0x6>
 8000ffe:	f7ff bfcd 	b.w	8000f9c <OLED_Refresh_Gram>
 8001002:	bf00      	nop
 8001004:	20004b28 	.word	0x20004b28

08001008 <OLED_DrawPoint>:
 8001008:	0603      	lsls	r3, r0, #24
 800100a:	b530      	push	{r4, r5, lr}
 800100c:	d413      	bmi.n	8001036 <OLED_DrawPoint+0x2e>
 800100e:	293f      	cmp	r1, #63	; 0x3f
 8001010:	d811      	bhi.n	8001036 <OLED_DrawPoint+0x2e>
 8001012:	f001 0507 	and.w	r5, r1, #7
 8001016:	4c0a      	ldr	r4, [pc, #40]	; (8001040 <OLED_DrawPoint+0x38>)
 8001018:	08c9      	lsrs	r1, r1, #3
 800101a:	f1c1 0107 	rsb	r1, r1, #7
 800101e:	b2c9      	uxtb	r1, r1
 8001020:	eb04 00c0 	add.w	r0, r4, r0, lsl #3
 8001024:	2301      	movs	r3, #1
 8001026:	f1c5 0507 	rsb	r5, r5, #7
 800102a:	fa03 f505 	lsl.w	r5, r3, r5
 800102e:	5c43      	ldrb	r3, [r0, r1]
 8001030:	b112      	cbz	r2, 8001038 <OLED_DrawPoint+0x30>
 8001032:	432b      	orrs	r3, r5
 8001034:	5443      	strb	r3, [r0, r1]
 8001036:	bd30      	pop	{r4, r5, pc}
 8001038:	ea23 0305 	bic.w	r3, r3, r5
 800103c:	e7fa      	b.n	8001034 <OLED_DrawPoint+0x2c>
 800103e:	bf00      	nop
 8001040:	20004b28 	.word	0x20004b28

08001044 <OLED_ShowChar>:
 8001044:	e92d 4ff7 	stmdb	sp!, {r0, r1, r2, r4, r5, r6, r7, r8, r9, sl, fp, lr}
 8001048:	461f      	mov	r7, r3
 800104a:	f1a2 0a20 	sub.w	sl, r2, #32
 800104e:	4b1f      	ldr	r3, [pc, #124]	; (80010cc <OLED_ShowChar+0x88>)
 8001050:	f89d b030 	ldrb.w	fp, [sp, #48]	; 0x30
 8001054:	fa5f fa8a 	uxtb.w	sl, sl
 8001058:	eb03 130a 	add.w	r3, r3, sl, lsl #4
 800105c:	9300      	str	r3, [sp, #0]
 800105e:	4b1c      	ldr	r3, [pc, #112]	; (80010d0 <OLED_ShowChar+0x8c>)
 8001060:	eb0a 0a4a 	add.w	sl, sl, sl, lsl #1
 8001064:	eb03 038a 	add.w	r3, r3, sl, lsl #2
 8001068:	4681      	mov	r9, r0
 800106a:	4688      	mov	r8, r1
 800106c:	9301      	str	r3, [sp, #4]
 800106e:	460c      	mov	r4, r1
 8001070:	2600      	movs	r6, #0
 8001072:	42b7      	cmp	r7, r6
 8001074:	d102      	bne.n	800107c <OLED_ShowChar+0x38>
 8001076:	b003      	add	sp, #12
 8001078:	e8bd 8ff0 	ldmia.w	sp!, {r4, r5, r6, r7, r8, r9, sl, fp, pc}
 800107c:	2f0c      	cmp	r7, #12
 800107e:	bf0c      	ite	eq
 8001080:	9b01      	ldreq	r3, [sp, #4]
 8001082:	9b00      	ldrne	r3, [sp, #0]
 8001084:	5d9d      	ldrb	r5, [r3, r6]
 8001086:	f104 0308 	add.w	r3, r4, #8
 800108a:	fa5f fa83 	uxtb.w	sl, r3
 800108e:	062b      	lsls	r3, r5, #24
 8001090:	bf58      	it	pl
 8001092:	fabb f28b 	clzpl	r2, fp
 8001096:	4621      	mov	r1, r4
 8001098:	f104 0401 	add.w	r4, r4, #1
 800109c:	bf4c      	ite	mi
 800109e:	465a      	movmi	r2, fp
 80010a0:	0952      	lsrpl	r2, r2, #5
 80010a2:	4648      	mov	r0, r9
 80010a4:	b2e4      	uxtb	r4, r4
 80010a6:	f7ff ffaf 	bl	8001008 <OLED_DrawPoint>
 80010aa:	eba4 0208 	sub.w	r2, r4, r8
 80010ae:	006d      	lsls	r5, r5, #1
 80010b0:	42ba      	cmp	r2, r7
 80010b2:	b2ed      	uxtb	r5, r5
 80010b4:	d107      	bne.n	80010c6 <OLED_ShowChar+0x82>
 80010b6:	f109 0001 	add.w	r0, r9, #1
 80010ba:	fa5f f980 	uxtb.w	r9, r0
 80010be:	46c2      	mov	sl, r8
 80010c0:	3601      	adds	r6, #1
 80010c2:	4654      	mov	r4, sl
 80010c4:	e7d5      	b.n	8001072 <OLED_ShowChar+0x2e>
 80010c6:	45a2      	cmp	sl, r4
 80010c8:	d1e1      	bne.n	800108e <OLED_ShowChar+0x4a>
 80010ca:	e7f9      	b.n	80010c0 <OLED_ShowChar+0x7c>
 80010cc:	0800a594 	.word	0x0800a594
 80010d0:	0800a120 	.word	0x0800a120

080010d4 <OLED_ShowString>:
 80010d4:	b5f7      	push	{r0, r1, r2, r4, r5, r6, r7, lr}
 80010d6:	4604      	mov	r4, r0
 80010d8:	460d      	mov	r5, r1
 80010da:	1e56      	subs	r6, r2, #1
 80010dc:	2701      	movs	r7, #1
 80010de:	f816 3f01 	ldrb.w	r3, [r6, #1]!
 80010e2:	b90b      	cbnz	r3, 80010e8 <OLED_ShowString+0x14>
 80010e4:	b003      	add	sp, #12
 80010e6:	bdf0      	pop	{r4, r5, r6, r7, pc}
 80010e8:	2c7a      	cmp	r4, #122	; 0x7a
 80010ea:	bf82      	ittt	hi
 80010ec:	3510      	addhi	r5, #16
 80010ee:	b2ed      	uxtbhi	r5, r5
 80010f0:	2400      	movhi	r4, #0
 80010f2:	2d3a      	cmp	r5, #58	; 0x3a
 80010f4:	d903      	bls.n	80010fe <OLED_ShowString+0x2a>
 80010f6:	f7ff ff73 	bl	8000fe0 <OLED_Clear>
 80010fa:	2500      	movs	r5, #0
 80010fc:	462c      	mov	r4, r5
 80010fe:	9700      	str	r7, [sp, #0]
 8001100:	4620      	mov	r0, r4
 8001102:	7832      	ldrb	r2, [r6, #0]
 8001104:	230c      	movs	r3, #12
 8001106:	4629      	mov	r1, r5
 8001108:	3408      	adds	r4, #8
 800110a:	f7ff ff9b 	bl	8001044 <OLED_ShowChar>
 800110e:	b2e4      	uxtb	r4, r4
 8001110:	e7e5      	b.n	80010de <OLED_ShowString+0xa>
	...

08001114 <OLED_Init>:
 8001114:	b510      	push	{r4, lr}
 8001116:	f002 f9db 	bl	80034d0 <HAL_PWR_EnableBkUpAccess>
 800111a:	4b40      	ldr	r3, [pc, #256]	; (800121c <OLED_Init+0x108>)
 800111c:	4c40      	ldr	r4, [pc, #256]	; (8001220 <OLED_Init+0x10c>)
 800111e:	6f1a      	ldr	r2, [r3, #112]	; 0x70
 8001120:	f022 0201 	bic.w	r2, r2, #1
 8001124:	671a      	str	r2, [r3, #112]	; 0x70
 8001126:	6f1a      	ldr	r2, [r3, #112]	; 0x70
 8001128:	f022 0204 	bic.w	r2, r2, #4
 800112c:	671a      	str	r2, [r3, #112]	; 0x70
 800112e:	f002 f9dd 	bl	80034ec <HAL_PWR_DisableBkUpAccess>
 8001132:	2200      	movs	r2, #0
 8001134:	2180      	movs	r1, #128	; 0x80
 8001136:	4620      	mov	r0, r4
 8001138:	f002 f9c4 	bl	80034c4 <HAL_GPIO_WritePin>
 800113c:	2064      	movs	r0, #100	; 0x64
 800113e:	f001 fe03 	bl	8002d48 <HAL_Delay>
 8001142:	2201      	movs	r2, #1
 8001144:	4620      	mov	r0, r4
 8001146:	2180      	movs	r1, #128	; 0x80
 8001148:	f002 f9bc 	bl	80034c4 <HAL_GPIO_WritePin>
 800114c:	2100      	movs	r1, #0
 800114e:	20ae      	movs	r0, #174	; 0xae
 8001150:	f7ff fef6 	bl	8000f40 <OLED_WR_Byte>
 8001154:	2100      	movs	r1, #0
 8001156:	20d5      	movs	r0, #213	; 0xd5
 8001158:	f7ff fef2 	bl	8000f40 <OLED_WR_Byte>
 800115c:	2100      	movs	r1, #0
 800115e:	2050      	movs	r0, #80	; 0x50
 8001160:	f7ff feee 	bl	8000f40 <OLED_WR_Byte>
 8001164:	2100      	movs	r1, #0
 8001166:	20a8      	movs	r0, #168	; 0xa8
 8001168:	f7ff feea 	bl	8000f40 <OLED_WR_Byte>
 800116c:	2100      	movs	r1, #0
 800116e:	203f      	movs	r0, #63	; 0x3f
 8001170:	f7ff fee6 	bl	8000f40 <OLED_WR_Byte>
 8001174:	2100      	movs	r1, #0
 8001176:	20d3      	movs	r0, #211	; 0xd3
 8001178:	f7ff fee2 	bl	8000f40 <OLED_WR_Byte>
 800117c:	2100      	movs	r1, #0
 800117e:	4608      	mov	r0, r1
 8001180:	f7ff fede 	bl	8000f40 <OLED_WR_Byte>
 8001184:	2100      	movs	r1, #0
 8001186:	2040      	movs	r0, #64	; 0x40
 8001188:	f7ff feda 	bl	8000f40 <OLED_WR_Byte>
 800118c:	2100      	movs	r1, #0
 800118e:	208d      	movs	r0, #141	; 0x8d
 8001190:	f7ff fed6 	bl	8000f40 <OLED_WR_Byte>
 8001194:	2100      	movs	r1, #0
 8001196:	2014      	movs	r0, #20
 8001198:	f7ff fed2 	bl	8000f40 <OLED_WR_Byte>
 800119c:	2100      	movs	r1, #0
 800119e:	2020      	movs	r0, #32
 80011a0:	f7ff fece 	bl	8000f40 <OLED_WR_Byte>
 80011a4:	2100      	movs	r1, #0
 80011a6:	2002      	movs	r0, #2
 80011a8:	f7ff feca 	bl	8000f40 <OLED_WR_Byte>
 80011ac:	2100      	movs	r1, #0
 80011ae:	20a1      	movs	r0, #161	; 0xa1
 80011b0:	f7ff fec6 	bl	8000f40 <OLED_WR_Byte>
 80011b4:	2100      	movs	r1, #0
 80011b6:	20c0      	movs	r0, #192	; 0xc0
 80011b8:	f7ff fec2 	bl	8000f40 <OLED_WR_Byte>
 80011bc:	2100      	movs	r1, #0
 80011be:	20da      	movs	r0, #218	; 0xda
 80011c0:	f7ff febe 	bl	8000f40 <OLED_WR_Byte>
 80011c4:	2100      	movs	r1, #0
 80011c6:	2012      	movs	r0, #18
 80011c8:	f7ff feba 	bl	8000f40 <OLED_WR_Byte>
 80011cc:	2100      	movs	r1, #0
 80011ce:	2081      	movs	r0, #129	; 0x81
 80011d0:	f7ff feb6 	bl	8000f40 <OLED_WR_Byte>
 80011d4:	2100      	movs	r1, #0
 80011d6:	20ef      	movs	r0, #239	; 0xef
 80011d8:	f7ff feb2 	bl	8000f40 <OLED_WR_Byte>
 80011dc:	2100      	movs	r1, #0
 80011de:	20d9      	movs	r0, #217	; 0xd9
 80011e0:	f7ff feae 	bl	8000f40 <OLED_WR_Byte>
 80011e4:	2100      	movs	r1, #0
 80011e6:	20f1      	movs	r0, #241	; 0xf1
 80011e8:	f7ff feaa 	bl	8000f40 <OLED_WR_Byte>
 80011ec:	2100      	movs	r1, #0
 80011ee:	20db      	movs	r0, #219	; 0xdb
 80011f0:	f7ff fea6 	bl	8000f40 <OLED_WR_Byte>
 80011f4:	2100      	movs	r1, #0
 80011f6:	2030      	movs	r0, #48	; 0x30
 80011f8:	f7ff fea2 	bl	8000f40 <OLED_WR_Byte>
 80011fc:	2100      	movs	r1, #0
 80011fe:	20a4      	movs	r0, #164	; 0xa4
 8001200:	f7ff fe9e 	bl	8000f40 <OLED_WR_Byte>
 8001204:	2100      	movs	r1, #0
 8001206:	20a6      	movs	r0, #166	; 0xa6
 8001208:	f7ff fe9a 	bl	8000f40 <OLED_WR_Byte>
 800120c:	2100      	movs	r1, #0
 800120e:	20af      	movs	r0, #175	; 0xaf
 8001210:	f7ff fe96 	bl	8000f40 <OLED_WR_Byte>
 8001214:	e8bd 4010 	ldmia.w	sp!, {r4, lr}
 8001218:	f7ff bee2 	b.w	8000fe0 <OLED_Clear>
 800121c:	40023800 	.word	0x40023800
 8001220:	40021000 	.word	0x40021000

08001224 <I2C_Transmit>:
 8001224:	b537      	push	{r0, r1, r2, r4, r5, lr}
 8001226:	7904      	ldrb	r4, [r0, #4]
 8001228:	2c01      	cmp	r4, #1
 800122a:	d039      	beq.n	80012a0 <I2C_Transmit+0x7c>
 800122c:	2401      	movs	r4, #1
 800122e:	8084      	strh	r4, [r0, #4]
 8001230:	6804      	ldr	r4, [r0, #0]
 8001232:	6865      	ldr	r5, [r4, #4]
 8001234:	f425 6500 	bic.w	r5, r5, #2048	; 0x800
 8001238:	6065      	str	r5, [r4, #4]
 800123a:	6865      	ldr	r5, [r4, #4]
 800123c:	f425 65c0 	bic.w	r5, r5, #1536	; 0x600
 8001240:	6065      	str	r5, [r4, #4]
 8001242:	6825      	ldr	r5, [r4, #0]
 8001244:	07ed      	lsls	r5, r5, #31
 8001246:	bf5e      	ittt	pl
 8001248:	6825      	ldrpl	r5, [r4, #0]
 800124a:	f045 0501 	orrpl.w	r5, r5, #1
 800124e:	6025      	strpl	r5, [r4, #0]
 8001250:	6825      	ldr	r5, [r4, #0]
 8001252:	f425 6500 	bic.w	r5, r5, #2048	; 0x800
 8001256:	6025      	str	r5, [r4, #0]
 8001258:	69a5      	ldr	r5, [r4, #24]
 800125a:	07ad      	lsls	r5, r5, #30
 800125c:	d4fc      	bmi.n	8001258 <I2C_Transmit+0x34>
 800125e:	6825      	ldr	r5, [r4, #0]
 8001260:	f445 7580 	orr.w	r5, r5, #256	; 0x100
 8001264:	6025      	str	r5, [r4, #0]
 8001266:	6965      	ldr	r5, [r4, #20]
 8001268:	07ed      	lsls	r5, r5, #31
 800126a:	d5fc      	bpl.n	8001266 <I2C_Transmit+0x42>
 800126c:	6925      	ldr	r5, [r4, #16]
 800126e:	f025 05ff 	bic.w	r5, r5, #255	; 0xff
 8001272:	4329      	orrs	r1, r5
 8001274:	6121      	str	r1, [r4, #16]
 8001276:	6961      	ldr	r1, [r4, #20]
 8001278:	078d      	lsls	r5, r1, #30
 800127a:	d5fc      	bpl.n	8001276 <I2C_Transmit+0x52>
 800127c:	6961      	ldr	r1, [r4, #20]
 800127e:	9101      	str	r1, [sp, #4]
 8001280:	9901      	ldr	r1, [sp, #4]
 8001282:	69a1      	ldr	r1, [r4, #24]
 8001284:	9101      	str	r1, [sp, #4]
 8001286:	9901      	ldr	r1, [sp, #4]
 8001288:	4413      	add	r3, r2
 800128a:	4293      	cmp	r3, r2
 800128c:	d10a      	bne.n	80012a4 <I2C_Transmit+0x80>
 800128e:	6963      	ldr	r3, [r4, #20]
 8001290:	075b      	lsls	r3, r3, #29
 8001292:	d5fc      	bpl.n	800128e <I2C_Transmit+0x6a>
 8001294:	6823      	ldr	r3, [r4, #0]
 8001296:	f443 7300 	orr.w	r3, r3, #512	; 0x200
 800129a:	6023      	str	r3, [r4, #0]
 800129c:	2300      	movs	r3, #0
 800129e:	7103      	strb	r3, [r0, #4]
 80012a0:	b003      	add	sp, #12
 80012a2:	bd30      	pop	{r4, r5, pc}
 80012a4:	6921      	ldr	r1, [r4, #16]
 80012a6:	f812 5b01 	ldrb.w	r5, [r2], #1
 80012aa:	f021 01ff 	bic.w	r1, r1, #255	; 0xff
 80012ae:	4329      	orrs	r1, r5
 80012b0:	6121      	str	r1, [r4, #16]
 80012b2:	6961      	ldr	r1, [r4, #20]
 80012b4:	0609      	lsls	r1, r1, #24
 80012b6:	d5fc      	bpl.n	80012b2 <I2C_Transmit+0x8e>
 80012b8:	e7e7      	b.n	800128a <I2C_Transmit+0x66>

080012ba <I2C_Receive>:
 80012ba:	b573      	push	{r0, r1, r4, r5, r6, lr}
 80012bc:	7904      	ldrb	r4, [r0, #4]
 80012be:	2c01      	cmp	r4, #1
 80012c0:	d044      	beq.n	800134c <I2C_Receive+0x92>
 80012c2:	f240 1401 	movw	r4, #257	; 0x101
 80012c6:	8084      	strh	r4, [r0, #4]
 80012c8:	6804      	ldr	r4, [r0, #0]
 80012ca:	6865      	ldr	r5, [r4, #4]
 80012cc:	f425 6500 	bic.w	r5, r5, #2048	; 0x800
 80012d0:	6065      	str	r5, [r4, #4]
 80012d2:	6865      	ldr	r5, [r4, #4]
 80012d4:	f425 65c0 	bic.w	r5, r5, #1536	; 0x600
 80012d8:	6065      	str	r5, [r4, #4]
 80012da:	6825      	ldr	r5, [r4, #0]
 80012dc:	07ed      	lsls	r5, r5, #31
 80012de:	bf5e      	ittt	pl
 80012e0:	6825      	ldrpl	r5, [r4, #0]
 80012e2:	f045 0501 	orrpl.w	r5, r5, #1
 80012e6:	6025      	strpl	r5, [r4, #0]
 80012e8:	6825      	ldr	r5, [r4, #0]
 80012ea:	f425 6500 	bic.w	r5, r5, #2048	; 0x800
 80012ee:	f041 0101 	orr.w	r1, r1, #1
 80012f2:	6025      	str	r5, [r4, #0]
 80012f4:	69a5      	ldr	r5, [r4, #24]
 80012f6:	f015 0502 	ands.w	r5, r5, #2
 80012fa:	d1fb      	bne.n	80012f4 <I2C_Receive+0x3a>
 80012fc:	6826      	ldr	r6, [r4, #0]
 80012fe:	2b01      	cmp	r3, #1
 8001300:	bf0c      	ite	eq
 8001302:	f426 6680 	biceq.w	r6, r6, #1024	; 0x400
 8001306:	f446 6680 	orrne.w	r6, r6, #1024	; 0x400
 800130a:	6026      	str	r6, [r4, #0]
 800130c:	6826      	ldr	r6, [r4, #0]
 800130e:	f446 7680 	orr.w	r6, r6, #256	; 0x100
 8001312:	6026      	str	r6, [r4, #0]
 8001314:	6966      	ldr	r6, [r4, #20]
 8001316:	07f6      	lsls	r6, r6, #31
 8001318:	d5fc      	bpl.n	8001314 <I2C_Receive+0x5a>
 800131a:	6926      	ldr	r6, [r4, #16]
 800131c:	f026 06ff 	bic.w	r6, r6, #255	; 0xff
 8001320:	4331      	orrs	r1, r6
 8001322:	6121      	str	r1, [r4, #16]
 8001324:	6961      	ldr	r1, [r4, #20]
 8001326:	078e      	lsls	r6, r1, #30
 8001328:	d5fc      	bpl.n	8001324 <I2C_Receive+0x6a>
 800132a:	6961      	ldr	r1, [r4, #20]
 800132c:	9101      	str	r1, [sp, #4]
 800132e:	9901      	ldr	r1, [sp, #4]
 8001330:	69a1      	ldr	r1, [r4, #24]
 8001332:	9101      	str	r1, [sp, #4]
 8001334:	9901      	ldr	r1, [sp, #4]
 8001336:	1e5e      	subs	r6, r3, #1
 8001338:	b2ac      	uxth	r4, r5
 800133a:	429c      	cmp	r4, r3
 800133c:	6801      	ldr	r1, [r0, #0]
 800133e:	d307      	bcc.n	8001350 <I2C_Receive+0x96>
 8001340:	680b      	ldr	r3, [r1, #0]
 8001342:	f443 7300 	orr.w	r3, r3, #512	; 0x200
 8001346:	600b      	str	r3, [r1, #0]
 8001348:	2300      	movs	r3, #0
 800134a:	7103      	strb	r3, [r0, #4]
 800134c:	b002      	add	sp, #8
 800134e:	bd70      	pop	{r4, r5, r6, pc}
 8001350:	42ae      	cmp	r6, r5
 8001352:	bf02      	ittt	eq
 8001354:	680c      	ldreq	r4, [r1, #0]
 8001356:	f424 6480 	biceq.w	r4, r4, #1024	; 0x400
 800135a:	600c      	streq	r4, [r1, #0]
 800135c:	694c      	ldr	r4, [r1, #20]
 800135e:	0664      	lsls	r4, r4, #25
 8001360:	d5fc      	bpl.n	800135c <I2C_Receive+0xa2>
 8001362:	6909      	ldr	r1, [r1, #16]
 8001364:	5551      	strb	r1, [r2, r5]
 8001366:	3501      	adds	r5, #1
 8001368:	e7e6      	b.n	8001338 <I2C_Receive+0x7e>

0800136a <Gyro_Writebyte>:
 800136a:	b507      	push	{r0, r1, r2, lr}
 800136c:	2302      	movs	r3, #2
 800136e:	f88d 1004 	strb.w	r1, [sp, #4]
 8001372:	f88d 2005 	strb.w	r2, [sp, #5]
 8001376:	7a01      	ldrb	r1, [r0, #8]
 8001378:	aa01      	add	r2, sp, #4
 800137a:	f7ff ff53 	bl	8001224 <I2C_Transmit>
 800137e:	b003      	add	sp, #12
 8001380:	f85d fb04 	ldr.w	pc, [sp], #4

08001384 <Gyro_Readbyte>:
 8001384:	b513      	push	{r0, r1, r4, lr}
 8001386:	4604      	mov	r4, r0
 8001388:	f88d 1000 	strb.w	r1, [sp]
 800138c:	466a      	mov	r2, sp
 800138e:	7a01      	ldrb	r1, [r0, #8]
 8001390:	2301      	movs	r3, #1
 8001392:	f7ff ff47 	bl	8001224 <I2C_Transmit>
 8001396:	4620      	mov	r0, r4
 8001398:	7a21      	ldrb	r1, [r4, #8]
 800139a:	2301      	movs	r3, #1
 800139c:	aa01      	add	r2, sp, #4
 800139e:	f7ff ff8c 	bl	80012ba <I2C_Receive>
 80013a2:	f89d 0004 	ldrb.w	r0, [sp, #4]
 80013a6:	b002      	add	sp, #8
 80013a8:	bd10      	pop	{r4, pc}
	...

080013ac <bank_select>:
 80013ac:	b538      	push	{r3, r4, r5, lr}
 80013ae:	4d07      	ldr	r5, [pc, #28]	; (80013cc <bank_select+0x20>)
 80013b0:	782b      	ldrb	r3, [r5, #0]
 80013b2:	428b      	cmp	r3, r1
 80013b4:	460c      	mov	r4, r1
 80013b6:	d008      	beq.n	80013ca <bank_select+0x1e>
 80013b8:	2903      	cmp	r1, #3
 80013ba:	d806      	bhi.n	80013ca <bank_select+0x1e>
 80013bc:	010a      	lsls	r2, r1, #4
 80013be:	f002 02f0 	and.w	r2, r2, #240	; 0xf0
 80013c2:	217f      	movs	r1, #127	; 0x7f
 80013c4:	f7ff ffd1 	bl	800136a <Gyro_Writebyte>
 80013c8:	702c      	strb	r4, [r5, #0]
 80013ca:	bd38      	pop	{r3, r4, r5, pc}
 80013cc:	20000204 	.word	0x20000204

080013d0 <ICM_who_am_i>:
 80013d0:	b510      	push	{r4, lr}
 80013d2:	4b06      	ldr	r3, [pc, #24]	; (80013ec <ICM_who_am_i+0x1c>)
 80013d4:	781b      	ldrb	r3, [r3, #0]
 80013d6:	4604      	mov	r4, r0
 80013d8:	b113      	cbz	r3, 80013e0 <ICM_who_am_i+0x10>
 80013da:	2100      	movs	r1, #0
 80013dc:	f7ff ffe6 	bl	80013ac <bank_select>
 80013e0:	4620      	mov	r0, r4
 80013e2:	2100      	movs	r1, #0
 80013e4:	e8bd 4010 	ldmia.w	sp!, {r4, lr}
 80013e8:	f7ff bfcc 	b.w	8001384 <Gyro_Readbyte>
 80013ec:	20000204 	.word	0x20000204

080013f0 <init_ICM20948>:
 80013f0:	f641 03d0 	movw	r3, #6352	; 0x18d0
 80013f4:	b510      	push	{r4, lr}
 80013f6:	4604      	mov	r4, r0
 80013f8:	8103      	strh	r3, [r0, #8]
 80013fa:	6001      	str	r1, [r0, #0]
 80013fc:	f44f 707a 	mov.w	r0, #1000	; 0x3e8
 8001400:	f003 fbc8 	bl	8004b94 <LL_mDelay>
 8001404:	4620      	mov	r0, r4
 8001406:	2100      	movs	r1, #0
 8001408:	f7ff ffd0 	bl	80013ac <bank_select>
 800140c:	2280      	movs	r2, #128	; 0x80
 800140e:	2106      	movs	r1, #6
 8001410:	4620      	mov	r0, r4
 8001412:	f7ff ffaa 	bl	800136a <Gyro_Writebyte>
 8001416:	2064      	movs	r0, #100	; 0x64
 8001418:	f003 fbbc 	bl	8004b94 <LL_mDelay>
 800141c:	2209      	movs	r2, #9
 800141e:	4620      	mov	r0, r4
 8001420:	2106      	movs	r1, #6
 8001422:	f7ff ffa2 	bl	800136a <Gyro_Writebyte>
 8001426:	4620      	mov	r0, r4
 8001428:	2102      	movs	r1, #2
 800142a:	f7ff ffbf 	bl	80013ac <bank_select>
 800142e:	4620      	mov	r0, r4
 8001430:	2201      	movs	r2, #1
 8001432:	2100      	movs	r1, #0
 8001434:	f7ff ff99 	bl	800136a <Gyro_Writebyte>
 8001438:	4620      	mov	r0, r4
 800143a:	2203      	movs	r2, #3
 800143c:	2101      	movs	r1, #1
 800143e:	f7ff ff94 	bl	800136a <Gyro_Writebyte>
 8001442:	4620      	mov	r0, r4
 8001444:	2201      	movs	r2, #1
 8001446:	2111      	movs	r1, #17
 8001448:	f7ff ff8f 	bl	800136a <Gyro_Writebyte>
 800144c:	2203      	movs	r2, #3
 800144e:	4620      	mov	r0, r4
 8001450:	2114      	movs	r1, #20
 8001452:	f7ff ff8a 	bl	800136a <Gyro_Writebyte>
 8001456:	4620      	mov	r0, r4
 8001458:	2100      	movs	r1, #0
 800145a:	f7ff ffa7 	bl	80013ac <bank_select>
 800145e:	4620      	mov	r0, r4
 8001460:	2202      	movs	r2, #2
 8001462:	e8bd 4010 	ldmia.w	sp!, {r4, lr}
 8001466:	210f      	movs	r1, #15
 8001468:	f7ff bf7f 	b.w	800136a <Gyro_Writebyte>

0800146c <ICM_Readaccgyro>:
 800146c:	b5f0      	push	{r4, r5, r6, r7, lr}
 800146e:	2100      	movs	r1, #0
 8001470:	b085      	sub	sp, #20
 8001472:	4604      	mov	r4, r0
 8001474:	f7ff ff9a 	bl	80013ac <bank_select>
 8001478:	232d      	movs	r3, #45	; 0x2d
 800147a:	7a21      	ldrb	r1, [r4, #8]
 800147c:	f88d 3003 	strb.w	r3, [sp, #3]
 8001480:	f10d 0203 	add.w	r2, sp, #3
 8001484:	4620      	mov	r0, r4
 8001486:	2301      	movs	r3, #1
 8001488:	f7ff fecc 	bl	8001224 <I2C_Transmit>
 800148c:	7a21      	ldrb	r1, [r4, #8]
 800148e:	aa01      	add	r2, sp, #4
 8001490:	4620      	mov	r0, r4
 8001492:	230c      	movs	r3, #12
 8001494:	f7ff ff11 	bl	80012ba <I2C_Receive>
 8001498:	f89d 3006 	ldrb.w	r3, [sp, #6]
 800149c:	f89d 6007 	ldrb.w	r6, [sp, #7]
 80014a0:	f89d 5009 	ldrb.w	r5, [sp, #9]
 80014a4:	f89d 000b 	ldrb.w	r0, [sp, #11]
 80014a8:	f89d 100d 	ldrb.w	r1, [sp, #13]
 80014ac:	f89d 200e 	ldrb.w	r2, [sp, #14]
 80014b0:	f89d 7004 	ldrb.w	r7, [sp, #4]
 80014b4:	ed9f 7a24 	vldr	s14, [pc, #144]	; 8001548 <ICM_Readaccgyro+0xdc>
 80014b8:	ea46 2603 	orr.w	r6, r6, r3, lsl #8
 80014bc:	f89d 3008 	ldrb.w	r3, [sp, #8]
 80014c0:	ea45 2503 	orr.w	r5, r5, r3, lsl #8
 80014c4:	f89d 300a 	ldrb.w	r3, [sp, #10]
 80014c8:	ea40 2003 	orr.w	r0, r0, r3, lsl #8
 80014cc:	f89d 300c 	ldrb.w	r3, [sp, #12]
 80014d0:	ea41 2103 	orr.w	r1, r1, r3, lsl #8
 80014d4:	f89d 300f 	ldrb.w	r3, [sp, #15]
 80014d8:	ea43 2302 	orr.w	r3, r3, r2, lsl #8
 80014dc:	f89d 2005 	ldrb.w	r2, [sp, #5]
 80014e0:	ea42 2207 	orr.w	r2, r2, r7, lsl #8
 80014e4:	b236      	sxth	r6, r6
 80014e6:	b212      	sxth	r2, r2
 80014e8:	e9c4 2603 	strd	r2, r6, [r4, #12]
 80014ec:	f9b4 2030 	ldrsh.w	r2, [r4, #48]	; 0x30
 80014f0:	b200      	sxth	r0, r0
 80014f2:	1a82      	subs	r2, r0, r2
 80014f4:	ee07 2a90 	vmov	s15, r2
 80014f8:	eef8 7ae7 	vcvt.f32.s32	s15, s15
 80014fc:	f9b4 2032 	ldrsh.w	r2, [r4, #50]	; 0x32
 8001500:	f8a4 0044 	strh.w	r0, [r4, #68]	; 0x44
 8001504:	eec7 6a87 	vdiv.f32	s13, s15, s14
 8001508:	b209      	sxth	r1, r1
 800150a:	1a8a      	subs	r2, r1, r2
 800150c:	b21b      	sxth	r3, r3
 800150e:	f8a4 3048 	strh.w	r3, [r4, #72]	; 0x48
 8001512:	b22d      	sxth	r5, r5
 8001514:	6165      	str	r5, [r4, #20]
 8001516:	f8a4 1046 	strh.w	r1, [r4, #70]	; 0x46
 800151a:	ee07 2a90 	vmov	s15, r2
 800151e:	eef8 7ae7 	vcvt.f32.s32	s15, s15
 8001522:	edc4 6a06 	vstr	s13, [r4, #24]
 8001526:	eec7 6a87 	vdiv.f32	s13, s15, s14
 800152a:	f9b4 2034 	ldrsh.w	r2, [r4, #52]	; 0x34
 800152e:	1a9b      	subs	r3, r3, r2
 8001530:	ee07 3a90 	vmov	s15, r3
 8001534:	eef8 7ae7 	vcvt.f32.s32	s15, s15
 8001538:	edc4 6a07 	vstr	s13, [r4, #28]
 800153c:	eec7 6a87 	vdiv.f32	s13, s15, s14
 8001540:	edc4 6a08 	vstr	s13, [r4, #32]
 8001544:	b005      	add	sp, #20
 8001546:	bdf0      	pop	{r4, r5, r6, r7, pc}
 8001548:	42830000 	.word	0x42830000

0800154c <ICM_Gyrocali>:
 800154c:	e92d 4ff0 	stmdb	sp!, {r4, r5, r6, r7, r8, r9, sl, fp, lr}
 8001550:	4605      	mov	r5, r0
 8001552:	b085      	sub	sp, #20
 8001554:	2064      	movs	r0, #100	; 0x64
 8001556:	f003 fb1d 	bl	8004b94 <LL_mDelay>
 800155a:	2100      	movs	r1, #0
 800155c:	4628      	mov	r0, r5
 800155e:	f7ff ff25 	bl	80013ac <bank_select>
 8001562:	2400      	movs	r4, #0
 8001564:	f8df b0a0 	ldr.w	fp, [pc, #160]	; 8001608 <ICM_Gyrocali+0xbc>
 8001568:	46a0      	mov	r8, r4
 800156a:	4627      	mov	r7, r4
 800156c:	4626      	mov	r6, r4
 800156e:	f04f 0964 	mov.w	r9, #100	; 0x64
 8001572:	f04f 0a2d 	mov.w	sl, #45	; 0x2d
 8001576:	fbb6 f3f9 	udiv	r3, r6, r9
 800157a:	fb09 6313 	mls	r3, r9, r3, r6
 800157e:	b91b      	cbnz	r3, 8001588 <ICM_Gyrocali+0x3c>
 8001580:	4631      	mov	r1, r6
 8001582:	4658      	mov	r0, fp
 8001584:	f005 fe78 	bl	8007278 <iprintf>
 8001588:	7a29      	ldrb	r1, [r5, #8]
 800158a:	f88d a003 	strb.w	sl, [sp, #3]
 800158e:	2301      	movs	r3, #1
 8001590:	f10d 0203 	add.w	r2, sp, #3
 8001594:	4628      	mov	r0, r5
 8001596:	f7ff fe45 	bl	8001224 <I2C_Transmit>
 800159a:	230c      	movs	r3, #12
 800159c:	aa01      	add	r2, sp, #4
 800159e:	7a29      	ldrb	r1, [r5, #8]
 80015a0:	4628      	mov	r0, r5
 80015a2:	f7ff fe8a 	bl	80012ba <I2C_Receive>
 80015a6:	f89d 200a 	ldrb.w	r2, [sp, #10]
 80015aa:	f89d 300b 	ldrb.w	r3, [sp, #11]
 80015ae:	ea43 2302 	orr.w	r3, r3, r2, lsl #8
 80015b2:	fa07 f783 	sxtah	r7, r7, r3
 80015b6:	f89d 200c 	ldrb.w	r2, [sp, #12]
 80015ba:	f89d 300d 	ldrb.w	r3, [sp, #13]
 80015be:	ea43 2302 	orr.w	r3, r3, r2, lsl #8
 80015c2:	fa08 f883 	sxtah	r8, r8, r3
 80015c6:	f89d 200e 	ldrb.w	r2, [sp, #14]
 80015ca:	f89d 300f 	ldrb.w	r3, [sp, #15]
 80015ce:	3601      	adds	r6, #1
 80015d0:	ea43 2302 	orr.w	r3, r3, r2, lsl #8
 80015d4:	f5b6 7f7a 	cmp.w	r6, #1000	; 0x3e8
 80015d8:	fa04 f483 	sxtah	r4, r4, r3
 80015dc:	d1cb      	bne.n	8001576 <ICM_Gyrocali+0x2a>
 80015de:	fb97 f1f6 	sdiv	r1, r7, r6
 80015e2:	fb98 f2f6 	sdiv	r2, r8, r6
 80015e6:	b209      	sxth	r1, r1
 80015e8:	b212      	sxth	r2, r2
 80015ea:	fb94 f3f6 	sdiv	r3, r4, r6
 80015ee:	b21b      	sxth	r3, r3
 80015f0:	8629      	strh	r1, [r5, #48]	; 0x30
 80015f2:	866a      	strh	r2, [r5, #50]	; 0x32
 80015f4:	86ab      	strh	r3, [r5, #52]	; 0x34
 80015f6:	4803      	ldr	r0, [pc, #12]	; (8001604 <ICM_Gyrocali+0xb8>)
 80015f8:	f005 fe3e 	bl	8007278 <iprintf>
 80015fc:	b005      	add	sp, #20
 80015fe:	e8bd 8ff0 	ldmia.w	sp!, {r4, r5, r6, r7, r8, r9, sl, fp, pc}
 8001602:	bf00      	nop
 8001604:	0800ab84 	.word	0x0800ab84
 8001608:	0800ab8d 	.word	0x0800ab8d
 800160c:	00000000 	.word	0x00000000

08001610 <ICM_Angcali>:
 8001610:	e92d 4ff0 	stmdb	sp!, {r4, r5, r6, r7, r8, r9, sl, fp, lr}
 8001614:	ed2d 8b06 	vpush	{d8-d10}
 8001618:	2100      	movs	r1, #0
 800161a:	b089      	sub	sp, #36	; 0x24
 800161c:	4604      	mov	r4, r0
 800161e:	a76b      	add	r7, pc, #428	; (adr r7, 80017cc <ICM_Angcali+0x1bc>)
 8001620:	e9d7 6700 	ldrd	r6, r7, [r7]
 8001624:	f7ff fec2 	bl	80013ac <bank_select>
 8001628:	2500      	movs	r5, #0
 800162a:	f04f 0a64 	mov.w	sl, #100	; 0x64
 800162e:	fbb5 f3fa 	udiv	r3, r5, sl
 8001632:	fb0a 5313 	mls	r3, sl, r3, r5
 8001636:	b91b      	cbnz	r3, 8001640 <ICM_Angcali+0x30>
 8001638:	4861      	ldr	r0, [pc, #388]	; (80017c0 <ICM_Angcali+0x1b0>)
 800163a:	4629      	mov	r1, r5
 800163c:	f005 fe1c 	bl	8007278 <iprintf>
 8001640:	232d      	movs	r3, #45	; 0x2d
 8001642:	7a21      	ldrb	r1, [r4, #8]
 8001644:	f88d 3013 	strb.w	r3, [sp, #19]
 8001648:	f10d 0213 	add.w	r2, sp, #19
 800164c:	2301      	movs	r3, #1
 800164e:	4620      	mov	r0, r4
 8001650:	f7ff fde8 	bl	8001224 <I2C_Transmit>
 8001654:	7a21      	ldrb	r1, [r4, #8]
 8001656:	230c      	movs	r3, #12
 8001658:	aa05      	add	r2, sp, #20
 800165a:	4620      	mov	r0, r4
 800165c:	f7ff fe2d 	bl	80012ba <I2C_Receive>
 8001660:	f89d 3014 	ldrb.w	r3, [sp, #20]
 8001664:	f89d 2015 	ldrb.w	r2, [sp, #21]
 8001668:	f89d 1016 	ldrb.w	r1, [sp, #22]
 800166c:	f89d 0019 	ldrb.w	r0, [sp, #25]
 8001670:	ea42 2203 	orr.w	r2, r2, r3, lsl #8
 8001674:	f89d 3017 	ldrb.w	r3, [sp, #23]
 8001678:	ea43 2301 	orr.w	r3, r3, r1, lsl #8
 800167c:	b219      	sxth	r1, r3
 800167e:	ee08 1a90 	vmov	s17, r1
 8001682:	f89d 1018 	ldrb.w	r1, [sp, #24]
 8001686:	fa0f f882 	sxth.w	r8, r2
 800168a:	ea40 2001 	orr.w	r0, r0, r1, lsl #8
 800168e:	fb12 f202 	smulbb	r2, r2, r2
 8001692:	fb13 f303 	smulbb	r3, r3, r3
 8001696:	fb92 f2fa 	sdiv	r2, r2, sl
 800169a:	fb93 f3fa 	sdiv	r3, r3, sl
 800169e:	4413      	add	r3, r2
 80016a0:	fa0f fb80 	sxth.w	fp, r0
 80016a4:	fb10 f000 	smulbb	r0, r0, r0
 80016a8:	fb90 f0fa 	sdiv	r0, r0, sl
 80016ac:	4418      	add	r0, r3
 80016ae:	ee07 0a90 	vmov	s15, r0
 80016b2:	eef8 7ae7 	vcvt.f32.s32	s15, s15
 80016b6:	3501      	adds	r5, #1
 80016b8:	ee17 0a90 	vmov	r0, s15
 80016bc:	f7fe ff44 	bl	8000548 <__aeabi_f2d>
 80016c0:	ec41 0b10 	vmov	d0, r0, r1
 80016c4:	f008 f8ac 	bl	8009820 <sqrt>
 80016c8:	4b3e      	ldr	r3, [pc, #248]	; (80017c4 <ICM_Angcali+0x1b4>)
 80016ca:	2200      	movs	r2, #0
 80016cc:	ec51 0b10 	vmov	r0, r1, d0
 80016d0:	f7fe ff92 	bl	80005f8 <__aeabi_dmul>
 80016d4:	f7ff fa68 	bl	8000ba8 <__aeabi_d2f>
 80016d8:	ee07 8a90 	vmov	s15, r8
 80016dc:	ee08 0a10 	vmov	s16, r0
 80016e0:	eef8 7ae7 	vcvt.f32.s32	s15, s15
 80016e4:	eec7 7a88 	vdiv.f32	s15, s15, s16
 80016e8:	ee17 0a90 	vmov	r0, s15
 80016ec:	f7fe ff2c 	bl	8000548 <__aeabi_f2d>
 80016f0:	ec41 0b10 	vmov	d0, r0, r1
 80016f4:	f008 f85a 	bl	80097ac <asin>
 80016f8:	eef8 8ae8 	vcvt.f32.s32	s17, s17
 80016fc:	ec59 8b10 	vmov	r8, r9, d0
 8001700:	eec8 7a88 	vdiv.f32	s15, s17, s16
 8001704:	ee17 0a90 	vmov	r0, s15
 8001708:	f7fe ff1e 	bl	8000548 <__aeabi_f2d>
 800170c:	ec41 0b10 	vmov	d0, r0, r1
 8001710:	f008 f84c 	bl	80097ac <asin>
 8001714:	ee07 ba90 	vmov	s15, fp
 8001718:	eef8 7ae7 	vcvt.f32.s32	s15, s15
 800171c:	ed8d 0b00 	vstr	d0, [sp]
 8001720:	eec7 7a88 	vdiv.f32	s15, s15, s16
 8001724:	ee17 0a90 	vmov	r0, s15
 8001728:	f7fe ff0e 	bl	8000548 <__aeabi_f2d>
 800172c:	ec41 0b10 	vmov	d0, r0, r1
 8001730:	f008 f83c 	bl	80097ac <asin>
 8001734:	4632      	mov	r2, r6
 8001736:	463b      	mov	r3, r7
 8001738:	4640      	mov	r0, r8
 800173a:	4649      	mov	r1, r9
 800173c:	ed8d 0b02 	vstr	d0, [sp, #8]
 8001740:	f7fe ff5a 	bl	80005f8 <__aeabi_dmul>
 8001744:	f7ff fa30 	bl	8000ba8 <__aeabi_d2f>
 8001748:	ee07 0a90 	vmov	s15, r0
 800174c:	4632      	mov	r2, r6
 800174e:	463b      	mov	r3, r7
 8001750:	e9dd 0100 	ldrd	r0, r1, [sp]
 8001754:	ee3a aa27 	vadd.f32	s20, s20, s15
 8001758:	f7fe ff4e 	bl	80005f8 <__aeabi_dmul>
 800175c:	f7ff fa24 	bl	8000ba8 <__aeabi_d2f>
 8001760:	ee07 0a90 	vmov	s15, r0
 8001764:	4632      	mov	r2, r6
 8001766:	463b      	mov	r3, r7
 8001768:	e9dd 0102 	ldrd	r0, r1, [sp, #8]
 800176c:	ee79 9aa7 	vadd.f32	s19, s19, s15
 8001770:	f7fe ff42 	bl	80005f8 <__aeabi_dmul>
 8001774:	f7ff fa18 	bl	8000ba8 <__aeabi_d2f>
 8001778:	ee07 0a90 	vmov	s15, r0
 800177c:	f5b5 7f7a 	cmp.w	r5, #1000	; 0x3e8
 8001780:	ee39 9a27 	vadd.f32	s18, s18, s15
 8001784:	f47f af53 	bne.w	800162e <ICM_Angcali+0x1e>
 8001788:	eddf 7a0f 	vldr	s15, [pc, #60]	; 80017c8 <ICM_Angcali+0x1b8>
 800178c:	ee8a 6a27 	vdiv.f32	s12, s20, s15
 8001790:	eec9 6aa7 	vdiv.f32	s13, s19, s15
 8001794:	ee89 7a27 	vdiv.f32	s14, s18, s15
 8001798:	ed84 6a09 	vstr	s12, [r4, #36]	; 0x24
 800179c:	edc4 6a0a 	vstr	s13, [r4, #40]	; 0x28
 80017a0:	ed84 7a0b 	vstr	s14, [r4, #44]	; 0x2c
 80017a4:	ed84 6a0e 	vstr	s12, [r4, #56]	; 0x38
 80017a8:	edc4 6a0f 	vstr	s13, [r4, #60]	; 0x3c
 80017ac:	ed84 7a10 	vstr	s14, [r4, #64]	; 0x40
 80017b0:	b009      	add	sp, #36	; 0x24
 80017b2:	ecbd 8b06 	vpop	{d8-d10}
 80017b6:	e8bd 8ff0 	ldmia.w	sp!, {r4, r5, r6, r7, r8, r9, sl, fp, pc}
 80017ba:	bf00      	nop
 80017bc:	f3af 8000 	nop.w
 80017c0:	0800ab8d 	.word	0x0800ab8d
 80017c4:	40240000 	.word	0x40240000
 80017c8:	447a0000 	.word	0x447a0000
 80017cc:	1a5d2372 	.word	0x1a5d2372
 80017d0:	404ca5dc 	.word	0x404ca5dc
 80017d4:	00000000 	.word	0x00000000

080017d8 <ICM_ComplementaryFilter>:
 80017d8:	e92d 43f8 	stmdb	sp!, {r3, r4, r5, r6, r7, r8, r9, lr}
 80017dc:	4604      	mov	r4, r0
 80017de:	ed2d 8b02 	vpush	{d8}
 80017e2:	f7ff fe43 	bl	800146c <ICM_Readaccgyro>
 80017e6:	e9d4 3103 	ldrd	r3, r1, [r4, #12]
 80017ea:	6962      	ldr	r2, [r4, #20]
 80017ec:	2064      	movs	r0, #100	; 0x64
 80017ee:	435b      	muls	r3, r3
 80017f0:	4349      	muls	r1, r1
 80017f2:	fbb3 f3f0 	udiv	r3, r3, r0
 80017f6:	fbb1 f1f0 	udiv	r1, r1, r0
 80017fa:	440b      	add	r3, r1
 80017fc:	4352      	muls	r2, r2
 80017fe:	fbb2 f2f0 	udiv	r2, r2, r0
 8001802:	4413      	add	r3, r2
 8001804:	ee00 3a10 	vmov	s0, r3
 8001808:	eeb8 0ac0 	vcvt.f32.s32	s0, s0
 800180c:	f008 f86e 	bl	80098ec <sqrtf>
 8001810:	edd4 7a03 	vldr	s15, [r4, #12]
 8001814:	eeb2 8a04 	vmov.f32	s16, #36	; 0x41200000  10.0
 8001818:	ee20 8a08 	vmul.f32	s16, s0, s16
 800181c:	eeb8 0ae7 	vcvt.f32.s32	s0, s15
 8001820:	ee80 0a08 	vdiv.f32	s0, s0, s16
 8001824:	f008 f830 	bl	8009888 <asinf>
 8001828:	edd4 7a04 	vldr	s15, [r4, #16]
 800182c:	ee10 9a10 	vmov	r9, s0
 8001830:	eeb8 0ae7 	vcvt.f32.s32	s0, s15
 8001834:	ee80 0a08 	vdiv.f32	s0, s0, s16
 8001838:	f008 f826 	bl	8009888 <asinf>
 800183c:	edd4 7a05 	vldr	s15, [r4, #20]
 8001840:	ee10 8a10 	vmov	r8, s0
 8001844:	eeb8 0ae7 	vcvt.f32.s32	s0, s15
 8001848:	ee80 0a08 	vdiv.f32	s0, s0, s16
 800184c:	f008 f81c 	bl	8009888 <asinf>
 8001850:	6ba0      	ldr	r0, [r4, #56]	; 0x38
 8001852:	ee10 5a10 	vmov	r5, s0
 8001856:	f7fe fe77 	bl	8000548 <__aeabi_f2d>
 800185a:	4606      	mov	r6, r0
 800185c:	69e0      	ldr	r0, [r4, #28]
 800185e:	460f      	mov	r7, r1
 8001860:	f7fe fe72 	bl	8000548 <__aeabi_f2d>
 8001864:	a348      	add	r3, pc, #288	; (adr r3, 8001988 <ICM_ComplementaryFilter+0x1b0>)
 8001866:	e9d3 2300 	ldrd	r2, r3, [r3]
 800186a:	f7fe fec5 	bl	80005f8 <__aeabi_dmul>
 800186e:	4602      	mov	r2, r0
 8001870:	460b      	mov	r3, r1
 8001872:	4630      	mov	r0, r6
 8001874:	4639      	mov	r1, r7
 8001876:	f7fe fd07 	bl	8000288 <__aeabi_dsub>
 800187a:	a345      	add	r3, pc, #276	; (adr r3, 8001990 <ICM_ComplementaryFilter+0x1b8>)
 800187c:	e9d3 2300 	ldrd	r2, r3, [r3]
 8001880:	f7fe feba 	bl	80005f8 <__aeabi_dmul>
 8001884:	4606      	mov	r6, r0
 8001886:	4648      	mov	r0, r9
 8001888:	460f      	mov	r7, r1
 800188a:	f7fe fe5d 	bl	8000548 <__aeabi_f2d>
 800188e:	a342      	add	r3, pc, #264	; (adr r3, 8001998 <ICM_ComplementaryFilter+0x1c0>)
 8001890:	e9d3 2300 	ldrd	r2, r3, [r3]
 8001894:	f7fe feb0 	bl	80005f8 <__aeabi_dmul>
 8001898:	f7ff f986 	bl	8000ba8 <__aeabi_d2f>
 800189c:	f7fe fe54 	bl	8000548 <__aeabi_f2d>
 80018a0:	a33f      	add	r3, pc, #252	; (adr r3, 80019a0 <ICM_ComplementaryFilter+0x1c8>)
 80018a2:	e9d3 2300 	ldrd	r2, r3, [r3]
 80018a6:	f7fe fea7 	bl	80005f8 <__aeabi_dmul>
 80018aa:	4602      	mov	r2, r0
 80018ac:	460b      	mov	r3, r1
 80018ae:	4630      	mov	r0, r6
 80018b0:	4639      	mov	r1, r7
 80018b2:	f7fe fceb 	bl	800028c <__adddf3>
 80018b6:	f7ff f977 	bl	8000ba8 <__aeabi_d2f>
 80018ba:	63a0      	str	r0, [r4, #56]	; 0x38
 80018bc:	6be0      	ldr	r0, [r4, #60]	; 0x3c
 80018be:	f7fe fe43 	bl	8000548 <__aeabi_f2d>
 80018c2:	4606      	mov	r6, r0
 80018c4:	69a0      	ldr	r0, [r4, #24]
 80018c6:	460f      	mov	r7, r1
 80018c8:	f7fe fe3e 	bl	8000548 <__aeabi_f2d>
 80018cc:	a32e      	add	r3, pc, #184	; (adr r3, 8001988 <ICM_ComplementaryFilter+0x1b0>)
 80018ce:	e9d3 2300 	ldrd	r2, r3, [r3]
 80018d2:	f7fe fe91 	bl	80005f8 <__aeabi_dmul>
 80018d6:	4602      	mov	r2, r0
 80018d8:	460b      	mov	r3, r1
 80018da:	4630      	mov	r0, r6
 80018dc:	4639      	mov	r1, r7
 80018de:	f7fe fcd3 	bl	8000288 <__aeabi_dsub>
 80018e2:	a32b      	add	r3, pc, #172	; (adr r3, 8001990 <ICM_ComplementaryFilter+0x1b8>)
 80018e4:	e9d3 2300 	ldrd	r2, r3, [r3]
 80018e8:	f7fe fe86 	bl	80005f8 <__aeabi_dmul>
 80018ec:	4606      	mov	r6, r0
 80018ee:	4640      	mov	r0, r8
 80018f0:	460f      	mov	r7, r1
 80018f2:	f7fe fe29 	bl	8000548 <__aeabi_f2d>
 80018f6:	a328      	add	r3, pc, #160	; (adr r3, 8001998 <ICM_ComplementaryFilter+0x1c0>)
 80018f8:	e9d3 2300 	ldrd	r2, r3, [r3]
 80018fc:	f7fe fe7c 	bl	80005f8 <__aeabi_dmul>
 8001900:	f7ff f952 	bl	8000ba8 <__aeabi_d2f>
 8001904:	f7fe fe20 	bl	8000548 <__aeabi_f2d>
 8001908:	a325      	add	r3, pc, #148	; (adr r3, 80019a0 <ICM_ComplementaryFilter+0x1c8>)
 800190a:	e9d3 2300 	ldrd	r2, r3, [r3]
 800190e:	f7fe fe73 	bl	80005f8 <__aeabi_dmul>
 8001912:	4602      	mov	r2, r0
 8001914:	460b      	mov	r3, r1
 8001916:	4630      	mov	r0, r6
 8001918:	4639      	mov	r1, r7
 800191a:	f7fe fcb5 	bl	8000288 <__aeabi_dsub>
 800191e:	f7ff f943 	bl	8000ba8 <__aeabi_d2f>
 8001922:	63e0      	str	r0, [r4, #60]	; 0x3c
 8001924:	6c20      	ldr	r0, [r4, #64]	; 0x40
 8001926:	f7fe fe0f 	bl	8000548 <__aeabi_f2d>
 800192a:	4606      	mov	r6, r0
 800192c:	6a20      	ldr	r0, [r4, #32]
 800192e:	460f      	mov	r7, r1
 8001930:	f7fe fe0a 	bl	8000548 <__aeabi_f2d>
 8001934:	a314      	add	r3, pc, #80	; (adr r3, 8001988 <ICM_ComplementaryFilter+0x1b0>)
 8001936:	e9d3 2300 	ldrd	r2, r3, [r3]
 800193a:	f7fe fe5d 	bl	80005f8 <__aeabi_dmul>
 800193e:	4602      	mov	r2, r0
 8001940:	460b      	mov	r3, r1
 8001942:	4630      	mov	r0, r6
 8001944:	4639      	mov	r1, r7
 8001946:	f7fe fc9f 	bl	8000288 <__aeabi_dsub>
 800194a:	4606      	mov	r6, r0
 800194c:	4628      	mov	r0, r5
 800194e:	460f      	mov	r7, r1
 8001950:	f7fe fdfa 	bl	8000548 <__aeabi_f2d>
 8001954:	a310      	add	r3, pc, #64	; (adr r3, 8001998 <ICM_ComplementaryFilter+0x1c0>)
 8001956:	e9d3 2300 	ldrd	r2, r3, [r3]
 800195a:	f7fe fe4d 	bl	80005f8 <__aeabi_dmul>
 800195e:	f7ff f923 	bl	8000ba8 <__aeabi_d2f>
 8001962:	f7fe fdf1 	bl	8000548 <__aeabi_f2d>
 8001966:	2200      	movs	r2, #0
 8001968:	2300      	movs	r3, #0
 800196a:	f7fe fe45 	bl	80005f8 <__aeabi_dmul>
 800196e:	4602      	mov	r2, r0
 8001970:	460b      	mov	r3, r1
 8001972:	4630      	mov	r0, r6
 8001974:	4639      	mov	r1, r7
 8001976:	f7fe fc87 	bl	8000288 <__aeabi_dsub>
 800197a:	f7ff f915 	bl	8000ba8 <__aeabi_d2f>
 800197e:	ecbd 8b02 	vpop	{d8}
 8001982:	6420      	str	r0, [r4, #64]	; 0x40
 8001984:	e8bd 83f8 	ldmia.w	sp!, {r3, r4, r5, r6, r7, r8, r9, pc}
 8001988:	d2f1a9fc 	.word	0xd2f1a9fc
 800198c:	3f60624d 	.word	0x3f60624d
 8001990:	91d14e3c 	.word	0x91d14e3c
 8001994:	3feffe5c 	.word	0x3feffe5c
 8001998:	1a5d2372 	.word	0x1a5d2372
 800199c:	404ca5dc 	.word	0x404ca5dc
 80019a0:	eb1c4000 	.word	0xeb1c4000
 80019a4:	3f2a36e2 	.word	0x3f2a36e2

080019a8 <Mag_Writebyte>:
 80019a8:	b507      	push	{r0, r1, r2, lr}
 80019aa:	2302      	movs	r3, #2
 80019ac:	f88d 1004 	strb.w	r1, [sp, #4]
 80019b0:	f88d 2005 	strb.w	r2, [sp, #5]
 80019b4:	7a41      	ldrb	r1, [r0, #9]
 80019b6:	aa01      	add	r2, sp, #4
 80019b8:	f7ff fc34 	bl	8001224 <I2C_Transmit>
 80019bc:	b003      	add	sp, #12
 80019be:	f85d fb04 	ldr.w	pc, [sp], #4

080019c2 <Mag_Readbyte>:
 80019c2:	b513      	push	{r0, r1, r4, lr}
 80019c4:	4604      	mov	r4, r0
 80019c6:	f88d 1000 	strb.w	r1, [sp]
 80019ca:	466a      	mov	r2, sp
 80019cc:	7a41      	ldrb	r1, [r0, #9]
 80019ce:	2301      	movs	r3, #1
 80019d0:	f7ff fc28 	bl	8001224 <I2C_Transmit>
 80019d4:	4620      	mov	r0, r4
 80019d6:	7a61      	ldrb	r1, [r4, #9]
 80019d8:	2301      	movs	r3, #1
 80019da:	aa01      	add	r2, sp, #4
 80019dc:	f7ff fc6d 	bl	80012ba <I2C_Receive>
 80019e0:	f89d 0004 	ldrb.w	r0, [sp, #4]
 80019e4:	b002      	add	sp, #8
 80019e6:	bd10      	pop	{r4, pc}

080019e8 <AK_Company_ID>:
 80019e8:	2100      	movs	r1, #0
 80019ea:	f7ff bfea 	b.w	80019c2 <Mag_Readbyte>

080019ee <AK_Device_ID>:
 80019ee:	2101      	movs	r1, #1
 80019f0:	f7ff bfe7 	b.w	80019c2 <Mag_Readbyte>

080019f4 <init_AK09916>:
 80019f4:	b510      	push	{r4, lr}
 80019f6:	4604      	mov	r4, r0
 80019f8:	f44f 7096 	mov.w	r0, #300	; 0x12c
 80019fc:	f003 f8ca 	bl	8004b94 <LL_mDelay>
 8001a00:	4620      	mov	r0, r4
 8001a02:	2208      	movs	r2, #8
 8001a04:	e8bd 4010 	ldmia.w	sp!, {r4, lr}
 8001a08:	2131      	movs	r1, #49	; 0x31
 8001a0a:	f7ff bfcd 	b.w	80019a8 <Mag_Writebyte>

08001a0e <AK_ReadData>:
 8001a0e:	b530      	push	{r4, r5, lr}
 8001a10:	2110      	movs	r1, #16
 8001a12:	b085      	sub	sp, #20
 8001a14:	4604      	mov	r4, r0
 8001a16:	4615      	mov	r5, r2
 8001a18:	f7ff ffd3 	bl	80019c2 <Mag_Readbyte>
 8001a1c:	07c3      	lsls	r3, r0, #31
 8001a1e:	d528      	bpl.n	8001a72 <AK_ReadData+0x64>
 8001a20:	2311      	movs	r3, #17
 8001a22:	7a21      	ldrb	r1, [r4, #8]
 8001a24:	f88d 3007 	strb.w	r3, [sp, #7]
 8001a28:	f10d 0207 	add.w	r2, sp, #7
 8001a2c:	2301      	movs	r3, #1
 8001a2e:	4620      	mov	r0, r4
 8001a30:	f7ff fbf8 	bl	8001224 <I2C_Transmit>
 8001a34:	7a61      	ldrb	r1, [r4, #9]
 8001a36:	2306      	movs	r3, #6
 8001a38:	aa02      	add	r2, sp, #8
 8001a3a:	4620      	mov	r0, r4
 8001a3c:	f7ff fc3d 	bl	80012ba <I2C_Receive>
 8001a40:	f89d 300b 	ldrb.w	r3, [sp, #11]
 8001a44:	f89d 200a 	ldrb.w	r2, [sp, #10]
 8001a48:	f89d 100d 	ldrb.w	r1, [sp, #13]
 8001a4c:	f89d 0009 	ldrb.w	r0, [sp, #9]
 8001a50:	ea42 2203 	orr.w	r2, r2, r3, lsl #8
 8001a54:	f89d 300c 	ldrb.w	r3, [sp, #12]
 8001a58:	806a      	strh	r2, [r5, #2]
 8001a5a:	ea43 2301 	orr.w	r3, r3, r1, lsl #8
 8001a5e:	f89d 1008 	ldrb.w	r1, [sp, #8]
 8001a62:	80ab      	strh	r3, [r5, #4]
 8001a64:	ea41 2100 	orr.w	r1, r1, r0, lsl #8
 8001a68:	8029      	strh	r1, [r5, #0]
 8001a6a:	4620      	mov	r0, r4
 8001a6c:	2118      	movs	r1, #24
 8001a6e:	f7ff ffa8 	bl	80019c2 <Mag_Readbyte>
 8001a72:	b005      	add	sp, #20
 8001a74:	bd30      	pop	{r4, r5, pc}
	...

08001a78 <Encoder>:
 8001a78:	e92d 41f0 	stmdb	sp!, {r4, r5, r6, r7, r8, lr}
 8001a7c:	4d23      	ldr	r5, [pc, #140]	; (8001b0c <Encoder+0x94>)
 8001a7e:	4f24      	ldr	r7, [pc, #144]	; (8001b10 <Encoder+0x98>)
 8001a80:	b086      	sub	sp, #24
 8001a82:	213c      	movs	r1, #60	; 0x3c
 8001a84:	4628      	mov	r0, r5
 8001a86:	f002 f864 	bl	8003b52 <HAL_TIM_Encoder_Start>
 8001a8a:	682b      	ldr	r3, [r5, #0]
 8001a8c:	6a5c      	ldr	r4, [r3, #36]	; 0x24
 8001a8e:	f001 f955 	bl	8002d3c <HAL_GetTick>
 8001a92:	f107 080b 	add.w	r8, r7, #11
 8001a96:	4606      	mov	r6, r0
 8001a98:	f001 f950 	bl	8002d3c <HAL_GetTick>
 8001a9c:	1b80      	subs	r0, r0, r6
 8001a9e:	f5b0 7f7a 	cmp.w	r0, #1000	; 0x3e8
 8001aa2:	d922      	bls.n	8001aea <Encoder+0x72>
 8001aa4:	682b      	ldr	r3, [r5, #0]
 8001aa6:	6a5a      	ldr	r2, [r3, #36]	; 0x24
 8001aa8:	681b      	ldr	r3, [r3, #0]
 8001aaa:	06db      	lsls	r3, r3, #27
 8001aac:	d526      	bpl.n	8001afc <Encoder+0x84>
 8001aae:	4294      	cmp	r4, r2
 8001ab0:	dd1f      	ble.n	8001af2 <Encoder+0x7a>
 8001ab2:	1aa2      	subs	r2, r4, r2
 8001ab4:	4639      	mov	r1, r7
 8001ab6:	a801      	add	r0, sp, #4
 8001ab8:	f005 fc6c 	bl	8007394 <siprintf>
 8001abc:	aa01      	add	r2, sp, #4
 8001abe:	2114      	movs	r1, #20
 8001ac0:	200a      	movs	r0, #10
 8001ac2:	f7ff fb07 	bl	80010d4 <OLED_ShowString>
 8001ac6:	682b      	ldr	r3, [r5, #0]
 8001ac8:	681a      	ldr	r2, [r3, #0]
 8001aca:	4641      	mov	r1, r8
 8001acc:	f3c2 1200 	ubfx	r2, r2, #4, #1
 8001ad0:	a801      	add	r0, sp, #4
 8001ad2:	f005 fc5f 	bl	8007394 <siprintf>
 8001ad6:	aa01      	add	r2, sp, #4
 8001ad8:	211e      	movs	r1, #30
 8001ada:	200a      	movs	r0, #10
 8001adc:	f7ff fafa 	bl	80010d4 <OLED_ShowString>
 8001ae0:	682b      	ldr	r3, [r5, #0]
 8001ae2:	6a5c      	ldr	r4, [r3, #36]	; 0x24
 8001ae4:	f001 f92a 	bl	8002d3c <HAL_GetTick>
 8001ae8:	4606      	mov	r6, r0
 8001aea:	2001      	movs	r0, #1
 8001aec:	f003 f8db 	bl	8004ca6 <osDelay>
 8001af0:	e7d2      	b.n	8001a98 <Encoder+0x20>
 8001af2:	f5c2 427f 	rsb	r2, r2, #65280	; 0xff00
 8001af6:	32ff      	adds	r2, #255	; 0xff
 8001af8:	4422      	add	r2, r4
 8001afa:	e7db      	b.n	8001ab4 <Encoder+0x3c>
 8001afc:	4294      	cmp	r4, r2
 8001afe:	da01      	bge.n	8001b04 <Encoder+0x8c>
 8001b00:	1b12      	subs	r2, r2, r4
 8001b02:	e7d7      	b.n	8001ab4 <Encoder+0x3c>
 8001b04:	f5c4 447f 	rsb	r4, r4, #65280	; 0xff00
 8001b08:	34ff      	adds	r4, #255	; 0xff
 8001b0a:	e7f5      	b.n	8001af8 <Encoder+0x80>
 8001b0c:	200050b0 	.word	0x200050b0
 8001b10:	0800a0f8 	.word	0x0800a0f8

08001b14 <Display>:
 8001b14:	b57f      	push	{r0, r1, r2, r3, r4, r5, r6, lr}
 8001b16:	4b19      	ldr	r3, [pc, #100]	; (8001b7c <Display+0x68>)
 8001b18:	aa01      	add	r2, sp, #4
 8001b1a:	f103 0608 	add.w	r6, r3, #8
 8001b1e:	4614      	mov	r4, r2
 8001b20:	6818      	ldr	r0, [r3, #0]
 8001b22:	6859      	ldr	r1, [r3, #4]
 8001b24:	4615      	mov	r5, r2
 8001b26:	c503      	stmia	r5!, {r0, r1}
 8001b28:	3308      	adds	r3, #8
 8001b2a:	42b3      	cmp	r3, r6
 8001b2c:	462a      	mov	r2, r5
 8001b2e:	d1f7      	bne.n	8001b20 <Display+0xc>
 8001b30:	6818      	ldr	r0, [r3, #0]
 8001b32:	889b      	ldrh	r3, [r3, #4]
 8001b34:	80ab      	strh	r3, [r5, #4]
 8001b36:	6028      	str	r0, [r5, #0]
 8001b38:	2300      	movs	r3, #0
 8001b3a:	4e11      	ldr	r6, [pc, #68]	; (8001b80 <Display+0x6c>)
 8001b3c:	4d11      	ldr	r5, [pc, #68]	; (8001b84 <Display+0x70>)
 8001b3e:	f8cd 3012 	str.w	r3, [sp, #18]
 8001b42:	f8ad 3016 	strh.w	r3, [sp, #22]
 8001b46:	4631      	mov	r1, r6
 8001b48:	4620      	mov	r0, r4
 8001b4a:	f005 fc43 	bl	80073d4 <strcpy>
 8001b4e:	210a      	movs	r1, #10
 8001b50:	4622      	mov	r2, r4
 8001b52:	4608      	mov	r0, r1
 8001b54:	f7ff fabe 	bl	80010d4 <OLED_ShowString>
 8001b58:	682a      	ldr	r2, [r5, #0]
 8001b5a:	490b      	ldr	r1, [pc, #44]	; (8001b88 <Display+0x74>)
 8001b5c:	4620      	mov	r0, r4
 8001b5e:	f005 fc19 	bl	8007394 <siprintf>
 8001b62:	4622      	mov	r2, r4
 8001b64:	2128      	movs	r1, #40	; 0x28
 8001b66:	200a      	movs	r0, #10
 8001b68:	f7ff fab4 	bl	80010d4 <OLED_ShowString>
 8001b6c:	f7ff fa16 	bl	8000f9c <OLED_Refresh_Gram>
 8001b70:	f44f 707a 	mov.w	r0, #1000	; 0x3e8
 8001b74:	f003 f897 	bl	8004ca6 <osDelay>
 8001b78:	e7e5      	b.n	8001b46 <Display+0x32>
 8001b7a:	bf00      	nop
 8001b7c:	0800a10c 	.word	0x0800a10c
 8001b80:	2000509c 	.word	0x2000509c
 8001b84:	20000000 	.word	0x20000000
 8001b88:	0800ab92 	.word	0x0800ab92

08001b8c <Gyroscope>:
 8001b8c:	b57f      	push	{r0, r1, r2, r3, r4, r5, r6, lr}
 8001b8e:	f44f 707a 	mov.w	r0, #1000	; 0x3e8
 8001b92:	f002 ffff 	bl	8004b94 <LL_mDelay>
 8001b96:	4826      	ldr	r0, [pc, #152]	; (8001c30 <Gyroscope+0xa4>)
 8001b98:	4e26      	ldr	r6, [pc, #152]	; (8001c34 <Gyroscope+0xa8>)
 8001b9a:	4c27      	ldr	r4, [pc, #156]	; (8001c38 <Gyroscope+0xac>)
 8001b9c:	4d27      	ldr	r5, [pc, #156]	; (8001c3c <Gyroscope+0xb0>)
 8001b9e:	f005 fbf1 	bl	8007384 <puts>
 8001ba2:	4927      	ldr	r1, [pc, #156]	; (8001c40 <Gyroscope+0xb4>)
 8001ba4:	4823      	ldr	r0, [pc, #140]	; (8001c34 <Gyroscope+0xa8>)
 8001ba6:	f7ff fc23 	bl	80013f0 <init_ICM20948>
 8001baa:	4822      	ldr	r0, [pc, #136]	; (8001c34 <Gyroscope+0xa8>)
 8001bac:	f7ff fc10 	bl	80013d0 <ICM_who_am_i>
 8001bb0:	4601      	mov	r1, r0
 8001bb2:	4824      	ldr	r0, [pc, #144]	; (8001c44 <Gyroscope+0xb8>)
 8001bb4:	f005 fb60 	bl	8007278 <iprintf>
 8001bb8:	481e      	ldr	r0, [pc, #120]	; (8001c34 <Gyroscope+0xa8>)
 8001bba:	f7ff ff1b 	bl	80019f4 <init_AK09916>
 8001bbe:	481d      	ldr	r0, [pc, #116]	; (8001c34 <Gyroscope+0xa8>)
 8001bc0:	f7ff ff12 	bl	80019e8 <AK_Company_ID>
 8001bc4:	4601      	mov	r1, r0
 8001bc6:	481f      	ldr	r0, [pc, #124]	; (8001c44 <Gyroscope+0xb8>)
 8001bc8:	f005 fb56 	bl	8007278 <iprintf>
 8001bcc:	4819      	ldr	r0, [pc, #100]	; (8001c34 <Gyroscope+0xa8>)
 8001bce:	f7ff ff0e 	bl	80019ee <AK_Device_ID>
 8001bd2:	4601      	mov	r1, r0
 8001bd4:	481b      	ldr	r0, [pc, #108]	; (8001c44 <Gyroscope+0xb8>)
 8001bd6:	f005 fb4f 	bl	8007278 <iprintf>
 8001bda:	4816      	ldr	r0, [pc, #88]	; (8001c34 <Gyroscope+0xa8>)
 8001bdc:	f7ff fcb6 	bl	800154c <ICM_Gyrocali>
 8001be0:	4814      	ldr	r0, [pc, #80]	; (8001c34 <Gyroscope+0xa8>)
 8001be2:	f7ff fd15 	bl	8001610 <ICM_Angcali>
 8001be6:	2352      	movs	r3, #82	; 0x52
 8001be8:	f88d 3003 	strb.w	r3, [sp, #3]
 8001bec:	4816      	ldr	r0, [pc, #88]	; (8001c48 <Gyroscope+0xbc>)
 8001bee:	f64f 73ff 	movw	r3, #65535	; 0xffff
 8001bf2:	2201      	movs	r2, #1
 8001bf4:	f10d 0103 	add.w	r1, sp, #3
 8001bf8:	f002 fc1e 	bl	8004438 <HAL_UART_Transmit>
 8001bfc:	2064      	movs	r0, #100	; 0x64
 8001bfe:	f003 f852 	bl	8004ca6 <osDelay>
 8001c02:	480c      	ldr	r0, [pc, #48]	; (8001c34 <Gyroscope+0xa8>)
 8001c04:	f7ff fde8 	bl	80017d8 <ICM_ComplementaryFilter>
 8001c08:	aa01      	add	r2, sp, #4
 8001c0a:	a903      	add	r1, sp, #12
 8001c0c:	4809      	ldr	r0, [pc, #36]	; (8001c34 <Gyroscope+0xa8>)
 8001c0e:	f7ff fefe 	bl	8001a0e <AK_ReadData>
 8001c12:	6820      	ldr	r0, [r4, #0]
 8001c14:	f04f 31ff 	mov.w	r1, #4294967295
 8001c18:	f003 fb9a 	bl	8005350 <xQueueSemaphoreTake>
 8001c1c:	6c33      	ldr	r3, [r6, #64]	; 0x40
 8001c1e:	602b      	str	r3, [r5, #0]
 8001c20:	2300      	movs	r3, #0
 8001c22:	6820      	ldr	r0, [r4, #0]
 8001c24:	461a      	mov	r2, r3
 8001c26:	4619      	mov	r1, r3
 8001c28:	f003 f9c0 	bl	8004fac <xQueueGenericSend>
 8001c2c:	e7e6      	b.n	8001bfc <Gyroscope+0x70>
 8001c2e:	bf00      	nop
 8001c30:	0800ab98 	.word	0x0800ab98
 8001c34:	20004f28 	.word	0x20004f28
 8001c38:	20000208 	.word	0x20000208
 8001c3c:	2000020c 	.word	0x2000020c
 8001c40:	40005400 	.word	0x40005400
 8001c44:	0800ab9f 	.word	0x0800ab9f
 8001c48:	20004fc0 	.word	0x20004fc0

08001c4c <SystemClock_Config>:
 8001c4c:	b500      	push	{lr}
 8001c4e:	b095      	sub	sp, #84	; 0x54
 8001c50:	222c      	movs	r2, #44	; 0x2c
 8001c52:	2100      	movs	r1, #0
 8001c54:	a809      	add	r0, sp, #36	; 0x24
 8001c56:	f004 fe9d 	bl	8006994 <memset>
 8001c5a:	2214      	movs	r2, #20
 8001c5c:	2100      	movs	r1, #0
 8001c5e:	a803      	add	r0, sp, #12
 8001c60:	f004 fe98 	bl	8006994 <memset>
 8001c64:	2300      	movs	r3, #0
 8001c66:	4a19      	ldr	r2, [pc, #100]	; (8001ccc <SystemClock_Config+0x80>)
 8001c68:	9301      	str	r3, [sp, #4]
 8001c6a:	6c11      	ldr	r1, [r2, #64]	; 0x40
 8001c6c:	f041 5180 	orr.w	r1, r1, #268435456	; 0x10000000
 8001c70:	6411      	str	r1, [r2, #64]	; 0x40
 8001c72:	6c12      	ldr	r2, [r2, #64]	; 0x40
 8001c74:	f002 5280 	and.w	r2, r2, #268435456	; 0x10000000
 8001c78:	9201      	str	r2, [sp, #4]
 8001c7a:	9a01      	ldr	r2, [sp, #4]
 8001c7c:	4a14      	ldr	r2, [pc, #80]	; (8001cd0 <SystemClock_Config+0x84>)
 8001c7e:	9302      	str	r3, [sp, #8]
 8001c80:	6811      	ldr	r1, [r2, #0]
 8001c82:	f441 4180 	orr.w	r1, r1, #16384	; 0x4000
 8001c86:	6011      	str	r1, [r2, #0]
 8001c88:	6812      	ldr	r2, [r2, #0]
 8001c8a:	930e      	str	r3, [sp, #56]	; 0x38
 8001c8c:	f402 4280 	and.w	r2, r2, #16384	; 0x4000
 8001c90:	9202      	str	r2, [sp, #8]
 8001c92:	9a02      	ldr	r2, [sp, #8]
 8001c94:	2202      	movs	r2, #2
 8001c96:	9208      	str	r2, [sp, #32]
 8001c98:	2001      	movs	r0, #1
 8001c9a:	2210      	movs	r2, #16
 8001c9c:	e9cd 020b 	strd	r0, r2, [sp, #44]	; 0x2c
 8001ca0:	a808      	add	r0, sp, #32
 8001ca2:	f001 fc31 	bl	8003508 <HAL_RCC_OscConfig>
 8001ca6:	4601      	mov	r1, r0
 8001ca8:	b108      	cbz	r0, 8001cae <SystemClock_Config+0x62>
 8001caa:	b672      	cpsid	i
 8001cac:	e7fe      	b.n	8001cac <SystemClock_Config+0x60>
 8001cae:	230f      	movs	r3, #15
 8001cb0:	e9cd 3003 	strd	r3, r0, [sp, #12]
 8001cb4:	e9cd 0005 	strd	r0, r0, [sp, #20]
 8001cb8:	9007      	str	r0, [sp, #28]
 8001cba:	a803      	add	r0, sp, #12
 8001cbc:	f001 fdfe 	bl	80038bc <HAL_RCC_ClockConfig>
 8001cc0:	b108      	cbz	r0, 8001cc6 <SystemClock_Config+0x7a>
 8001cc2:	b672      	cpsid	i
 8001cc4:	e7fe      	b.n	8001cc4 <SystemClock_Config+0x78>
 8001cc6:	b015      	add	sp, #84	; 0x54
 8001cc8:	f85d fb04 	ldr.w	pc, [sp], #4
 8001ccc:	40023800 	.word	0x40023800
 8001cd0:	40007000 	.word	0x40007000

08001cd4 <main>:
 8001cd4:	b580      	push	{r7, lr}
 8001cd6:	b09a      	sub	sp, #104	; 0x68
 8001cd8:	f001 f80a 	bl	8002cf0 <HAL_Init>
 8001cdc:	f7ff ffb6 	bl	8001c4c <SystemClock_Config>
 8001ce0:	2214      	movs	r2, #20
 8001ce2:	2100      	movs	r1, #0
 8001ce4:	a811      	add	r0, sp, #68	; 0x44
 8001ce6:	f004 fe55 	bl	8006994 <memset>
 8001cea:	2400      	movs	r4, #0
 8001cec:	4ba2      	ldr	r3, [pc, #648]	; (8001f78 <main+0x2a4>)
 8001cee:	9400      	str	r4, [sp, #0]
 8001cf0:	6b1a      	ldr	r2, [r3, #48]	; 0x30
 8001cf2:	48a2      	ldr	r0, [pc, #648]	; (8001f7c <main+0x2a8>)
 8001cf4:	4da2      	ldr	r5, [pc, #648]	; (8001f80 <main+0x2ac>)
 8001cf6:	f042 0210 	orr.w	r2, r2, #16
 8001cfa:	631a      	str	r2, [r3, #48]	; 0x30
 8001cfc:	6b1a      	ldr	r2, [r3, #48]	; 0x30
 8001cfe:	f002 0210 	and.w	r2, r2, #16
 8001d02:	9200      	str	r2, [sp, #0]
 8001d04:	9a00      	ldr	r2, [sp, #0]
 8001d06:	9401      	str	r4, [sp, #4]
 8001d08:	6b1a      	ldr	r2, [r3, #48]	; 0x30
 8001d0a:	f042 0204 	orr.w	r2, r2, #4
 8001d0e:	631a      	str	r2, [r3, #48]	; 0x30
 8001d10:	6b1a      	ldr	r2, [r3, #48]	; 0x30
 8001d12:	f002 0204 	and.w	r2, r2, #4
 8001d16:	9201      	str	r2, [sp, #4]
 8001d18:	9a01      	ldr	r2, [sp, #4]
 8001d1a:	9402      	str	r4, [sp, #8]
 8001d1c:	6b1a      	ldr	r2, [r3, #48]	; 0x30
 8001d1e:	f042 0201 	orr.w	r2, r2, #1
 8001d22:	631a      	str	r2, [r3, #48]	; 0x30
 8001d24:	6b1a      	ldr	r2, [r3, #48]	; 0x30
 8001d26:	f002 0201 	and.w	r2, r2, #1
 8001d2a:	9202      	str	r2, [sp, #8]
 8001d2c:	9a02      	ldr	r2, [sp, #8]
 8001d2e:	9403      	str	r4, [sp, #12]
 8001d30:	6b1a      	ldr	r2, [r3, #48]	; 0x30
 8001d32:	f042 0202 	orr.w	r2, r2, #2
 8001d36:	631a      	str	r2, [r3, #48]	; 0x30
 8001d38:	6b1b      	ldr	r3, [r3, #48]	; 0x30
 8001d3a:	f003 0302 	and.w	r3, r3, #2
 8001d3e:	9303      	str	r3, [sp, #12]
 8001d40:	4622      	mov	r2, r4
 8001d42:	f44f 71f1 	mov.w	r1, #482	; 0x1e2
 8001d46:	9b03      	ldr	r3, [sp, #12]
 8001d48:	f001 fbbc 	bl	80034c4 <HAL_GPIO_WritePin>
 8001d4c:	4622      	mov	r2, r4
 8001d4e:	488d      	ldr	r0, [pc, #564]	; (8001f84 <main+0x2b0>)
 8001d50:	213c      	movs	r1, #60	; 0x3c
 8001d52:	f001 fbb7 	bl	80034c4 <HAL_GPIO_WritePin>
 8001d56:	2601      	movs	r6, #1
 8001d58:	f44f 73f1 	mov.w	r3, #482	; 0x1e2
 8001d5c:	4887      	ldr	r0, [pc, #540]	; (8001f7c <main+0x2a8>)
 8001d5e:	a911      	add	r1, sp, #68	; 0x44
 8001d60:	e9cd 3611 	strd	r3, r6, [sp, #68]	; 0x44
 8001d64:	e9cd 4413 	strd	r4, r4, [sp, #76]	; 0x4c
 8001d68:	f001 fad2 	bl	8003310 <HAL_GPIO_Init>
 8001d6c:	233c      	movs	r3, #60	; 0x3c
 8001d6e:	e9cd 3611 	strd	r3, r6, [sp, #68]	; 0x44
 8001d72:	4884      	ldr	r0, [pc, #528]	; (8001f84 <main+0x2b0>)
 8001d74:	9413      	str	r4, [sp, #76]	; 0x4c
 8001d76:	2302      	movs	r3, #2
 8001d78:	a911      	add	r1, sp, #68	; 0x44
 8001d7a:	9314      	str	r3, [sp, #80]	; 0x50
 8001d7c:	f001 fac8 	bl	8003310 <HAL_GPIO_Init>
 8001d80:	2210      	movs	r2, #16
 8001d82:	4621      	mov	r1, r4
 8001d84:	a806      	add	r0, sp, #24
 8001d86:	f004 fe05 	bl	8006994 <memset>
 8001d8a:	221c      	movs	r2, #28
 8001d8c:	4621      	mov	r1, r4
 8001d8e:	a80a      	add	r0, sp, #40	; 0x28
 8001d90:	e9cd 4404 	strd	r4, r4, [sp, #16]
 8001d94:	f004 fdfe 	bl	8006994 <memset>
 8001d98:	2220      	movs	r2, #32
 8001d9a:	4621      	mov	r1, r4
 8001d9c:	a811      	add	r0, sp, #68	; 0x44
 8001d9e:	f004 fdf9 	bl	8006994 <memset>
 8001da2:	4b79      	ldr	r3, [pc, #484]	; (8001f88 <main+0x2b4>)
 8001da4:	60ac      	str	r4, [r5, #8]
 8001da6:	e9c5 3400 	strd	r3, r4, [r5]
 8001daa:	4628      	mov	r0, r5
 8001dac:	f641 431f 	movw	r3, #7199	; 0x1c1f
 8001db0:	e9c5 3403 	strd	r3, r4, [r5, #12]
 8001db4:	e9c5 4405 	strd	r4, r4, [r5, #20]
 8001db8:	f001 ff8c 	bl	8003cd4 <HAL_TIM_Base_Init>
 8001dbc:	b108      	cbz	r0, 8001dc2 <main+0xee>
 8001dbe:	b672      	cpsid	i
 8001dc0:	e7fe      	b.n	8001dc0 <main+0xec>
 8001dc2:	f44f 5380 	mov.w	r3, #4096	; 0x1000
 8001dc6:	a906      	add	r1, sp, #24
 8001dc8:	4628      	mov	r0, r5
 8001dca:	9306      	str	r3, [sp, #24]
 8001dcc:	f002 f8ce 	bl	8003f6c <HAL_TIM_ConfigClockSource>
 8001dd0:	b108      	cbz	r0, 8001dd6 <main+0x102>
 8001dd2:	b672      	cpsid	i
 8001dd4:	e7fe      	b.n	8001dd4 <main+0x100>
 8001dd6:	4628      	mov	r0, r5
 8001dd8:	f001 ffa8 	bl	8003d2c <HAL_TIM_PWM_Init>
 8001ddc:	b108      	cbz	r0, 8001de2 <main+0x10e>
 8001dde:	b672      	cpsid	i
 8001de0:	e7fe      	b.n	8001de0 <main+0x10c>
 8001de2:	e9cd 0004 	strd	r0, r0, [sp, #16]
 8001de6:	a904      	add	r1, sp, #16
 8001de8:	4628      	mov	r0, r5
 8001dea:	f002 f9d1 	bl	8004190 <HAL_TIMEx_MasterConfigSynchronization>
 8001dee:	4602      	mov	r2, r0
 8001df0:	b108      	cbz	r0, 8001df6 <main+0x122>
 8001df2:	b672      	cpsid	i
 8001df4:	e7fe      	b.n	8001df4 <main+0x120>
 8001df6:	2360      	movs	r3, #96	; 0x60
 8001df8:	e9cd 300a 	strd	r3, r0, [sp, #40]	; 0x28
 8001dfc:	e9cd 000c 	strd	r0, r0, [sp, #48]	; 0x30
 8001e00:	e9cd 000e 	strd	r0, r0, [sp, #56]	; 0x38
 8001e04:	9010      	str	r0, [sp, #64]	; 0x40
 8001e06:	a90a      	add	r1, sp, #40	; 0x28
 8001e08:	4628      	mov	r0, r5
 8001e0a:	f002 f847 	bl	8003e9c <HAL_TIM_PWM_ConfigChannel>
 8001e0e:	b108      	cbz	r0, 8001e14 <main+0x140>
 8001e10:	b672      	cpsid	i
 8001e12:	e7fe      	b.n	8001e12 <main+0x13e>
 8001e14:	2204      	movs	r2, #4
 8001e16:	a90a      	add	r1, sp, #40	; 0x28
 8001e18:	4628      	mov	r0, r5
 8001e1a:	f002 f83f 	bl	8003e9c <HAL_TIM_PWM_ConfigChannel>
 8001e1e:	b108      	cbz	r0, 8001e24 <main+0x150>
 8001e20:	b672      	cpsid	i
 8001e22:	e7fe      	b.n	8001e22 <main+0x14e>
 8001e24:	e9cd 0011 	strd	r0, r0, [sp, #68]	; 0x44
 8001e28:	e9cd 0013 	strd	r0, r0, [sp, #76]	; 0x4c
 8001e2c:	9015      	str	r0, [sp, #84]	; 0x54
 8001e2e:	f44f 5300 	mov.w	r3, #8192	; 0x2000
 8001e32:	9018      	str	r0, [sp, #96]	; 0x60
 8001e34:	a911      	add	r1, sp, #68	; 0x44
 8001e36:	4628      	mov	r0, r5
 8001e38:	9316      	str	r3, [sp, #88]	; 0x58
 8001e3a:	f002 f9e7 	bl	800420c <HAL_TIMEx_ConfigBreakDeadTime>
 8001e3e:	b108      	cbz	r0, 8001e44 <main+0x170>
 8001e40:	b672      	cpsid	i
 8001e42:	e7fe      	b.n	8001e42 <main+0x16e>
 8001e44:	4c51      	ldr	r4, [pc, #324]	; (8001f8c <main+0x2b8>)
 8001e46:	9019      	str	r0, [sp, #100]	; 0x64
 8001e48:	f04f 4380 	mov.w	r3, #1073741824	; 0x40000000
 8001e4c:	e9c4 3000 	strd	r3, r0, [r4]
 8001e50:	f04f 33ff 	mov.w	r3, #4294967295
 8001e54:	e9cd 000a 	strd	r0, r0, [sp, #40]	; 0x28
 8001e58:	e9c4 3003 	strd	r3, r0, [r4, #12]
 8001e5c:	e9cd 6011 	strd	r6, r0, [sp, #68]	; 0x44
 8001e60:	e9cd 6013 	strd	r6, r0, [sp, #76]	; 0x4c
 8001e64:	e9cd 0015 	strd	r0, r0, [sp, #84]	; 0x54
 8001e68:	e9cd 6017 	strd	r6, r0, [sp, #92]	; 0x5c
 8001e6c:	60a0      	str	r0, [r4, #8]
 8001e6e:	61a0      	str	r0, [r4, #24]
 8001e70:	a911      	add	r1, sp, #68	; 0x44
 8001e72:	4620      	mov	r0, r4
 8001e74:	f001 ff86 	bl	8003d84 <HAL_TIM_Encoder_Init>
 8001e78:	b108      	cbz	r0, 8001e7e <main+0x1aa>
 8001e7a:	b672      	cpsid	i
 8001e7c:	e7fe      	b.n	8001e7c <main+0x1a8>
 8001e7e:	e9cd 000a 	strd	r0, r0, [sp, #40]	; 0x28
 8001e82:	a90a      	add	r1, sp, #40	; 0x28
 8001e84:	4620      	mov	r0, r4
 8001e86:	f002 f983 	bl	8004190 <HAL_TIMEx_MasterConfigSynchronization>
 8001e8a:	4604      	mov	r4, r0
 8001e8c:	b108      	cbz	r0, 8001e92 <main+0x1be>
 8001e8e:	b672      	cpsid	i
 8001e90:	e7fe      	b.n	8001e90 <main+0x1bc>
 8001e92:	4601      	mov	r1, r0
 8001e94:	2210      	movs	r2, #16
 8001e96:	a806      	add	r0, sp, #24
 8001e98:	f004 fd7c 	bl	8006994 <memset>
 8001e9c:	221c      	movs	r2, #28
 8001e9e:	4621      	mov	r1, r4
 8001ea0:	a80a      	add	r0, sp, #40	; 0x28
 8001ea2:	e9cd 4404 	strd	r4, r4, [sp, #16]
 8001ea6:	f004 fd75 	bl	8006994 <memset>
 8001eaa:	2220      	movs	r2, #32
 8001eac:	4621      	mov	r1, r4
 8001eae:	a811      	add	r0, sp, #68	; 0x44
 8001eb0:	f004 fd70 	bl	8006994 <memset>
 8001eb4:	4d36      	ldr	r5, [pc, #216]	; (8001f90 <main+0x2bc>)
 8001eb6:	4837      	ldr	r0, [pc, #220]	; (8001f94 <main+0x2c0>)
 8001eb8:	23a0      	movs	r3, #160	; 0xa0
 8001eba:	e9c0 5300 	strd	r5, r3, [r0]
 8001ebe:	f44f 737a 	mov.w	r3, #1000	; 0x3e8
 8001ec2:	e9c0 3403 	strd	r3, r4, [r0, #12]
 8001ec6:	2380      	movs	r3, #128	; 0x80
 8001ec8:	6084      	str	r4, [r0, #8]
 8001eca:	6144      	str	r4, [r0, #20]
 8001ecc:	6183      	str	r3, [r0, #24]
 8001ece:	f001 ff01 	bl	8003cd4 <HAL_TIM_Base_Init>
 8001ed2:	b108      	cbz	r0, 8001ed8 <main+0x204>
 8001ed4:	b672      	cpsid	i
 8001ed6:	e7fe      	b.n	8001ed6 <main+0x202>
 8001ed8:	f44f 5380 	mov.w	r3, #4096	; 0x1000
 8001edc:	482d      	ldr	r0, [pc, #180]	; (8001f94 <main+0x2c0>)
 8001ede:	9306      	str	r3, [sp, #24]
 8001ee0:	a906      	add	r1, sp, #24
 8001ee2:	f002 f843 	bl	8003f6c <HAL_TIM_ConfigClockSource>
 8001ee6:	b108      	cbz	r0, 8001eec <main+0x218>
 8001ee8:	b672      	cpsid	i
 8001eea:	e7fe      	b.n	8001eea <main+0x216>
 8001eec:	4829      	ldr	r0, [pc, #164]	; (8001f94 <main+0x2c0>)
 8001eee:	f001 ff1d 	bl	8003d2c <HAL_TIM_PWM_Init>
 8001ef2:	b108      	cbz	r0, 8001ef8 <main+0x224>
 8001ef4:	b672      	cpsid	i
 8001ef6:	e7fe      	b.n	8001ef6 <main+0x222>
 8001ef8:	e9cd 0004 	strd	r0, r0, [sp, #16]
 8001efc:	a904      	add	r1, sp, #16
 8001efe:	4825      	ldr	r0, [pc, #148]	; (8001f94 <main+0x2c0>)
 8001f00:	f002 f946 	bl	8004190 <HAL_TIMEx_MasterConfigSynchronization>
 8001f04:	b108      	cbz	r0, 8001f0a <main+0x236>
 8001f06:	b672      	cpsid	i
 8001f08:	e7fe      	b.n	8001f08 <main+0x234>
 8001f0a:	2360      	movs	r3, #96	; 0x60
 8001f0c:	e9cd 300a 	strd	r3, r0, [sp, #40]	; 0x28
 8001f10:	e9cd 000e 	strd	r0, r0, [sp, #56]	; 0x38
 8001f14:	900c      	str	r0, [sp, #48]	; 0x30
 8001f16:	9010      	str	r0, [sp, #64]	; 0x40
 8001f18:	220c      	movs	r2, #12
 8001f1a:	481e      	ldr	r0, [pc, #120]	; (8001f94 <main+0x2c0>)
 8001f1c:	a90a      	add	r1, sp, #40	; 0x28
 8001f1e:	f001 ffbd 	bl	8003e9c <HAL_TIM_PWM_ConfigChannel>
 8001f22:	b108      	cbz	r0, 8001f28 <main+0x254>
 8001f24:	b672      	cpsid	i
 8001f26:	e7fe      	b.n	8001f26 <main+0x252>
 8001f28:	e9cd 0011 	strd	r0, r0, [sp, #68]	; 0x44
 8001f2c:	e9cd 0013 	strd	r0, r0, [sp, #76]	; 0x4c
 8001f30:	9015      	str	r0, [sp, #84]	; 0x54
 8001f32:	f44f 5300 	mov.w	r3, #8192	; 0x2000
 8001f36:	9018      	str	r0, [sp, #96]	; 0x60
 8001f38:	a911      	add	r1, sp, #68	; 0x44
 8001f3a:	4816      	ldr	r0, [pc, #88]	; (8001f94 <main+0x2c0>)
 8001f3c:	9316      	str	r3, [sp, #88]	; 0x58
 8001f3e:	f002 f965 	bl	800420c <HAL_TIMEx_ConfigBreakDeadTime>
 8001f42:	4604      	mov	r4, r0
 8001f44:	b108      	cbz	r0, 8001f4a <main+0x276>
 8001f46:	b672      	cpsid	i
 8001f48:	e7fe      	b.n	8001f48 <main+0x274>
 8001f4a:	4812      	ldr	r0, [pc, #72]	; (8001f94 <main+0x2c0>)
 8001f4c:	4e12      	ldr	r6, [pc, #72]	; (8001f98 <main+0x2c4>)
 8001f4e:	f000 fd9b 	bl	8002a88 <HAL_TIM_MspPostInit>
 8001f52:	4812      	ldr	r0, [pc, #72]	; (8001f9c <main+0x2c8>)
 8001f54:	6134      	str	r4, [r6, #16]
 8001f56:	f44f 33e1 	mov.w	r3, #115200	; 0x1c200
 8001f5a:	e9c6 0300 	strd	r0, r3, [r6]
 8001f5e:	230c      	movs	r3, #12
 8001f60:	4630      	mov	r0, r6
 8001f62:	e9c6 4402 	strd	r4, r4, [r6, #8]
 8001f66:	e9c6 3405 	strd	r3, r4, [r6, #20]
 8001f6a:	61f4      	str	r4, [r6, #28]
 8001f6c:	f002 fa36 	bl	80043dc <HAL_UART_Init>
 8001f70:	4604      	mov	r4, r0
 8001f72:	b1a8      	cbz	r0, 8001fa0 <main+0x2cc>
 8001f74:	b672      	cpsid	i
 8001f76:	e7fe      	b.n	8001f76 <main+0x2a2>
 8001f78:	40023800 	.word	0x40023800
 8001f7c:	40021000 	.word	0x40021000
 8001f80:	20004f78 	.word	0x20004f78
 8001f84:	40020000 	.word	0x40020000
 8001f88:	40010400 	.word	0x40010400
 8001f8c:	200050b0 	.word	0x200050b0
 8001f90:	40010000 	.word	0x40010000
 8001f94:	20005050 	.word	0x20005050
 8001f98:	20004fc0 	.word	0x20004fc0
 8001f9c:	40004800 	.word	0x40004800
 8001fa0:	4d4e      	ldr	r5, [pc, #312]	; (80020dc <main+0x408>)
 8001fa2:	4601      	mov	r1, r0
 8001fa4:	2218      	movs	r2, #24
 8001fa6:	a80a      	add	r0, sp, #40	; 0x28
 8001fa8:	f004 fcf4 	bl	8006994 <memset>
 8001fac:	6b2b      	ldr	r3, [r5, #48]	; 0x30
 8001fae:	484c      	ldr	r0, [pc, #304]	; (80020e0 <main+0x40c>)
 8001fb0:	f043 0302 	orr.w	r3, r3, #2
 8001fb4:	632b      	str	r3, [r5, #48]	; 0x30
 8001fb6:	6b2b      	ldr	r3, [r5, #48]	; 0x30
 8001fb8:	9415      	str	r4, [sp, #84]	; 0x54
 8001fba:	f003 0302 	and.w	r3, r3, #2
 8001fbe:	9306      	str	r3, [sp, #24]
 8001fc0:	f44f 7240 	mov.w	r2, #768	; 0x300
 8001fc4:	9b06      	ldr	r3, [sp, #24]
 8001fc6:	2302      	movs	r3, #2
 8001fc8:	e9cd 2311 	strd	r2, r3, [sp, #68]	; 0x44
 8001fcc:	2701      	movs	r7, #1
 8001fce:	2303      	movs	r3, #3
 8001fd0:	e9cd 3713 	strd	r3, r7, [sp, #76]	; 0x4c
 8001fd4:	a911      	add	r1, sp, #68	; 0x44
 8001fd6:	2304      	movs	r3, #4
 8001fd8:	9316      	str	r3, [sp, #88]	; 0x58
 8001fda:	f002 fc62 	bl	80048a2 <LL_GPIO_Init>
 8001fde:	6c2b      	ldr	r3, [r5, #64]	; 0x40
 8001fe0:	f443 1300 	orr.w	r3, r3, #2097152	; 0x200000
 8001fe4:	642b      	str	r3, [r5, #64]	; 0x40
 8001fe6:	6c2b      	ldr	r3, [r5, #64]	; 0x40
 8001fe8:	f5a5 35f2 	sub.w	r5, r5, #123904	; 0x1e400
 8001fec:	f403 1300 	and.w	r3, r3, #2097152	; 0x200000
 8001ff0:	9304      	str	r3, [sp, #16]
 8001ff2:	9b04      	ldr	r3, [sp, #16]
 8001ff4:	68eb      	ldr	r3, [r5, #12]
 8001ff6:	f023 0301 	bic.w	r3, r3, #1
 8001ffa:	60eb      	str	r3, [r5, #12]
 8001ffc:	682b      	ldr	r3, [r5, #0]
 8001ffe:	f023 0340 	bic.w	r3, r3, #64	; 0x40
 8002002:	602b      	str	r3, [r5, #0]
 8002004:	682b      	ldr	r3, [r5, #0]
 8002006:	f023 0380 	bic.w	r3, r3, #128	; 0x80
 800200a:	602b      	str	r3, [r5, #0]
 800200c:	4b35      	ldr	r3, [pc, #212]	; (80020e4 <main+0x410>)
 800200e:	940a      	str	r4, [sp, #40]	; 0x28
 8002010:	e9cd 340b 	strd	r3, r4, [sp, #44]	; 0x2c
 8002014:	f44f 6180 	mov.w	r1, #1024	; 0x400
 8002018:	f44f 4380 	mov.w	r3, #16384	; 0x4000
 800201c:	e9cd 130e 	strd	r1, r3, [sp, #56]	; 0x38
 8002020:	4628      	mov	r0, r5
 8002022:	a90a      	add	r1, sp, #40	; 0x28
 8002024:	940d      	str	r4, [sp, #52]	; 0x34
 8002026:	f002 fcdb 	bl	80049e0 <LL_I2C_Init>
 800202a:	68eb      	ldr	r3, [r5, #12]
 800202c:	f023 03fe 	bic.w	r3, r3, #254	; 0xfe
 8002030:	60eb      	str	r3, [r5, #12]
 8002032:	2210      	movs	r2, #16
 8002034:	4621      	mov	r1, r4
 8002036:	a811      	add	r0, sp, #68	; 0x44
 8002038:	f004 fcac 	bl	8006994 <memset>
 800203c:	4d2a      	ldr	r5, [pc, #168]	; (80020e8 <main+0x414>)
 800203e:	4b2b      	ldr	r3, [pc, #172]	; (80020ec <main+0x418>)
 8002040:	60ac      	str	r4, [r5, #8]
 8002042:	e9c5 3400 	strd	r3, r4, [r5]
 8002046:	4628      	mov	r0, r5
 8002048:	4b29      	ldr	r3, [pc, #164]	; (80020f0 <main+0x41c>)
 800204a:	612c      	str	r4, [r5, #16]
 800204c:	762c      	strb	r4, [r5, #24]
 800204e:	f885 4020 	strb.w	r4, [r5, #32]
 8002052:	62ec      	str	r4, [r5, #44]	; 0x2c
 8002054:	62ab      	str	r3, [r5, #40]	; 0x28
 8002056:	60ec      	str	r4, [r5, #12]
 8002058:	61ef      	str	r7, [r5, #28]
 800205a:	f885 4030 	strb.w	r4, [r5, #48]	; 0x30
 800205e:	616f      	str	r7, [r5, #20]
 8002060:	f000 fe86 	bl	8002d70 <HAL_ADC_Init>
 8002064:	b108      	cbz	r0, 800206a <main+0x396>
 8002066:	b672      	cpsid	i
 8002068:	e7fe      	b.n	8002068 <main+0x394>
 800206a:	230b      	movs	r3, #11
 800206c:	9013      	str	r0, [sp, #76]	; 0x4c
 800206e:	a911      	add	r1, sp, #68	; 0x44
 8002070:	4628      	mov	r0, r5
 8002072:	e9cd 3711 	strd	r3, r7, [sp, #68]	; 0x44
 8002076:	f000 fffb 	bl	8003070 <HAL_ADC_ConfigChannel>
 800207a:	4604      	mov	r4, r0
 800207c:	b108      	cbz	r0, 8002082 <main+0x3ae>
 800207e:	b672      	cpsid	i
 8002080:	e7fe      	b.n	8002080 <main+0x3ac>
 8002082:	f7ff f847 	bl	8001114 <OLED_Init>
 8002086:	491b      	ldr	r1, [pc, #108]	; (80020f4 <main+0x420>)
 8002088:	220a      	movs	r2, #10
 800208a:	4630      	mov	r0, r6
 800208c:	f002 fbf1 	bl	8004872 <HAL_UART_Receive_IT>
 8002090:	f002 fd94 	bl	8004bbc <osKernelInitialize>
 8002094:	4638      	mov	r0, r7
 8002096:	f003 f83b 	bl	8005110 <xQueueCreateMutex>
 800209a:	4b17      	ldr	r3, [pc, #92]	; (80020f8 <main+0x424>)
 800209c:	4a17      	ldr	r2, [pc, #92]	; (80020fc <main+0x428>)
 800209e:	6018      	str	r0, [r3, #0]
 80020a0:	4621      	mov	r1, r4
 80020a2:	4817      	ldr	r0, [pc, #92]	; (8002100 <main+0x42c>)
 80020a4:	f002 fdb6 	bl	8004c14 <osThreadNew>
 80020a8:	4b16      	ldr	r3, [pc, #88]	; (8002104 <main+0x430>)
 80020aa:	4a17      	ldr	r2, [pc, #92]	; (8002108 <main+0x434>)
 80020ac:	6018      	str	r0, [r3, #0]
 80020ae:	4621      	mov	r1, r4
 80020b0:	4816      	ldr	r0, [pc, #88]	; (800210c <main+0x438>)
 80020b2:	f002 fdaf 	bl	8004c14 <osThreadNew>
 80020b6:	4b16      	ldr	r3, [pc, #88]	; (8002110 <main+0x43c>)
 80020b8:	4a16      	ldr	r2, [pc, #88]	; (8002114 <main+0x440>)
 80020ba:	6018      	str	r0, [r3, #0]
 80020bc:	4621      	mov	r1, r4
 80020be:	4816      	ldr	r0, [pc, #88]	; (8002118 <main+0x444>)
 80020c0:	f002 fda8 	bl	8004c14 <osThreadNew>
 80020c4:	4b15      	ldr	r3, [pc, #84]	; (800211c <main+0x448>)
 80020c6:	4a16      	ldr	r2, [pc, #88]	; (8002120 <main+0x44c>)
 80020c8:	6018      	str	r0, [r3, #0]
 80020ca:	4621      	mov	r1, r4
 80020cc:	4815      	ldr	r0, [pc, #84]	; (8002124 <main+0x450>)
 80020ce:	f002 fda1 	bl	8004c14 <osThreadNew>
 80020d2:	4b15      	ldr	r3, [pc, #84]	; (8002128 <main+0x454>)
 80020d4:	6018      	str	r0, [r3, #0]
 80020d6:	f002 fd83 	bl	8004be0 <osKernelStart>
 80020da:	e7fe      	b.n	80020da <main+0x406>
 80020dc:	40023800 	.word	0x40023800
 80020e0:	40020400 	.word	0x40020400
 80020e4:	000186a0 	.word	0x000186a0
 80020e8:	20005004 	.word	0x20005004
 80020ec:	40012000 	.word	0x40012000
 80020f0:	0f000001 	.word	0x0f000001
 80020f4:	2000509c 	.word	0x2000509c
 80020f8:	20000208 	.word	0x20000208
 80020fc:	0800abcc 	.word	0x0800abcc
 8002100:	0800270d 	.word	0x0800270d
 8002104:	20004f74 	.word	0x20004f74
 8002108:	0800ac14 	.word	0x0800ac14
 800210c:	08001a79 	.word	0x08001a79
 8002110:	20005098 	.word	0x20005098
 8002114:	0800abf0 	.word	0x0800abf0
 8002118:	08001b15 	.word	0x08001b15
 800211c:	200050f8 	.word	0x200050f8
 8002120:	0800ac38 	.word	0x0800ac38
 8002124:	08001b8d 	.word	0x08001b8d
 8002128:	2000504c 	.word	0x2000504c

0800212c <HAL_UART_RxCpltCallback>:
 800212c:	4770      	bx	lr
	...

08002130 <IR>:
 8002130:	b084      	sub	sp, #16
 8002132:	b510      	push	{r4, lr}
 8002134:	ac02      	add	r4, sp, #8
 8002136:	e884 000f 	stmia.w	r4, {r0, r1, r2, r3}
 800213a:	2201      	movs	r2, #1
 800213c:	f44f 6180 	mov.w	r1, #1024	; 0x400
 8002140:	482e      	ldr	r0, [pc, #184]	; (80021fc <IR+0xcc>)
 8002142:	f001 f9bf 	bl	80034c4 <HAL_GPIO_WritePin>
 8002146:	a802      	add	r0, sp, #8
 8002148:	f000 feb8 	bl	8002ebc <HAL_ADC_Start>
 800214c:	f04f 31ff 	mov.w	r1, #4294967295
 8002150:	a802      	add	r0, sp, #8
 8002152:	f000 ff37 	bl	8002fc4 <HAL_ADC_PollForConversion>
 8002156:	a802      	add	r0, sp, #8
 8002158:	f000 ff87 	bl	800306a <HAL_ADC_GetValue>
 800215c:	2200      	movs	r2, #0
 800215e:	4604      	mov	r4, r0
 8002160:	f44f 6180 	mov.w	r1, #1024	; 0x400
 8002164:	4825      	ldr	r0, [pc, #148]	; (80021fc <IR+0xcc>)
 8002166:	f001 f9ad 	bl	80034c4 <HAL_GPIO_WritePin>
 800216a:	b2a0      	uxth	r0, r4
 800216c:	f6a0 13c5 	subw	r3, r0, #2501	; 0x9c5
 8002170:	f5b3 7fe6 	cmp.w	r3, #460	; 0x1cc
 8002174:	d330      	bcc.n	80021d8 <IR+0xa8>
 8002176:	f2a0 7236 	subw	r2, r0, #1846	; 0x736
 800217a:	f240 238e 	movw	r3, #654	; 0x28e
 800217e:	429a      	cmp	r2, r3
 8002180:	d92c      	bls.n	80021dc <IR+0xac>
 8002182:	f2a0 53b5 	subw	r3, r0, #1461	; 0x5b5
 8002186:	f5b3 7fc0 	cmp.w	r3, #384	; 0x180
 800218a:	d929      	bls.n	80021e0 <IR+0xb0>
 800218c:	f2a0 43fc 	subw	r3, r0, #1276	; 0x4fc
 8002190:	2bb8      	cmp	r3, #184	; 0xb8
 8002192:	d927      	bls.n	80021e4 <IR+0xb4>
 8002194:	f5a0 638e 	sub.w	r3, r0, #1136	; 0x470
 8002198:	2b8b      	cmp	r3, #139	; 0x8b
 800219a:	d925      	bls.n	80021e8 <IR+0xb8>
 800219c:	f46f 737f 	mvn.w	r3, #1020	; 0x3fc
 80021a0:	18c3      	adds	r3, r0, r3
 80021a2:	2b72      	cmp	r3, #114	; 0x72
 80021a4:	d922      	bls.n	80021ec <IR+0xbc>
 80021a6:	f2a0 339e 	subw	r3, r0, #926	; 0x39e
 80021aa:	2b5e      	cmp	r3, #94	; 0x5e
 80021ac:	d920      	bls.n	80021f0 <IR+0xc0>
 80021ae:	f5a0 734c 	sub.w	r3, r0, #816	; 0x330
 80021b2:	2b6d      	cmp	r3, #109	; 0x6d
 80021b4:	d91e      	bls.n	80021f4 <IR+0xc4>
 80021b6:	f2a0 23c7 	subw	r3, r0, #711	; 0x2c7
 80021ba:	2b68      	cmp	r3, #104	; 0x68
 80021bc:	d91c      	bls.n	80021f8 <IR+0xc8>
 80021be:	f240 23c6 	movw	r3, #710	; 0x2c6
 80021c2:	4298      	cmp	r0, r3
 80021c4:	f04f 30ff 	mov.w	r0, #4294967295
 80021c8:	bf98      	it	ls
 80021ca:	2000      	movls	r0, #0
 80021cc:	e8bd 4010 	ldmia.w	sp!, {r4, lr}
 80021d0:	4b0b      	ldr	r3, [pc, #44]	; (8002200 <IR+0xd0>)
 80021d2:	b004      	add	sp, #16
 80021d4:	6018      	str	r0, [r3, #0]
 80021d6:	4770      	bx	lr
 80021d8:	2001      	movs	r0, #1
 80021da:	e7f7      	b.n	80021cc <IR+0x9c>
 80021dc:	2002      	movs	r0, #2
 80021de:	e7f5      	b.n	80021cc <IR+0x9c>
 80021e0:	2003      	movs	r0, #3
 80021e2:	e7f3      	b.n	80021cc <IR+0x9c>
 80021e4:	2004      	movs	r0, #4
 80021e6:	e7f1      	b.n	80021cc <IR+0x9c>
 80021e8:	2005      	movs	r0, #5
 80021ea:	e7ef      	b.n	80021cc <IR+0x9c>
 80021ec:	2006      	movs	r0, #6
 80021ee:	e7ed      	b.n	80021cc <IR+0x9c>
 80021f0:	2007      	movs	r0, #7
 80021f2:	e7eb      	b.n	80021cc <IR+0x9c>
 80021f4:	2008      	movs	r0, #8
 80021f6:	e7e9      	b.n	80021cc <IR+0x9c>
 80021f8:	2009      	movs	r0, #9
 80021fa:	e7e7      	b.n	80021cc <IR+0x9c>
 80021fc:	40020000 	.word	0x40020000
 8002200:	20000000 	.word	0x20000000

08002204 <Obstacle_Straight_Move>:
 8002204:	e92d 43f0 	stmdb	sp!, {r4, r5, r6, r7, r8, r9, lr}
 8002208:	2100      	movs	r1, #0
 800220a:	b08f      	sub	sp, #60	; 0x3c
 800220c:	4e2f      	ldr	r6, [pc, #188]	; (80022cc <Obstacle_Straight_Move+0xc8>)
 800220e:	4830      	ldr	r0, [pc, #192]	; (80022d0 <Obstacle_Straight_Move+0xcc>)
 8002210:	f8df 90c4 	ldr.w	r9, [pc, #196]	; 80022d8 <Obstacle_Straight_Move+0xd4>
 8002214:	4f2f      	ldr	r7, [pc, #188]	; (80022d4 <Obstacle_Straight_Move+0xd0>)
 8002216:	f001 ffb9 	bl	800418c <HAL_TIM_PWM_Start>
 800221a:	2104      	movs	r1, #4
 800221c:	482c      	ldr	r0, [pc, #176]	; (80022d0 <Obstacle_Straight_Move+0xcc>)
 800221e:	f001 ffb5 	bl	800418c <HAL_TIM_PWM_Start>
 8002222:	f106 0510 	add.w	r5, r6, #16
 8002226:	210c      	movs	r1, #12
 8002228:	482b      	ldr	r0, [pc, #172]	; (80022d8 <Obstacle_Straight_Move+0xd4>)
 800222a:	f001 ffaf 	bl	800418c <HAL_TIM_PWM_Start>
 800222e:	cd0f      	ldmia	r5!, {r0, r1, r2, r3}
 8002230:	466c      	mov	r4, sp
 8002232:	c40f      	stmia	r4!, {r0, r1, r2, r3}
 8002234:	cd0f      	ldmia	r5!, {r0, r1, r2, r3}
 8002236:	c40f      	stmia	r4!, {r0, r1, r2, r3}
 8002238:	cd0f      	ldmia	r5!, {r0, r1, r2, r3}
 800223a:	c40f      	stmia	r4!, {r0, r1, r2, r3}
 800223c:	e895 0003 	ldmia.w	r5, {r0, r1}
 8002240:	e884 0003 	stmia.w	r4, {r0, r1}
 8002244:	e896 000f 	ldmia.w	r6, {r0, r1, r2, r3}
 8002248:	f7ff ff72 	bl	8002130 <IR>
 800224c:	f8d9 3000 	ldr.w	r3, [r9]
 8002250:	f8df 807c 	ldr.w	r8, [pc, #124]	; 80022d0 <Obstacle_Straight_Move+0xcc>
 8002254:	4d21      	ldr	r5, [pc, #132]	; (80022dc <Obstacle_Straight_Move+0xd8>)
 8002256:	2294      	movs	r2, #148	; 0x94
 8002258:	641a      	str	r2, [r3, #64]	; 0x40
 800225a:	2104      	movs	r1, #4
 800225c:	2201      	movs	r2, #1
 800225e:	4638      	mov	r0, r7
 8002260:	f001 f930 	bl	80034c4 <HAL_GPIO_WritePin>
 8002264:	2200      	movs	r2, #0
 8002266:	2108      	movs	r1, #8
 8002268:	4638      	mov	r0, r7
 800226a:	f001 f92b 	bl	80034c4 <HAL_GPIO_WritePin>
 800226e:	2201      	movs	r2, #1
 8002270:	2120      	movs	r1, #32
 8002272:	4638      	mov	r0, r7
 8002274:	f001 f926 	bl	80034c4 <HAL_GPIO_WritePin>
 8002278:	2200      	movs	r2, #0
 800227a:	2110      	movs	r1, #16
 800227c:	4638      	mov	r0, r7
 800227e:	f001 f921 	bl	80034c4 <HAL_GPIO_WritePin>
 8002282:	200a      	movs	r0, #10
 8002284:	f002 fd0f 	bl	8004ca6 <osDelay>
 8002288:	f8d8 3000 	ldr.w	r3, [r8]
 800228c:	f44f 6296 	mov.w	r2, #1200	; 0x4b0
 8002290:	635a      	str	r2, [r3, #52]	; 0x34
 8002292:	639a      	str	r2, [r3, #56]	; 0x38
 8002294:	cd0f      	ldmia	r5!, {r0, r1, r2, r3}
 8002296:	466c      	mov	r4, sp
 8002298:	c40f      	stmia	r4!, {r0, r1, r2, r3}
 800229a:	cd0f      	ldmia	r5!, {r0, r1, r2, r3}
 800229c:	c40f      	stmia	r4!, {r0, r1, r2, r3}
 800229e:	cd0f      	ldmia	r5!, {r0, r1, r2, r3}
 80022a0:	c40f      	stmia	r4!, {r0, r1, r2, r3}
 80022a2:	e895 0003 	ldmia.w	r5, {r0, r1}
 80022a6:	e884 0003 	stmia.w	r4, {r0, r1}
 80022aa:	e896 000f 	ldmia.w	r6, {r0, r1, r2, r3}
 80022ae:	f7ff ff3f 	bl	8002130 <IR>
 80022b2:	f240 5313 	movw	r3, #1299	; 0x513
 80022b6:	4298      	cmp	r0, r3
 80022b8:	dcc8      	bgt.n	800224c <Obstacle_Straight_Move+0x48>
 80022ba:	f8d8 3000 	ldr.w	r3, [r8]
 80022be:	2200      	movs	r2, #0
 80022c0:	2052      	movs	r0, #82	; 0x52
 80022c2:	635a      	str	r2, [r3, #52]	; 0x34
 80022c4:	639a      	str	r2, [r3, #56]	; 0x38
 80022c6:	b00f      	add	sp, #60	; 0x3c
 80022c8:	e8bd 83f0 	ldmia.w	sp!, {r4, r5, r6, r7, r8, r9, pc}
 80022cc:	20005004 	.word	0x20005004
 80022d0:	20004f78 	.word	0x20004f78
 80022d4:	40020000 	.word	0x40020000
 80022d8:	20005050 	.word	0x20005050
 80022dc:	20005014 	.word	0x20005014

080022e0 <Straight_Move>:
 80022e0:	e92d 47f0 	stmdb	sp!, {r4, r5, r6, r7, r8, r9, sl, lr}
 80022e4:	460d      	mov	r5, r1
 80022e6:	4606      	mov	r6, r0
 80022e8:	2100      	movs	r1, #0
 80022ea:	4837      	ldr	r0, [pc, #220]	; (80023c8 <Straight_Move+0xe8>)
 80022ec:	4f37      	ldr	r7, [pc, #220]	; (80023cc <Straight_Move+0xec>)
 80022ee:	f8df 90e4 	ldr.w	r9, [pc, #228]	; 80023d4 <Straight_Move+0xf4>
 80022f2:	4c37      	ldr	r4, [pc, #220]	; (80023d0 <Straight_Move+0xf0>)
 80022f4:	f8df a0d0 	ldr.w	sl, [pc, #208]	; 80023c8 <Straight_Move+0xe8>
 80022f8:	f001 ff48 	bl	800418c <HAL_TIM_PWM_Start>
 80022fc:	2104      	movs	r1, #4
 80022fe:	4832      	ldr	r0, [pc, #200]	; (80023c8 <Straight_Move+0xe8>)
 8002300:	f001 ff44 	bl	800418c <HAL_TIM_PWM_Start>
 8002304:	210c      	movs	r1, #12
 8002306:	4833      	ldr	r0, [pc, #204]	; (80023d4 <Straight_Move+0xf4>)
 8002308:	f001 ff40 	bl	800418c <HAL_TIM_PWM_Start>
 800230c:	213c      	movs	r1, #60	; 0x3c
 800230e:	4638      	mov	r0, r7
 8002310:	f001 fc1f 	bl	8003b52 <HAL_TIM_Encoder_Start>
 8002314:	683b      	ldr	r3, [r7, #0]
 8002316:	6a5b      	ldr	r3, [r3, #36]	; 0x24
 8002318:	fa0f f883 	sxth.w	r8, r3
 800231c:	f44f 73b9 	mov.w	r3, #370	; 0x172
 8002320:	fb03 f105 	mul.w	r1, r3, r5
 8002324:	f1a1 0530 	sub.w	r5, r1, #48	; 0x30
 8002328:	f8d9 3000 	ldr.w	r3, [r9]
 800232c:	2294      	movs	r2, #148	; 0x94
 800232e:	641a      	str	r2, [r3, #64]	; 0x40
 8002330:	2201      	movs	r2, #1
 8002332:	b366      	cbz	r6, 800238e <Straight_Move+0xae>
 8002334:	2104      	movs	r1, #4
 8002336:	4620      	mov	r0, r4
 8002338:	f001 f8c4 	bl	80034c4 <HAL_GPIO_WritePin>
 800233c:	2200      	movs	r2, #0
 800233e:	2108      	movs	r1, #8
 8002340:	4620      	mov	r0, r4
 8002342:	f001 f8bf 	bl	80034c4 <HAL_GPIO_WritePin>
 8002346:	2201      	movs	r2, #1
 8002348:	2120      	movs	r1, #32
 800234a:	4620      	mov	r0, r4
 800234c:	f001 f8ba 	bl	80034c4 <HAL_GPIO_WritePin>
 8002350:	2200      	movs	r2, #0
 8002352:	2110      	movs	r1, #16
 8002354:	4620      	mov	r0, r4
 8002356:	f001 f8b5 	bl	80034c4 <HAL_GPIO_WritePin>
 800235a:	200a      	movs	r0, #10
 800235c:	f002 fca3 	bl	8004ca6 <osDelay>
 8002360:	f8da 3000 	ldr.w	r3, [sl]
 8002364:	6838      	ldr	r0, [r7, #0]
 8002366:	f44f 6196 	mov.w	r1, #1200	; 0x4b0
 800236a:	6359      	str	r1, [r3, #52]	; 0x34
 800236c:	6399      	str	r1, [r3, #56]	; 0x38
 800236e:	6a42      	ldr	r2, [r0, #36]	; 0x24
 8002370:	f8d0 c000 	ldr.w	ip, [r0]
 8002374:	b212      	sxth	r2, r2
 8002376:	f01c 0f10 	tst.w	ip, #16
 800237a:	bf14      	ite	ne
 800237c:	eba8 0202 	subne.w	r2, r8, r2
 8002380:	eba2 0208 	subeq.w	r2, r2, r8
 8002384:	42aa      	cmp	r2, r5
 8002386:	da13      	bge.n	80023b0 <Straight_Move+0xd0>
 8002388:	6359      	str	r1, [r3, #52]	; 0x34
 800238a:	6399      	str	r1, [r3, #56]	; 0x38
 800238c:	e7cc      	b.n	8002328 <Straight_Move+0x48>
 800238e:	2108      	movs	r1, #8
 8002390:	4620      	mov	r0, r4
 8002392:	f001 f897 	bl	80034c4 <HAL_GPIO_WritePin>
 8002396:	4632      	mov	r2, r6
 8002398:	2104      	movs	r1, #4
 800239a:	4620      	mov	r0, r4
 800239c:	f001 f892 	bl	80034c4 <HAL_GPIO_WritePin>
 80023a0:	2201      	movs	r2, #1
 80023a2:	2110      	movs	r1, #16
 80023a4:	4620      	mov	r0, r4
 80023a6:	f001 f88d 	bl	80034c4 <HAL_GPIO_WritePin>
 80023aa:	4632      	mov	r2, r6
 80023ac:	2120      	movs	r1, #32
 80023ae:	e7d1      	b.n	8002354 <Straight_Move+0x74>
 80023b0:	2200      	movs	r2, #0
 80023b2:	635a      	str	r2, [r3, #52]	; 0x34
 80023b4:	639a      	str	r2, [r3, #56]	; 0x38
 80023b6:	f06f 0301 	mvn.w	r3, #1
 80023ba:	6103      	str	r3, [r0, #16]
 80023bc:	f04f 4380 	mov.w	r3, #1073741824	; 0x40000000
 80023c0:	2052      	movs	r0, #82	; 0x52
 80023c2:	625a      	str	r2, [r3, #36]	; 0x24
 80023c4:	e8bd 87f0 	ldmia.w	sp!, {r4, r5, r6, r7, r8, r9, sl, pc}
 80023c8:	20004f78 	.word	0x20004f78
 80023cc:	200050b0 	.word	0x200050b0
 80023d0:	40020000 	.word	0x40020000
 80023d4:	20005050 	.word	0x20005050

080023d8 <Turning>:
 80023d8:	e92d 47f0 	stmdb	sp!, {r4, r5, r6, r7, r8, r9, sl, lr}
 80023dc:	4d47      	ldr	r5, [pc, #284]	; (80024fc <Turning+0x124>)
 80023de:	4e48      	ldr	r6, [pc, #288]	; (8002500 <Turning+0x128>)
 80023e0:	682b      	ldr	r3, [r5, #0]
 80023e2:	f06f 0201 	mvn.w	r2, #1
 80023e6:	611a      	str	r2, [r3, #16]
 80023e8:	f04f 4380 	mov.w	r3, #1073741824	; 0x40000000
 80023ec:	460f      	mov	r7, r1
 80023ee:	2100      	movs	r1, #0
 80023f0:	6259      	str	r1, [r3, #36]	; 0x24
 80023f2:	4604      	mov	r4, r0
 80023f4:	4843      	ldr	r0, [pc, #268]	; (8002504 <Turning+0x12c>)
 80023f6:	f001 fec9 	bl	800418c <HAL_TIM_PWM_Start>
 80023fa:	2104      	movs	r1, #4
 80023fc:	4841      	ldr	r0, [pc, #260]	; (8002504 <Turning+0x12c>)
 80023fe:	f001 fec5 	bl	800418c <HAL_TIM_PWM_Start>
 8002402:	210c      	movs	r1, #12
 8002404:	4630      	mov	r0, r6
 8002406:	f001 fec1 	bl	800418c <HAL_TIM_PWM_Start>
 800240a:	213c      	movs	r1, #60	; 0x3c
 800240c:	4628      	mov	r0, r5
 800240e:	f001 fba0 	bl	8003b52 <HAL_TIM_Encoder_Start>
 8002412:	6833      	ldr	r3, [r6, #0]
 8002414:	2f00      	cmp	r7, #0
 8002416:	d05b      	beq.n	80024d0 <Turning+0xf8>
 8002418:	2264      	movs	r2, #100	; 0x64
 800241a:	641a      	str	r2, [r3, #64]	; 0x40
 800241c:	2c00      	cmp	r4, #0
 800241e:	d054      	beq.n	80024ca <Turning+0xf2>
 8002420:	f240 7721 	movw	r7, #1825	; 0x721
 8002424:	f8df 90dc 	ldr.w	r9, [pc, #220]	; 8002504 <Turning+0x12c>
 8002428:	f8df 80e0 	ldr.w	r8, [pc, #224]	; 800250c <Turning+0x134>
 800242c:	46ca      	mov	sl, r9
 800242e:	f04f 31ff 	mov.w	r1, #4294967295
 8002432:	f8d8 0000 	ldr.w	r0, [r8]
 8002436:	f002 ff8b 	bl	8005350 <xQueueSemaphoreTake>
 800243a:	2300      	movs	r3, #0
 800243c:	461a      	mov	r2, r3
 800243e:	f8d8 0000 	ldr.w	r0, [r8]
 8002442:	4619      	mov	r1, r3
 8002444:	f002 fdb2 	bl	8004fac <xQueueGenericSend>
 8002448:	2201      	movs	r2, #1
 800244a:	2c00      	cmp	r4, #0
 800244c:	d042      	beq.n	80024d4 <Turning+0xfc>
 800244e:	482e      	ldr	r0, [pc, #184]	; (8002508 <Turning+0x130>)
 8002450:	2104      	movs	r1, #4
 8002452:	f001 f837 	bl	80034c4 <HAL_GPIO_WritePin>
 8002456:	482c      	ldr	r0, [pc, #176]	; (8002508 <Turning+0x130>)
 8002458:	2200      	movs	r2, #0
 800245a:	2108      	movs	r1, #8
 800245c:	f001 f832 	bl	80034c4 <HAL_GPIO_WritePin>
 8002460:	2201      	movs	r2, #1
 8002462:	2120      	movs	r1, #32
 8002464:	4828      	ldr	r0, [pc, #160]	; (8002508 <Turning+0x130>)
 8002466:	f001 f82d 	bl	80034c4 <HAL_GPIO_WritePin>
 800246a:	2200      	movs	r2, #0
 800246c:	2110      	movs	r1, #16
 800246e:	4826      	ldr	r0, [pc, #152]	; (8002508 <Turning+0x130>)
 8002470:	f001 f828 	bl	80034c4 <HAL_GPIO_WritePin>
 8002474:	f44f 70fa 	mov.w	r0, #500	; 0x1f4
 8002478:	f002 fc15 	bl	8004ca6 <osDelay>
 800247c:	f8d9 3000 	ldr.w	r3, [r9]
 8002480:	f44f 6296 	mov.w	r2, #1200	; 0x4b0
 8002484:	635a      	str	r2, [r3, #52]	; 0x34
 8002486:	200a      	movs	r0, #10
 8002488:	639a      	str	r2, [r3, #56]	; 0x38
 800248a:	f002 fc0c 	bl	8004ca6 <osDelay>
 800248e:	682a      	ldr	r2, [r5, #0]
 8002490:	6a53      	ldr	r3, [r2, #36]	; 0x24
 8002492:	6812      	ldr	r2, [r2, #0]
 8002494:	06d2      	lsls	r2, r2, #27
 8002496:	b21b      	sxth	r3, r3
 8002498:	d52d      	bpl.n	80024f6 <Turning+0x11e>
 800249a:	427a      	negs	r2, r7
 800249c:	429a      	cmp	r2, r3
 800249e:	dbc6      	blt.n	800242e <Turning+0x56>
 80024a0:	f8da 3000 	ldr.w	r3, [sl]
 80024a4:	2400      	movs	r4, #0
 80024a6:	635c      	str	r4, [r3, #52]	; 0x34
 80024a8:	200a      	movs	r0, #10
 80024aa:	639c      	str	r4, [r3, #56]	; 0x38
 80024ac:	f002 fbfb 	bl	8004ca6 <osDelay>
 80024b0:	6833      	ldr	r3, [r6, #0]
 80024b2:	2294      	movs	r2, #148	; 0x94
 80024b4:	641a      	str	r2, [r3, #64]	; 0x40
 80024b6:	682b      	ldr	r3, [r5, #0]
 80024b8:	f06f 0201 	mvn.w	r2, #1
 80024bc:	611a      	str	r2, [r3, #16]
 80024be:	f04f 4380 	mov.w	r3, #1073741824	; 0x40000000
 80024c2:	2052      	movs	r0, #82	; 0x52
 80024c4:	625c      	str	r4, [r3, #36]	; 0x24
 80024c6:	e8bd 87f0 	ldmia.w	sp!, {r4, r5, r6, r7, r8, r9, sl, pc}
 80024ca:	f240 772b 	movw	r7, #1835	; 0x72b
 80024ce:	e7a9      	b.n	8002424 <Turning+0x4c>
 80024d0:	22e6      	movs	r2, #230	; 0xe6
 80024d2:	e7a2      	b.n	800241a <Turning+0x42>
 80024d4:	480c      	ldr	r0, [pc, #48]	; (8002508 <Turning+0x130>)
 80024d6:	2108      	movs	r1, #8
 80024d8:	f000 fff4 	bl	80034c4 <HAL_GPIO_WritePin>
 80024dc:	480a      	ldr	r0, [pc, #40]	; (8002508 <Turning+0x130>)
 80024de:	4622      	mov	r2, r4
 80024e0:	2104      	movs	r1, #4
 80024e2:	f000 ffef 	bl	80034c4 <HAL_GPIO_WritePin>
 80024e6:	2201      	movs	r2, #1
 80024e8:	2110      	movs	r1, #16
 80024ea:	4807      	ldr	r0, [pc, #28]	; (8002508 <Turning+0x130>)
 80024ec:	f000 ffea 	bl	80034c4 <HAL_GPIO_WritePin>
 80024f0:	4622      	mov	r2, r4
 80024f2:	2120      	movs	r1, #32
 80024f4:	e7bb      	b.n	800246e <Turning+0x96>
 80024f6:	429f      	cmp	r7, r3
 80024f8:	dc99      	bgt.n	800242e <Turning+0x56>
 80024fa:	e7d1      	b.n	80024a0 <Turning+0xc8>
 80024fc:	200050b0 	.word	0x200050b0
 8002500:	20005050 	.word	0x20005050
 8002504:	20004f78 	.word	0x20004f78
 8002508:	40020000 	.word	0x40020000
 800250c:	20000208 	.word	0x20000208

08002510 <U_Turn>:
 8002510:	e92d 47f0 	stmdb	sp!, {r4, r5, r6, r7, r8, r9, sl, lr}
 8002514:	2100      	movs	r1, #0
 8002516:	ed2d 8b02 	vpush	{d8}
 800251a:	4841      	ldr	r0, [pc, #260]	; (8002620 <U_Turn+0x110>)
 800251c:	eddf 8a41 	vldr	s17, [pc, #260]	; 8002624 <U_Turn+0x114>
 8002520:	4d41      	ldr	r5, [pc, #260]	; (8002628 <U_Turn+0x118>)
 8002522:	f001 fe33 	bl	800418c <HAL_TIM_PWM_Start>
 8002526:	2104      	movs	r1, #4
 8002528:	483d      	ldr	r0, [pc, #244]	; (8002620 <U_Turn+0x110>)
 800252a:	f001 fe2f 	bl	800418c <HAL_TIM_PWM_Start>
 800252e:	210c      	movs	r1, #12
 8002530:	483e      	ldr	r0, [pc, #248]	; (800262c <U_Turn+0x11c>)
 8002532:	f001 fe2b 	bl	800418c <HAL_TIM_PWM_Start>
 8002536:	483e      	ldr	r0, [pc, #248]	; (8002630 <U_Turn+0x120>)
 8002538:	213c      	movs	r1, #60	; 0x3c
 800253a:	f001 fb0a 	bl	8003b52 <HAL_TIM_Encoder_Start>
 800253e:	f20f 09d8 	addw	r9, pc, #216	; 0xd8
 8002542:	e9d9 8900 	ldrd	r8, r9, [r9]
 8002546:	4c3b      	ldr	r4, [pc, #236]	; (8002634 <U_Turn+0x124>)
 8002548:	f8df a0ec 	ldr.w	sl, [pc, #236]	; 8002638 <U_Turn+0x128>
 800254c:	6820      	ldr	r0, [r4, #0]
 800254e:	4f37      	ldr	r7, [pc, #220]	; (800262c <U_Turn+0x11c>)
 8002550:	4e33      	ldr	r6, [pc, #204]	; (8002620 <U_Turn+0x110>)
 8002552:	f04f 31ff 	mov.w	r1, #4294967295
 8002556:	f002 fefb 	bl	8005350 <xQueueSemaphoreTake>
 800255a:	eef5 8a40 	vcmp.f32	s17, #0.0
 800255e:	2300      	movs	r3, #0
 8002560:	eef1 fa10 	vmrs	APSR_nzcv, fpscr
 8002564:	461a      	mov	r2, r3
 8002566:	4619      	mov	r1, r3
 8002568:	6820      	ldr	r0, [r4, #0]
 800256a:	bf08      	it	eq
 800256c:	edda 8a00 	vldreq	s17, [sl]
 8002570:	f002 fd1c 	bl	8004fac <xQueueGenericSend>
 8002574:	683b      	ldr	r3, [r7, #0]
 8002576:	2264      	movs	r2, #100	; 0x64
 8002578:	641a      	str	r2, [r3, #64]	; 0x40
 800257a:	2104      	movs	r1, #4
 800257c:	2201      	movs	r2, #1
 800257e:	4628      	mov	r0, r5
 8002580:	f000 ffa0 	bl	80034c4 <HAL_GPIO_WritePin>
 8002584:	2200      	movs	r2, #0
 8002586:	2108      	movs	r1, #8
 8002588:	4628      	mov	r0, r5
 800258a:	f000 ff9b 	bl	80034c4 <HAL_GPIO_WritePin>
 800258e:	2201      	movs	r2, #1
 8002590:	2120      	movs	r1, #32
 8002592:	4628      	mov	r0, r5
 8002594:	f000 ff96 	bl	80034c4 <HAL_GPIO_WritePin>
 8002598:	2110      	movs	r1, #16
 800259a:	2200      	movs	r2, #0
 800259c:	4628      	mov	r0, r5
 800259e:	f000 ff91 	bl	80034c4 <HAL_GPIO_WritePin>
 80025a2:	6833      	ldr	r3, [r6, #0]
 80025a4:	f44f 6296 	mov.w	r2, #1200	; 0x4b0
 80025a8:	635a      	str	r2, [r3, #52]	; 0x34
 80025aa:	200a      	movs	r0, #10
 80025ac:	639a      	str	r2, [r3, #56]	; 0x38
 80025ae:	f002 fb7a 	bl	8004ca6 <osDelay>
 80025b2:	f04f 31ff 	mov.w	r1, #4294967295
 80025b6:	6820      	ldr	r0, [r4, #0]
 80025b8:	f002 feca 	bl	8005350 <xQueueSemaphoreTake>
 80025bc:	ed9a 8a00 	vldr	s16, [sl]
 80025c0:	6820      	ldr	r0, [r4, #0]
 80025c2:	2300      	movs	r3, #0
 80025c4:	ee38 8ac8 	vsub.f32	s16, s17, s16
 80025c8:	461a      	mov	r2, r3
 80025ca:	4619      	mov	r1, r3
 80025cc:	f002 fcee 	bl	8004fac <xQueueGenericSend>
 80025d0:	ee18 0a10 	vmov	r0, s16
 80025d4:	f7fd ffb8 	bl	8000548 <__aeabi_f2d>
 80025d8:	4642      	mov	r2, r8
 80025da:	464b      	mov	r3, r9
 80025dc:	f7fe fa92 	bl	8000b04 <__aeabi_dcmpge>
 80025e0:	2800      	cmp	r0, #0
 80025e2:	d0b0      	beq.n	8002546 <U_Turn+0x36>
 80025e4:	683b      	ldr	r3, [r7, #0]
 80025e6:	2294      	movs	r2, #148	; 0x94
 80025e8:	641a      	str	r2, [r3, #64]	; 0x40
 80025ea:	6833      	ldr	r3, [r6, #0]
 80025ec:	2400      	movs	r4, #0
 80025ee:	635c      	str	r4, [r3, #52]	; 0x34
 80025f0:	200a      	movs	r0, #10
 80025f2:	639c      	str	r4, [r3, #56]	; 0x38
 80025f4:	f002 fb57 	bl	8004ca6 <osDelay>
 80025f8:	4b0d      	ldr	r3, [pc, #52]	; (8002630 <U_Turn+0x120>)
 80025fa:	ecbd 8b02 	vpop	{d8}
 80025fe:	681b      	ldr	r3, [r3, #0]
 8002600:	f06f 0201 	mvn.w	r2, #1
 8002604:	611a      	str	r2, [r3, #16]
 8002606:	f04f 4380 	mov.w	r3, #1073741824	; 0x40000000
 800260a:	2052      	movs	r0, #82	; 0x52
 800260c:	625c      	str	r4, [r3, #36]	; 0x24
 800260e:	e8bd 87f0 	ldmia.w	sp!, {r4, r5, r6, r7, r8, r9, sl, pc}
 8002612:	bf00      	nop
 8002614:	f3af 8000 	nop.w
 8002618:	33333333 	.word	0x33333333
 800261c:	400b3333 	.word	0x400b3333
 8002620:	20004f78 	.word	0x20004f78
 8002624:	00000000 	.word	0x00000000
 8002628:	40020000 	.word	0x40020000
 800262c:	20005050 	.word	0x20005050
 8002630:	200050b0 	.word	0x200050b0
 8002634:	20000208 	.word	0x20000208
 8002638:	2000020c 	.word	0x2000020c

0800263c <Spot_Rotate>:
 800263c:	b5f8      	push	{r3, r4, r5, r6, r7, lr}
 800263e:	2100      	movs	r1, #0
 8002640:	4605      	mov	r5, r0
 8002642:	482e      	ldr	r0, [pc, #184]	; (80026fc <Spot_Rotate+0xc0>)
 8002644:	4e2e      	ldr	r6, [pc, #184]	; (8002700 <Spot_Rotate+0xc4>)
 8002646:	4c2f      	ldr	r4, [pc, #188]	; (8002704 <Spot_Rotate+0xc8>)
 8002648:	4f2c      	ldr	r7, [pc, #176]	; (80026fc <Spot_Rotate+0xc0>)
 800264a:	f001 fd9f 	bl	800418c <HAL_TIM_PWM_Start>
 800264e:	2104      	movs	r1, #4
 8002650:	482a      	ldr	r0, [pc, #168]	; (80026fc <Spot_Rotate+0xc0>)
 8002652:	f001 fd9b 	bl	800418c <HAL_TIM_PWM_Start>
 8002656:	210c      	movs	r1, #12
 8002658:	4829      	ldr	r0, [pc, #164]	; (8002700 <Spot_Rotate+0xc4>)
 800265a:	f001 fd97 	bl	800418c <HAL_TIM_PWM_Start>
 800265e:	482a      	ldr	r0, [pc, #168]	; (8002708 <Spot_Rotate+0xcc>)
 8002660:	213c      	movs	r1, #60	; 0x3c
 8002662:	f001 fa76 	bl	8003b52 <HAL_TIM_Encoder_Start>
 8002666:	6833      	ldr	r3, [r6, #0]
 8002668:	2294      	movs	r2, #148	; 0x94
 800266a:	641a      	str	r2, [r3, #64]	; 0x40
 800266c:	2201      	movs	r2, #1
 800266e:	b37d      	cbz	r5, 80026d0 <Spot_Rotate+0x94>
 8002670:	2104      	movs	r1, #4
 8002672:	4620      	mov	r0, r4
 8002674:	f000 ff26 	bl	80034c4 <HAL_GPIO_WritePin>
 8002678:	2200      	movs	r2, #0
 800267a:	2108      	movs	r1, #8
 800267c:	4620      	mov	r0, r4
 800267e:	f000 ff21 	bl	80034c4 <HAL_GPIO_WritePin>
 8002682:	2201      	movs	r2, #1
 8002684:	2110      	movs	r1, #16
 8002686:	4620      	mov	r0, r4
 8002688:	f000 ff1c 	bl	80034c4 <HAL_GPIO_WritePin>
 800268c:	2200      	movs	r2, #0
 800268e:	2120      	movs	r1, #32
 8002690:	4620      	mov	r0, r4
 8002692:	f000 ff17 	bl	80034c4 <HAL_GPIO_WritePin>
 8002696:	200a      	movs	r0, #10
 8002698:	f002 fb05 	bl	8004ca6 <osDelay>
 800269c:	683b      	ldr	r3, [r7, #0]
 800269e:	f44f 6296 	mov.w	r2, #1200	; 0x4b0
 80026a2:	635a      	str	r2, [r3, #52]	; 0x34
 80026a4:	639a      	str	r2, [r3, #56]	; 0x38
 80026a6:	4a18      	ldr	r2, [pc, #96]	; (8002708 <Spot_Rotate+0xcc>)
 80026a8:	6811      	ldr	r1, [r2, #0]
 80026aa:	6a4a      	ldr	r2, [r1, #36]	; 0x24
 80026ac:	6808      	ldr	r0, [r1, #0]
 80026ae:	06c0      	lsls	r0, r0, #27
 80026b0:	b212      	sxth	r2, r2
 80026b2:	d51e      	bpl.n	80026f2 <Spot_Rotate+0xb6>
 80026b4:	f512 7fa1 	cmn.w	r2, #322	; 0x142
 80026b8:	dcd5      	bgt.n	8002666 <Spot_Rotate+0x2a>
 80026ba:	2200      	movs	r2, #0
 80026bc:	635a      	str	r2, [r3, #52]	; 0x34
 80026be:	639a      	str	r2, [r3, #56]	; 0x38
 80026c0:	f06f 0301 	mvn.w	r3, #1
 80026c4:	610b      	str	r3, [r1, #16]
 80026c6:	f04f 4380 	mov.w	r3, #1073741824	; 0x40000000
 80026ca:	2052      	movs	r0, #82	; 0x52
 80026cc:	625a      	str	r2, [r3, #36]	; 0x24
 80026ce:	bdf8      	pop	{r3, r4, r5, r6, r7, pc}
 80026d0:	2108      	movs	r1, #8
 80026d2:	4620      	mov	r0, r4
 80026d4:	f000 fef6 	bl	80034c4 <HAL_GPIO_WritePin>
 80026d8:	462a      	mov	r2, r5
 80026da:	2104      	movs	r1, #4
 80026dc:	4620      	mov	r0, r4
 80026de:	f000 fef1 	bl	80034c4 <HAL_GPIO_WritePin>
 80026e2:	2201      	movs	r2, #1
 80026e4:	2120      	movs	r1, #32
 80026e6:	4620      	mov	r0, r4
 80026e8:	f000 feec 	bl	80034c4 <HAL_GPIO_WritePin>
 80026ec:	462a      	mov	r2, r5
 80026ee:	2110      	movs	r1, #16
 80026f0:	e7ce      	b.n	8002690 <Spot_Rotate+0x54>
 80026f2:	f5b2 7fa1 	cmp.w	r2, #322	; 0x142
 80026f6:	dbb6      	blt.n	8002666 <Spot_Rotate+0x2a>
 80026f8:	e7df      	b.n	80026ba <Spot_Rotate+0x7e>
 80026fa:	bf00      	nop
 80026fc:	20004f78 	.word	0x20004f78
 8002700:	20005050 	.word	0x20005050
 8002704:	40020000 	.word	0x40020000
 8002708:	200050b0 	.word	0x200050b0

0800270c <StartDefaultTask>:
 800270c:	e92d 4ff0 	stmdb	sp!, {r4, r5, r6, r7, r8, r9, sl, fp, lr}
 8002710:	2400      	movs	r4, #0
 8002712:	f8df b1a0 	ldr.w	fp, [pc, #416]	; 80028b4 <StartDefaultTask+0x1a8>
 8002716:	4f66      	ldr	r7, [pc, #408]	; (80028b0 <StartDefaultTask+0x1a4>)
 8002718:	b091      	sub	sp, #68	; 0x44
 800271a:	f04f 0901 	mov.w	r9, #1
 800271e:	4625      	mov	r5, r4
 8002720:	f8df e198 	ldr.w	lr, [pc, #408]	; 80028bc <StartDefaultTask+0x1b0>
 8002724:	e8be 000f 	ldmia.w	lr!, {r0, r1, r2, r3}
 8002728:	46ec      	mov	ip, sp
 800272a:	e8ac 000f 	stmia.w	ip!, {r0, r1, r2, r3}
 800272e:	e8be 000f 	ldmia.w	lr!, {r0, r1, r2, r3}
 8002732:	e8ac 000f 	stmia.w	ip!, {r0, r1, r2, r3}
 8002736:	e8be 000f 	ldmia.w	lr!, {r0, r1, r2, r3}
 800273a:	e8ac 000f 	stmia.w	ip!, {r0, r1, r2, r3}
 800273e:	e89e 0003 	ldmia.w	lr, {r0, r1}
 8002742:	e88c 0003 	stmia.w	ip, {r0, r1}
 8002746:	f1ae 0340 	sub.w	r3, lr, #64	; 0x40
 800274a:	cb0f      	ldmia	r3, {r0, r1, r2, r3}
 800274c:	f7ff fcf0 	bl	8002130 <IR>
 8002750:	4958      	ldr	r1, [pc, #352]	; (80028b4 <StartDefaultTask+0x1a8>)
 8002752:	2201      	movs	r2, #1
 8002754:	4638      	mov	r0, r7
 8002756:	f002 f88c 	bl	8004872 <HAL_UART_Receive_IT>
 800275a:	f89b 8000 	ldrb.w	r8, [fp]
 800275e:	f1b8 0f39 	cmp.w	r8, #57	; 0x39
 8002762:	d836      	bhi.n	80027d2 <StartDefaultTask+0xc6>
 8002764:	f1b8 0f2f 	cmp.w	r8, #47	; 0x2f
 8002768:	d939      	bls.n	80027de <StartDefaultTask+0xd2>
 800276a:	2331      	movs	r3, #49	; 0x31
 800276c:	f88d 303f 	strb.w	r3, [sp, #63]	; 0x3f
 8002770:	2201      	movs	r2, #1
 8002772:	f64f 73ff 	movw	r3, #65535	; 0xffff
 8002776:	f10d 013f 	add.w	r1, sp, #63	; 0x3f
 800277a:	4638      	mov	r0, r7
 800277c:	f001 fe5c 	bl	8004438 <HAL_UART_Transmit>
 8002780:	f1b9 0f02 	cmp.w	r9, #2
 8002784:	f1a8 0830 	sub.w	r8, r8, #48	; 0x30
 8002788:	f040 808d 	bne.w	80028a6 <StartDefaultTask+0x19a>
 800278c:	2332      	movs	r3, #50	; 0x32
 800278e:	f88d 303f 	strb.w	r3, [sp, #63]	; 0x3f
 8002792:	2201      	movs	r2, #1
 8002794:	f64f 73ff 	movw	r3, #65535	; 0xffff
 8002798:	f10d 013f 	add.w	r1, sp, #63	; 0x3f
 800279c:	4638      	mov	r0, r7
 800279e:	f001 fe4b 	bl	8004438 <HAL_UART_Transmit>
 80027a2:	f04f 0901 	mov.w	r9, #1
 80027a6:	46c2      	mov	sl, r8
 80027a8:	464c      	mov	r4, r9
 80027aa:	2501      	movs	r5, #1
 80027ac:	e017      	b.n	80027de <StartDefaultTask+0xd2>
 80027ae:	f1b8 0f19 	cmp.w	r8, #25
 80027b2:	d814      	bhi.n	80027de <StartDefaultTask+0xd2>
 80027b4:	e8df f008 	tbb	[pc, r8]
 80027b8:	6a13135a 	.word	0x6a13135a
 80027bc:	1313134f 	.word	0x1313134f
 80027c0:	13131313 	.word	0x13131313
 80027c4:	13701313 	.word	0x13701313
 80027c8:	13371342 	.word	0x13371342
 80027cc:	131c1374 	.word	0x131c1374
 80027d0:	6d13      	.short	0x6d13
 80027d2:	f1a8 0841 	sub.w	r8, r8, #65	; 0x41
 80027d6:	fa5f f388 	uxtb.w	r3, r8
 80027da:	2b19      	cmp	r3, #25
 80027dc:	d9e7      	bls.n	80027ae <StartDefaultTask+0xa2>
 80027de:	4936      	ldr	r1, [pc, #216]	; (80028b8 <StartDefaultTask+0x1ac>)
 80027e0:	2213      	movs	r2, #19
 80027e2:	1e48      	subs	r0, r1, #1
 80027e4:	f004 f8bc 	bl	8006960 <memmove>
 80027e8:	2064      	movs	r0, #100	; 0x64
 80027ea:	f002 fa5c 	bl	8004ca6 <osDelay>
 80027ee:	e797      	b.n	8002720 <StartDefaultTask+0x14>
 80027f0:	b1bd      	cbz	r5, 8002822 <StartDefaultTask+0x116>
 80027f2:	b114      	cbz	r4, 80027fa <StartDefaultTask+0xee>
 80027f4:	230a      	movs	r3, #10
 80027f6:	fb03 a606 	mla	r6, r3, r6, sl
 80027fa:	4631      	mov	r1, r6
 80027fc:	2001      	movs	r0, #1
 80027fe:	f7ff fd6f 	bl	80022e0 <Straight_Move>
 8002802:	2352      	movs	r3, #82	; 0x52
 8002804:	f88d 303f 	strb.w	r3, [sp, #63]	; 0x3f
 8002808:	2201      	movs	r2, #1
 800280a:	f64f 73ff 	movw	r3, #65535	; 0xffff
 800280e:	f10d 013f 	add.w	r1, sp, #63	; 0x3f
 8002812:	4638      	mov	r0, r7
 8002814:	2400      	movs	r4, #0
 8002816:	f001 fe0f 	bl	8004438 <HAL_UART_Transmit>
 800281a:	f04f 0901 	mov.w	r9, #1
 800281e:	4625      	mov	r5, r4
 8002820:	e7dd      	b.n	80027de <StartDefaultTask+0xd2>
 8002822:	2101      	movs	r1, #1
 8002824:	e7ea      	b.n	80027fc <StartDefaultTask+0xf0>
 8002826:	b135      	cbz	r5, 8002836 <StartDefaultTask+0x12a>
 8002828:	b114      	cbz	r4, 8002830 <StartDefaultTask+0x124>
 800282a:	230a      	movs	r3, #10
 800282c:	fb03 a606 	mla	r6, r3, r6, sl
 8002830:	4631      	mov	r1, r6
 8002832:	2000      	movs	r0, #0
 8002834:	e7e3      	b.n	80027fe <StartDefaultTask+0xf2>
 8002836:	2101      	movs	r1, #1
 8002838:	4628      	mov	r0, r5
 800283a:	e7e0      	b.n	80027fe <StartDefaultTask+0xf2>
 800283c:	b14d      	cbz	r5, 8002852 <StartDefaultTask+0x146>
 800283e:	b114      	cbz	r4, 8002846 <StartDefaultTask+0x13a>
 8002840:	230a      	movs	r3, #10
 8002842:	fb03 a606 	mla	r6, r3, r6, sl
 8002846:	4632      	mov	r2, r6
 8002848:	2101      	movs	r1, #1
 800284a:	2001      	movs	r0, #1
 800284c:	f7ff fdc4 	bl	80023d8 <Turning>
 8002850:	e7d7      	b.n	8002802 <StartDefaultTask+0xf6>
 8002852:	2209      	movs	r2, #9
 8002854:	e7f8      	b.n	8002848 <StartDefaultTask+0x13c>
 8002856:	b135      	cbz	r5, 8002866 <StartDefaultTask+0x15a>
 8002858:	b114      	cbz	r4, 8002860 <StartDefaultTask+0x154>
 800285a:	230a      	movs	r3, #10
 800285c:	fb03 a606 	mla	r6, r3, r6, sl
 8002860:	4632      	mov	r2, r6
 8002862:	2100      	movs	r1, #0
 8002864:	e7f1      	b.n	800284a <StartDefaultTask+0x13e>
 8002866:	2209      	movs	r2, #9
 8002868:	4629      	mov	r1, r5
 800286a:	e7ee      	b.n	800284a <StartDefaultTask+0x13e>
 800286c:	2209      	movs	r2, #9
 800286e:	2101      	movs	r1, #1
 8002870:	2000      	movs	r0, #0
 8002872:	f7ff fdb1 	bl	80023d8 <Turning>
 8002876:	f88d 003f 	strb.w	r0, [sp, #63]	; 0x3f
 800287a:	f64f 73ff 	movw	r3, #65535	; 0xffff
 800287e:	2201      	movs	r2, #1
 8002880:	f10d 013f 	add.w	r1, sp, #63	; 0x3f
 8002884:	4638      	mov	r0, r7
 8002886:	f001 fdd7 	bl	8004438 <HAL_UART_Transmit>
 800288a:	e7a8      	b.n	80027de <StartDefaultTask+0xd2>
 800288c:	2209      	movs	r2, #9
 800288e:	2100      	movs	r1, #0
 8002890:	e7ee      	b.n	8002870 <StartDefaultTask+0x164>
 8002892:	f7ff fcb7 	bl	8002204 <Obstacle_Straight_Move>
 8002896:	e7ee      	b.n	8002876 <StartDefaultTask+0x16a>
 8002898:	2001      	movs	r0, #1
 800289a:	f7ff fecf 	bl	800263c <Spot_Rotate>
 800289e:	e7ea      	b.n	8002876 <StartDefaultTask+0x16a>
 80028a0:	f7ff fe36 	bl	8002510 <U_Turn>
 80028a4:	e7e7      	b.n	8002876 <StartDefaultTask+0x16a>
 80028a6:	4646      	mov	r6, r8
 80028a8:	f04f 0902 	mov.w	r9, #2
 80028ac:	e77d      	b.n	80027aa <StartDefaultTask+0x9e>
 80028ae:	bf00      	nop
 80028b0:	20004fc0 	.word	0x20004fc0
 80028b4:	2000509c 	.word	0x2000509c
 80028b8:	2000509d 	.word	0x2000509d
 80028bc:	20005014 	.word	0x20005014

080028c0 <HAL_MspInit>:
 80028c0:	b082      	sub	sp, #8
 80028c2:	4b0e      	ldr	r3, [pc, #56]	; (80028fc <HAL_MspInit+0x3c>)
 80028c4:	2200      	movs	r2, #0
 80028c6:	9200      	str	r2, [sp, #0]
 80028c8:	6c59      	ldr	r1, [r3, #68]	; 0x44
 80028ca:	f441 4180 	orr.w	r1, r1, #16384	; 0x4000
 80028ce:	6459      	str	r1, [r3, #68]	; 0x44
 80028d0:	6c59      	ldr	r1, [r3, #68]	; 0x44
 80028d2:	f401 4180 	and.w	r1, r1, #16384	; 0x4000
 80028d6:	9100      	str	r1, [sp, #0]
 80028d8:	9900      	ldr	r1, [sp, #0]
 80028da:	9201      	str	r2, [sp, #4]
 80028dc:	6c19      	ldr	r1, [r3, #64]	; 0x40
 80028de:	f041 5180 	orr.w	r1, r1, #268435456	; 0x10000000
 80028e2:	6419      	str	r1, [r3, #64]	; 0x40
 80028e4:	6c1b      	ldr	r3, [r3, #64]	; 0x40
 80028e6:	f003 5380 	and.w	r3, r3, #268435456	; 0x10000000
 80028ea:	9301      	str	r3, [sp, #4]
 80028ec:	9b01      	ldr	r3, [sp, #4]
 80028ee:	210f      	movs	r1, #15
 80028f0:	f06f 0001 	mvn.w	r0, #1
 80028f4:	b002      	add	sp, #8
 80028f6:	f000 bc5f 	b.w	80031b8 <HAL_NVIC_SetPriority>
 80028fa:	bf00      	nop
 80028fc:	40023800 	.word	0x40023800

08002900 <HAL_ADC_MspInit>:
 8002900:	b510      	push	{r4, lr}
 8002902:	4604      	mov	r4, r0
 8002904:	b088      	sub	sp, #32
 8002906:	2214      	movs	r2, #20
 8002908:	2100      	movs	r1, #0
 800290a:	a803      	add	r0, sp, #12
 800290c:	f004 f842 	bl	8006994 <memset>
 8002910:	6822      	ldr	r2, [r4, #0]
 8002912:	4b12      	ldr	r3, [pc, #72]	; (800295c <HAL_ADC_MspInit+0x5c>)
 8002914:	429a      	cmp	r2, r3
 8002916:	d11f      	bne.n	8002958 <HAL_ADC_MspInit+0x58>
 8002918:	f503 338c 	add.w	r3, r3, #71680	; 0x11800
 800291c:	2200      	movs	r2, #0
 800291e:	9201      	str	r2, [sp, #4]
 8002920:	6c59      	ldr	r1, [r3, #68]	; 0x44
 8002922:	480f      	ldr	r0, [pc, #60]	; (8002960 <HAL_ADC_MspInit+0x60>)
 8002924:	f441 7180 	orr.w	r1, r1, #256	; 0x100
 8002928:	6459      	str	r1, [r3, #68]	; 0x44
 800292a:	6c59      	ldr	r1, [r3, #68]	; 0x44
 800292c:	f401 7180 	and.w	r1, r1, #256	; 0x100
 8002930:	9101      	str	r1, [sp, #4]
 8002932:	9901      	ldr	r1, [sp, #4]
 8002934:	9202      	str	r2, [sp, #8]
 8002936:	6b19      	ldr	r1, [r3, #48]	; 0x30
 8002938:	f041 0104 	orr.w	r1, r1, #4
 800293c:	6319      	str	r1, [r3, #48]	; 0x30
 800293e:	6b1b      	ldr	r3, [r3, #48]	; 0x30
 8002940:	9205      	str	r2, [sp, #20]
 8002942:	f003 0304 	and.w	r3, r3, #4
 8002946:	9302      	str	r3, [sp, #8]
 8002948:	2102      	movs	r1, #2
 800294a:	9b02      	ldr	r3, [sp, #8]
 800294c:	2303      	movs	r3, #3
 800294e:	e9cd 1303 	strd	r1, r3, [sp, #12]
 8002952:	a903      	add	r1, sp, #12
 8002954:	f000 fcdc 	bl	8003310 <HAL_GPIO_Init>
 8002958:	b008      	add	sp, #32
 800295a:	bd10      	pop	{r4, pc}
 800295c:	40012000 	.word	0x40012000
 8002960:	40020800 	.word	0x40020800

08002964 <HAL_TIM_Base_MspInit>:
 8002964:	b510      	push	{r4, lr}
 8002966:	4604      	mov	r4, r0
 8002968:	b088      	sub	sp, #32
 800296a:	2214      	movs	r2, #20
 800296c:	2100      	movs	r1, #0
 800296e:	a803      	add	r0, sp, #12
 8002970:	f004 f810 	bl	8006994 <memset>
 8002974:	6823      	ldr	r3, [r4, #0]
 8002976:	4a1b      	ldr	r2, [pc, #108]	; (80029e4 <HAL_TIM_Base_MspInit+0x80>)
 8002978:	4293      	cmp	r3, r2
 800297a:	d10d      	bne.n	8002998 <HAL_TIM_Base_MspInit+0x34>
 800297c:	2300      	movs	r3, #0
 800297e:	9300      	str	r3, [sp, #0]
 8002980:	4b19      	ldr	r3, [pc, #100]	; (80029e8 <HAL_TIM_Base_MspInit+0x84>)
 8002982:	6c5a      	ldr	r2, [r3, #68]	; 0x44
 8002984:	f042 0201 	orr.w	r2, r2, #1
 8002988:	645a      	str	r2, [r3, #68]	; 0x44
 800298a:	6c5b      	ldr	r3, [r3, #68]	; 0x44
 800298c:	f003 0301 	and.w	r3, r3, #1
 8002990:	9300      	str	r3, [sp, #0]
 8002992:	9b00      	ldr	r3, [sp, #0]
 8002994:	b008      	add	sp, #32
 8002996:	bd10      	pop	{r4, pc}
 8002998:	4a14      	ldr	r2, [pc, #80]	; (80029ec <HAL_TIM_Base_MspInit+0x88>)
 800299a:	4293      	cmp	r3, r2
 800299c:	d1fa      	bne.n	8002994 <HAL_TIM_Base_MspInit+0x30>
 800299e:	4b12      	ldr	r3, [pc, #72]	; (80029e8 <HAL_TIM_Base_MspInit+0x84>)
 80029a0:	4813      	ldr	r0, [pc, #76]	; (80029f0 <HAL_TIM_Base_MspInit+0x8c>)
 80029a2:	2200      	movs	r2, #0
 80029a4:	9201      	str	r2, [sp, #4]
 80029a6:	6c59      	ldr	r1, [r3, #68]	; 0x44
 80029a8:	f041 0102 	orr.w	r1, r1, #2
 80029ac:	6459      	str	r1, [r3, #68]	; 0x44
 80029ae:	6c59      	ldr	r1, [r3, #68]	; 0x44
 80029b0:	f001 0102 	and.w	r1, r1, #2
 80029b4:	9101      	str	r1, [sp, #4]
 80029b6:	9901      	ldr	r1, [sp, #4]
 80029b8:	9202      	str	r2, [sp, #8]
 80029ba:	6b19      	ldr	r1, [r3, #48]	; 0x30
 80029bc:	f041 0104 	orr.w	r1, r1, #4
 80029c0:	6319      	str	r1, [r3, #48]	; 0x30
 80029c2:	6b1b      	ldr	r3, [r3, #48]	; 0x30
 80029c4:	f003 0304 	and.w	r3, r3, #4
 80029c8:	9302      	str	r3, [sp, #8]
 80029ca:	9b02      	ldr	r3, [sp, #8]
 80029cc:	21c0      	movs	r1, #192	; 0xc0
 80029ce:	2302      	movs	r3, #2
 80029d0:	e9cd 1303 	strd	r1, r3, [sp, #12]
 80029d4:	2303      	movs	r3, #3
 80029d6:	a903      	add	r1, sp, #12
 80029d8:	e9cd 2205 	strd	r2, r2, [sp, #20]
 80029dc:	9307      	str	r3, [sp, #28]
 80029de:	f000 fc97 	bl	8003310 <HAL_GPIO_Init>
 80029e2:	e7d7      	b.n	8002994 <HAL_TIM_Base_MspInit+0x30>
 80029e4:	40010000 	.word	0x40010000
 80029e8:	40023800 	.word	0x40023800
 80029ec:	40010400 	.word	0x40010400
 80029f0:	40020800 	.word	0x40020800

080029f4 <HAL_TIM_Encoder_MspInit>:
 80029f4:	b570      	push	{r4, r5, r6, lr}
 80029f6:	4604      	mov	r4, r0
 80029f8:	b088      	sub	sp, #32
 80029fa:	2214      	movs	r2, #20
 80029fc:	2100      	movs	r1, #0
 80029fe:	a803      	add	r0, sp, #12
 8002a00:	f003 ffc8 	bl	8006994 <memset>
 8002a04:	6823      	ldr	r3, [r4, #0]
 8002a06:	f1b3 4f80 	cmp.w	r3, #1073741824	; 0x40000000
 8002a0a:	d137      	bne.n	8002a7c <HAL_TIM_Encoder_MspInit+0x88>
 8002a0c:	f503 330e 	add.w	r3, r3, #145408	; 0x23800
 8002a10:	2400      	movs	r4, #0
 8002a12:	9400      	str	r4, [sp, #0]
 8002a14:	6c1a      	ldr	r2, [r3, #64]	; 0x40
 8002a16:	481a      	ldr	r0, [pc, #104]	; (8002a80 <HAL_TIM_Encoder_MspInit+0x8c>)
 8002a18:	f042 0201 	orr.w	r2, r2, #1
 8002a1c:	641a      	str	r2, [r3, #64]	; 0x40
 8002a1e:	6c1a      	ldr	r2, [r3, #64]	; 0x40
 8002a20:	f002 0201 	and.w	r2, r2, #1
 8002a24:	9200      	str	r2, [sp, #0]
 8002a26:	9a00      	ldr	r2, [sp, #0]
 8002a28:	9401      	str	r4, [sp, #4]
 8002a2a:	6b1a      	ldr	r2, [r3, #48]	; 0x30
 8002a2c:	f042 0201 	orr.w	r2, r2, #1
 8002a30:	631a      	str	r2, [r3, #48]	; 0x30
 8002a32:	6b1a      	ldr	r2, [r3, #48]	; 0x30
 8002a34:	f002 0201 	and.w	r2, r2, #1
 8002a38:	9201      	str	r2, [sp, #4]
 8002a3a:	9a01      	ldr	r2, [sp, #4]
 8002a3c:	9402      	str	r4, [sp, #8]
 8002a3e:	6b1a      	ldr	r2, [r3, #48]	; 0x30
 8002a40:	f042 0202 	orr.w	r2, r2, #2
 8002a44:	631a      	str	r2, [r3, #48]	; 0x30
 8002a46:	6b1b      	ldr	r3, [r3, #48]	; 0x30
 8002a48:	f003 0302 	and.w	r3, r3, #2
 8002a4c:	9302      	str	r3, [sp, #8]
 8002a4e:	9b02      	ldr	r3, [sp, #8]
 8002a50:	2602      	movs	r6, #2
 8002a52:	f44f 4300 	mov.w	r3, #32768	; 0x8000
 8002a56:	2501      	movs	r5, #1
 8002a58:	a903      	add	r1, sp, #12
 8002a5a:	e9cd 3603 	strd	r3, r6, [sp, #12]
 8002a5e:	e9cd 4405 	strd	r4, r4, [sp, #20]
 8002a62:	9507      	str	r5, [sp, #28]
 8002a64:	f000 fc54 	bl	8003310 <HAL_GPIO_Init>
 8002a68:	2308      	movs	r3, #8
 8002a6a:	4806      	ldr	r0, [pc, #24]	; (8002a84 <HAL_TIM_Encoder_MspInit+0x90>)
 8002a6c:	9507      	str	r5, [sp, #28]
 8002a6e:	a903      	add	r1, sp, #12
 8002a70:	e9cd 3603 	strd	r3, r6, [sp, #12]
 8002a74:	e9cd 4405 	strd	r4, r4, [sp, #20]
 8002a78:	f000 fc4a 	bl	8003310 <HAL_GPIO_Init>
 8002a7c:	b008      	add	sp, #32
 8002a7e:	bd70      	pop	{r4, r5, r6, pc}
 8002a80:	40020000 	.word	0x40020000
 8002a84:	40020400 	.word	0x40020400

08002a88 <HAL_TIM_MspPostInit>:
 8002a88:	b510      	push	{r4, lr}
 8002a8a:	4604      	mov	r4, r0
 8002a8c:	b086      	sub	sp, #24
 8002a8e:	2214      	movs	r2, #20
 8002a90:	2100      	movs	r1, #0
 8002a92:	a801      	add	r0, sp, #4
 8002a94:	f003 ff7e 	bl	8006994 <memset>
 8002a98:	6822      	ldr	r2, [r4, #0]
 8002a9a:	4b0f      	ldr	r3, [pc, #60]	; (8002ad8 <HAL_TIM_MspPostInit+0x50>)
 8002a9c:	429a      	cmp	r2, r3
 8002a9e:	d118      	bne.n	8002ad2 <HAL_TIM_MspPostInit+0x4a>
 8002aa0:	4a0e      	ldr	r2, [pc, #56]	; (8002adc <HAL_TIM_MspPostInit+0x54>)
 8002aa2:	480f      	ldr	r0, [pc, #60]	; (8002ae0 <HAL_TIM_MspPostInit+0x58>)
 8002aa4:	2300      	movs	r3, #0
 8002aa6:	9300      	str	r3, [sp, #0]
 8002aa8:	6b11      	ldr	r1, [r2, #48]	; 0x30
 8002aaa:	f041 0110 	orr.w	r1, r1, #16
 8002aae:	6311      	str	r1, [r2, #48]	; 0x30
 8002ab0:	6b12      	ldr	r2, [r2, #48]	; 0x30
 8002ab2:	f002 0210 	and.w	r2, r2, #16
 8002ab6:	9200      	str	r2, [sp, #0]
 8002ab8:	f44f 4180 	mov.w	r1, #16384	; 0x4000
 8002abc:	9a00      	ldr	r2, [sp, #0]
 8002abe:	2202      	movs	r2, #2
 8002ac0:	e9cd 1201 	strd	r1, r2, [sp, #4]
 8002ac4:	e9cd 3303 	strd	r3, r3, [sp, #12]
 8002ac8:	a901      	add	r1, sp, #4
 8002aca:	2301      	movs	r3, #1
 8002acc:	9305      	str	r3, [sp, #20]
 8002ace:	f000 fc1f 	bl	8003310 <HAL_GPIO_Init>
 8002ad2:	b006      	add	sp, #24
 8002ad4:	bd10      	pop	{r4, pc}
 8002ad6:	bf00      	nop
 8002ad8:	40010000 	.word	0x40010000
 8002adc:	40023800 	.word	0x40023800
 8002ae0:	40021000 	.word	0x40021000

08002ae4 <HAL_UART_MspInit>:
 8002ae4:	b510      	push	{r4, lr}
 8002ae6:	4604      	mov	r4, r0
 8002ae8:	b088      	sub	sp, #32
 8002aea:	2214      	movs	r2, #20
 8002aec:	2100      	movs	r1, #0
 8002aee:	a803      	add	r0, sp, #12
 8002af0:	f003 ff50 	bl	8006994 <memset>
 8002af4:	6822      	ldr	r2, [r4, #0]
 8002af6:	4b19      	ldr	r3, [pc, #100]	; (8002b5c <HAL_UART_MspInit+0x78>)
 8002af8:	429a      	cmp	r2, r3
 8002afa:	d12c      	bne.n	8002b56 <HAL_UART_MspInit+0x72>
 8002afc:	f503 33f8 	add.w	r3, r3, #126976	; 0x1f000
 8002b00:	2400      	movs	r4, #0
 8002b02:	9401      	str	r4, [sp, #4]
 8002b04:	6c1a      	ldr	r2, [r3, #64]	; 0x40
 8002b06:	4816      	ldr	r0, [pc, #88]	; (8002b60 <HAL_UART_MspInit+0x7c>)
 8002b08:	f442 2280 	orr.w	r2, r2, #262144	; 0x40000
 8002b0c:	641a      	str	r2, [r3, #64]	; 0x40
 8002b0e:	6c1a      	ldr	r2, [r3, #64]	; 0x40
 8002b10:	f402 2280 	and.w	r2, r2, #262144	; 0x40000
 8002b14:	9201      	str	r2, [sp, #4]
 8002b16:	9a01      	ldr	r2, [sp, #4]
 8002b18:	9402      	str	r4, [sp, #8]
 8002b1a:	6b1a      	ldr	r2, [r3, #48]	; 0x30
 8002b1c:	f042 0204 	orr.w	r2, r2, #4
 8002b20:	631a      	str	r2, [r3, #48]	; 0x30
 8002b22:	6b1b      	ldr	r3, [r3, #48]	; 0x30
 8002b24:	9405      	str	r4, [sp, #20]
 8002b26:	f003 0304 	and.w	r3, r3, #4
 8002b2a:	9302      	str	r3, [sp, #8]
 8002b2c:	f44f 6240 	mov.w	r2, #3072	; 0xc00
 8002b30:	9b02      	ldr	r3, [sp, #8]
 8002b32:	2302      	movs	r3, #2
 8002b34:	e9cd 2303 	strd	r2, r3, [sp, #12]
 8002b38:	2103      	movs	r1, #3
 8002b3a:	2307      	movs	r3, #7
 8002b3c:	e9cd 1306 	strd	r1, r3, [sp, #24]
 8002b40:	a903      	add	r1, sp, #12
 8002b42:	f000 fbe5 	bl	8003310 <HAL_GPIO_Init>
 8002b46:	2027      	movs	r0, #39	; 0x27
 8002b48:	4622      	mov	r2, r4
 8002b4a:	2105      	movs	r1, #5
 8002b4c:	f000 fb34 	bl	80031b8 <HAL_NVIC_SetPriority>
 8002b50:	2027      	movs	r0, #39	; 0x27
 8002b52:	f000 fb63 	bl	800321c <HAL_NVIC_EnableIRQ>
 8002b56:	b008      	add	sp, #32
 8002b58:	bd10      	pop	{r4, pc}
 8002b5a:	bf00      	nop
 8002b5c:	40004800 	.word	0x40004800
 8002b60:	40020800 	.word	0x40020800

08002b64 <NMI_Handler>:
 8002b64:	e7fe      	b.n	8002b64 <NMI_Handler>

08002b66 <HardFault_Handler>:
 8002b66:	e7fe      	b.n	8002b66 <HardFault_Handler>

08002b68 <MemManage_Handler>:
 8002b68:	e7fe      	b.n	8002b68 <MemManage_Handler>

08002b6a <BusFault_Handler>:
 8002b6a:	e7fe      	b.n	8002b6a <BusFault_Handler>

08002b6c <UsageFault_Handler>:
 8002b6c:	e7fe      	b.n	8002b6c <UsageFault_Handler>

08002b6e <DebugMon_Handler>:
 8002b6e:	4770      	bx	lr

08002b70 <SysTick_Handler>:
 8002b70:	b508      	push	{r3, lr}
 8002b72:	f000 f8d7 	bl	8002d24 <HAL_IncTick>
 8002b76:	f003 f939 	bl	8005dec <xTaskGetSchedulerState>
 8002b7a:	2801      	cmp	r0, #1
 8002b7c:	d003      	beq.n	8002b86 <SysTick_Handler+0x16>
 8002b7e:	e8bd 4008 	ldmia.w	sp!, {r3, lr}
 8002b82:	f003 bcdf 	b.w	8006544 <xPortSysTickHandler>
 8002b86:	bd08      	pop	{r3, pc}

08002b88 <USART3_IRQHandler>:
 8002b88:	4801      	ldr	r0, [pc, #4]	; (8002b90 <USART3_IRQHandler+0x8>)
 8002b8a:	f001 bd11 	b.w	80045b0 <HAL_UART_IRQHandler>
 8002b8e:	bf00      	nop
 8002b90:	20004fc0 	.word	0x20004fc0

08002b94 <_getpid>:
 8002b94:	2001      	movs	r0, #1
 8002b96:	4770      	bx	lr

08002b98 <_kill>:
 8002b98:	b508      	push	{r3, lr}
 8002b9a:	f003 fea9 	bl	80068f0 <__errno>
 8002b9e:	2316      	movs	r3, #22
 8002ba0:	6003      	str	r3, [r0, #0]
 8002ba2:	f04f 30ff 	mov.w	r0, #4294967295
 8002ba6:	bd08      	pop	{r3, pc}

08002ba8 <_exit>:
 8002ba8:	b508      	push	{r3, lr}
 8002baa:	f003 fea1 	bl	80068f0 <__errno>
 8002bae:	2316      	movs	r3, #22
 8002bb0:	6003      	str	r3, [r0, #0]
 8002bb2:	e7fe      	b.n	8002bb2 <_exit+0xa>

08002bb4 <_read>:
 8002bb4:	b570      	push	{r4, r5, r6, lr}
 8002bb6:	460e      	mov	r6, r1
 8002bb8:	4614      	mov	r4, r2
 8002bba:	2500      	movs	r5, #0
 8002bbc:	42a5      	cmp	r5, r4
 8002bbe:	db01      	blt.n	8002bc4 <_read+0x10>
 8002bc0:	4620      	mov	r0, r4
 8002bc2:	bd70      	pop	{r4, r5, r6, pc}
 8002bc4:	f3af 8000 	nop.w
 8002bc8:	5570      	strb	r0, [r6, r5]
 8002bca:	3501      	adds	r5, #1
 8002bcc:	e7f6      	b.n	8002bbc <_read+0x8>

08002bce <_write>:
 8002bce:	b570      	push	{r4, r5, r6, lr}
 8002bd0:	460e      	mov	r6, r1
 8002bd2:	4614      	mov	r4, r2
 8002bd4:	2500      	movs	r5, #0
 8002bd6:	42a5      	cmp	r5, r4
 8002bd8:	db01      	blt.n	8002bde <_write+0x10>
 8002bda:	4620      	mov	r0, r4
 8002bdc:	bd70      	pop	{r4, r5, r6, pc}
 8002bde:	5d70      	ldrb	r0, [r6, r5]
 8002be0:	f3af 8000 	nop.w
 8002be4:	3501      	adds	r5, #1
 8002be6:	e7f6      	b.n	8002bd6 <_write+0x8>

08002be8 <_close>:
 8002be8:	f04f 30ff 	mov.w	r0, #4294967295
 8002bec:	4770      	bx	lr

08002bee <_fstat>:
 8002bee:	f44f 5300 	mov.w	r3, #8192	; 0x2000
 8002bf2:	604b      	str	r3, [r1, #4]
 8002bf4:	2000      	movs	r0, #0
 8002bf6:	4770      	bx	lr

08002bf8 <_isatty>:
 8002bf8:	2001      	movs	r0, #1
 8002bfa:	4770      	bx	lr

08002bfc <_lseek>:
 8002bfc:	2000      	movs	r0, #0
 8002bfe:	4770      	bx	lr

08002c00 <_sbrk>:
 8002c00:	4b0b      	ldr	r3, [pc, #44]	; (8002c30 <_sbrk+0x30>)
 8002c02:	6819      	ldr	r1, [r3, #0]
 8002c04:	b510      	push	{r4, lr}
 8002c06:	4602      	mov	r2, r0
 8002c08:	b909      	cbnz	r1, 8002c0e <_sbrk+0xe>
 8002c0a:	490a      	ldr	r1, [pc, #40]	; (8002c34 <_sbrk+0x34>)
 8002c0c:	6019      	str	r1, [r3, #0]
 8002c0e:	6818      	ldr	r0, [r3, #0]
 8002c10:	4909      	ldr	r1, [pc, #36]	; (8002c38 <_sbrk+0x38>)
 8002c12:	4c0a      	ldr	r4, [pc, #40]	; (8002c3c <_sbrk+0x3c>)
 8002c14:	4402      	add	r2, r0
 8002c16:	1b09      	subs	r1, r1, r4
 8002c18:	428a      	cmp	r2, r1
 8002c1a:	d906      	bls.n	8002c2a <_sbrk+0x2a>
 8002c1c:	f003 fe68 	bl	80068f0 <__errno>
 8002c20:	230c      	movs	r3, #12
 8002c22:	6003      	str	r3, [r0, #0]
 8002c24:	f04f 30ff 	mov.w	r0, #4294967295
 8002c28:	bd10      	pop	{r4, pc}
 8002c2a:	601a      	str	r2, [r3, #0]
 8002c2c:	e7fc      	b.n	8002c28 <_sbrk+0x28>
 8002c2e:	bf00      	nop
 8002c30:	20000210 	.word	0x20000210
 8002c34:	20005150 	.word	0x20005150
 8002c38:	20020000 	.word	0x20020000
 8002c3c:	00000400 	.word	0x00000400

08002c40 <SystemInit>:
 8002c40:	4a03      	ldr	r2, [pc, #12]	; (8002c50 <SystemInit+0x10>)
 8002c42:	f8d2 3088 	ldr.w	r3, [r2, #136]	; 0x88
 8002c46:	f443 0370 	orr.w	r3, r3, #15728640	; 0xf00000
 8002c4a:	f8c2 3088 	str.w	r3, [r2, #136]	; 0x88
 8002c4e:	4770      	bx	lr
 8002c50:	e000ed00 	.word	0xe000ed00

08002c54 <Reset_Handler>:
 8002c54:	f8df d034 	ldr.w	sp, [pc, #52]	; 8002c8c <LoopFillZerobss+0x12>
 8002c58:	480d      	ldr	r0, [pc, #52]	; (8002c90 <LoopFillZerobss+0x16>)
 8002c5a:	490e      	ldr	r1, [pc, #56]	; (8002c94 <LoopFillZerobss+0x1a>)
 8002c5c:	4a0e      	ldr	r2, [pc, #56]	; (8002c98 <LoopFillZerobss+0x1e>)
 8002c5e:	2300      	movs	r3, #0
 8002c60:	e002      	b.n	8002c68 <LoopCopyDataInit>

08002c62 <CopyDataInit>:
 8002c62:	58d4      	ldr	r4, [r2, r3]
 8002c64:	50c4      	str	r4, [r0, r3]
 8002c66:	3304      	adds	r3, #4

08002c68 <LoopCopyDataInit>:
 8002c68:	18c4      	adds	r4, r0, r3
 8002c6a:	428c      	cmp	r4, r1
 8002c6c:	d3f9      	bcc.n	8002c62 <CopyDataInit>
 8002c6e:	4a0b      	ldr	r2, [pc, #44]	; (8002c9c <LoopFillZerobss+0x22>)
 8002c70:	4c0b      	ldr	r4, [pc, #44]	; (8002ca0 <LoopFillZerobss+0x26>)
 8002c72:	2300      	movs	r3, #0
 8002c74:	e001      	b.n	8002c7a <LoopFillZerobss>

08002c76 <FillZerobss>:
 8002c76:	6013      	str	r3, [r2, #0]
 8002c78:	3204      	adds	r2, #4

08002c7a <LoopFillZerobss>:
 8002c7a:	42a2      	cmp	r2, r4
 8002c7c:	d3fb      	bcc.n	8002c76 <FillZerobss>
 8002c7e:	f7ff ffdf 	bl	8002c40 <SystemInit>
 8002c82:	f003 fe3b 	bl	80068fc <__libc_init_array>
 8002c86:	f7ff f825 	bl	8001cd4 <main>
 8002c8a:	4770      	bx	lr
 8002c8c:	20020000 	.word	0x20020000
 8002c90:	20000000 	.word	0x20000000
 8002c94:	200001e8 	.word	0x200001e8
 8002c98:	0800b07c 	.word	0x0800b07c
 8002c9c:	200001e8 	.word	0x200001e8
 8002ca0:	20005150 	.word	0x20005150

08002ca4 <ADC_IRQHandler>:
 8002ca4:	e7fe      	b.n	8002ca4 <ADC_IRQHandler>
	...

08002ca8 <HAL_InitTick>:
 8002ca8:	b538      	push	{r3, r4, r5, lr}
 8002caa:	4a0e      	ldr	r2, [pc, #56]	; (8002ce4 <HAL_InitTick+0x3c>)
 8002cac:	4b0e      	ldr	r3, [pc, #56]	; (8002ce8 <HAL_InitTick+0x40>)
 8002cae:	4605      	mov	r5, r0
 8002cb0:	7818      	ldrb	r0, [r3, #0]
 8002cb2:	f44f 737a 	mov.w	r3, #1000	; 0x3e8
 8002cb6:	fbb3 f3f0 	udiv	r3, r3, r0
 8002cba:	6810      	ldr	r0, [r2, #0]
 8002cbc:	fbb0 f0f3 	udiv	r0, r0, r3
 8002cc0:	f000 faba 	bl	8003238 <HAL_SYSTICK_Config>
 8002cc4:	4604      	mov	r4, r0
 8002cc6:	b958      	cbnz	r0, 8002ce0 <HAL_InitTick+0x38>
 8002cc8:	2d0f      	cmp	r5, #15
 8002cca:	d809      	bhi.n	8002ce0 <HAL_InitTick+0x38>
 8002ccc:	4602      	mov	r2, r0
 8002cce:	4629      	mov	r1, r5
 8002cd0:	f04f 30ff 	mov.w	r0, #4294967295
 8002cd4:	f000 fa70 	bl	80031b8 <HAL_NVIC_SetPriority>
 8002cd8:	4b04      	ldr	r3, [pc, #16]	; (8002cec <HAL_InitTick+0x44>)
 8002cda:	4620      	mov	r0, r4
 8002cdc:	601d      	str	r5, [r3, #0]
 8002cde:	bd38      	pop	{r3, r4, r5, pc}
 8002ce0:	2001      	movs	r0, #1
 8002ce2:	e7fc      	b.n	8002cde <HAL_InitTick+0x36>
 8002ce4:	20000004 	.word	0x20000004
 8002ce8:	20000008 	.word	0x20000008
 8002cec:	2000000c 	.word	0x2000000c

08002cf0 <HAL_Init>:
 8002cf0:	b508      	push	{r3, lr}
 8002cf2:	4b0b      	ldr	r3, [pc, #44]	; (8002d20 <HAL_Init+0x30>)
 8002cf4:	681a      	ldr	r2, [r3, #0]
 8002cf6:	f442 7200 	orr.w	r2, r2, #512	; 0x200
 8002cfa:	601a      	str	r2, [r3, #0]
 8002cfc:	681a      	ldr	r2, [r3, #0]
 8002cfe:	f442 6280 	orr.w	r2, r2, #1024	; 0x400
 8002d02:	601a      	str	r2, [r3, #0]
 8002d04:	681a      	ldr	r2, [r3, #0]
 8002d06:	f442 7280 	orr.w	r2, r2, #256	; 0x100
 8002d0a:	601a      	str	r2, [r3, #0]
 8002d0c:	2003      	movs	r0, #3
 8002d0e:	f000 fa41 	bl	8003194 <HAL_NVIC_SetPriorityGrouping>
 8002d12:	200f      	movs	r0, #15
 8002d14:	f7ff ffc8 	bl	8002ca8 <HAL_InitTick>
 8002d18:	f7ff fdd2 	bl	80028c0 <HAL_MspInit>
 8002d1c:	2000      	movs	r0, #0
 8002d1e:	bd08      	pop	{r3, pc}
 8002d20:	40023c00 	.word	0x40023c00

08002d24 <HAL_IncTick>:
 8002d24:	4a03      	ldr	r2, [pc, #12]	; (8002d34 <HAL_IncTick+0x10>)
 8002d26:	4b04      	ldr	r3, [pc, #16]	; (8002d38 <HAL_IncTick+0x14>)
 8002d28:	6811      	ldr	r1, [r2, #0]
 8002d2a:	781b      	ldrb	r3, [r3, #0]
 8002d2c:	440b      	add	r3, r1
 8002d2e:	6013      	str	r3, [r2, #0]
 8002d30:	4770      	bx	lr
 8002d32:	bf00      	nop
 8002d34:	200050fc 	.word	0x200050fc
 8002d38:	20000008 	.word	0x20000008

08002d3c <HAL_GetTick>:
 8002d3c:	4b01      	ldr	r3, [pc, #4]	; (8002d44 <HAL_GetTick+0x8>)
 8002d3e:	6818      	ldr	r0, [r3, #0]
 8002d40:	4770      	bx	lr
 8002d42:	bf00      	nop
 8002d44:	200050fc 	.word	0x200050fc

08002d48 <HAL_Delay>:
 8002d48:	b538      	push	{r3, r4, r5, lr}
 8002d4a:	4604      	mov	r4, r0
 8002d4c:	f7ff fff6 	bl	8002d3c <HAL_GetTick>
 8002d50:	1c63      	adds	r3, r4, #1
 8002d52:	bf1c      	itt	ne
 8002d54:	4b05      	ldrne	r3, [pc, #20]	; (8002d6c <HAL_Delay+0x24>)
 8002d56:	781b      	ldrbne	r3, [r3, #0]
 8002d58:	4605      	mov	r5, r0
 8002d5a:	bf18      	it	ne
 8002d5c:	18e4      	addne	r4, r4, r3
 8002d5e:	f7ff ffed 	bl	8002d3c <HAL_GetTick>
 8002d62:	1b43      	subs	r3, r0, r5
 8002d64:	42a3      	cmp	r3, r4
 8002d66:	d3fa      	bcc.n	8002d5e <HAL_Delay+0x16>
 8002d68:	bd38      	pop	{r3, r4, r5, pc}
 8002d6a:	bf00      	nop
 8002d6c:	20000008 	.word	0x20000008

08002d70 <HAL_ADC_Init>:
 8002d70:	b538      	push	{r3, r4, r5, lr}
 8002d72:	4604      	mov	r4, r0
 8002d74:	2800      	cmp	r0, #0
 8002d76:	f000 809b 	beq.w	8002eb0 <HAL_ADC_Init+0x140>
 8002d7a:	6c05      	ldr	r5, [r0, #64]	; 0x40
 8002d7c:	b925      	cbnz	r5, 8002d88 <HAL_ADC_Init+0x18>
 8002d7e:	f7ff fdbf 	bl	8002900 <HAL_ADC_MspInit>
 8002d82:	6465      	str	r5, [r4, #68]	; 0x44
 8002d84:	f884 503c 	strb.w	r5, [r4, #60]	; 0x3c
 8002d88:	6c23      	ldr	r3, [r4, #64]	; 0x40
 8002d8a:	06db      	lsls	r3, r3, #27
 8002d8c:	f100 808e 	bmi.w	8002eac <HAL_ADC_Init+0x13c>
 8002d90:	6c23      	ldr	r3, [r4, #64]	; 0x40
 8002d92:	f423 5388 	bic.w	r3, r3, #4352	; 0x1100
 8002d96:	f023 0302 	bic.w	r3, r3, #2
 8002d9a:	f043 0302 	orr.w	r3, r3, #2
 8002d9e:	6423      	str	r3, [r4, #64]	; 0x40
 8002da0:	4b44      	ldr	r3, [pc, #272]	; (8002eb4 <HAL_ADC_Init+0x144>)
 8002da2:	685a      	ldr	r2, [r3, #4]
 8002da4:	f422 3240 	bic.w	r2, r2, #196608	; 0x30000
 8002da8:	605a      	str	r2, [r3, #4]
 8002daa:	685a      	ldr	r2, [r3, #4]
 8002dac:	6861      	ldr	r1, [r4, #4]
 8002dae:	430a      	orrs	r2, r1
 8002db0:	605a      	str	r2, [r3, #4]
 8002db2:	6823      	ldr	r3, [r4, #0]
 8002db4:	6921      	ldr	r1, [r4, #16]
 8002db6:	685a      	ldr	r2, [r3, #4]
 8002db8:	f422 7280 	bic.w	r2, r2, #256	; 0x100
 8002dbc:	605a      	str	r2, [r3, #4]
 8002dbe:	685a      	ldr	r2, [r3, #4]
 8002dc0:	ea42 2201 	orr.w	r2, r2, r1, lsl #8
 8002dc4:	605a      	str	r2, [r3, #4]
 8002dc6:	685a      	ldr	r2, [r3, #4]
 8002dc8:	68a1      	ldr	r1, [r4, #8]
 8002dca:	f022 7240 	bic.w	r2, r2, #50331648	; 0x3000000
 8002dce:	605a      	str	r2, [r3, #4]
 8002dd0:	685a      	ldr	r2, [r3, #4]
 8002dd2:	430a      	orrs	r2, r1
 8002dd4:	605a      	str	r2, [r3, #4]
 8002dd6:	689a      	ldr	r2, [r3, #8]
 8002dd8:	68e1      	ldr	r1, [r4, #12]
 8002dda:	f422 6200 	bic.w	r2, r2, #2048	; 0x800
 8002dde:	609a      	str	r2, [r3, #8]
 8002de0:	689a      	ldr	r2, [r3, #8]
 8002de2:	430a      	orrs	r2, r1
 8002de4:	609a      	str	r2, [r3, #8]
 8002de6:	4934      	ldr	r1, [pc, #208]	; (8002eb8 <HAL_ADC_Init+0x148>)
 8002de8:	6aa2      	ldr	r2, [r4, #40]	; 0x28
 8002dea:	428a      	cmp	r2, r1
 8002dec:	d052      	beq.n	8002e94 <HAL_ADC_Init+0x124>
 8002dee:	6899      	ldr	r1, [r3, #8]
 8002df0:	f021 6170 	bic.w	r1, r1, #251658240	; 0xf000000
 8002df4:	6099      	str	r1, [r3, #8]
 8002df6:	6899      	ldr	r1, [r3, #8]
 8002df8:	430a      	orrs	r2, r1
 8002dfa:	609a      	str	r2, [r3, #8]
 8002dfc:	689a      	ldr	r2, [r3, #8]
 8002dfe:	6ae1      	ldr	r1, [r4, #44]	; 0x2c
 8002e00:	f022 5240 	bic.w	r2, r2, #805306368	; 0x30000000
 8002e04:	609a      	str	r2, [r3, #8]
 8002e06:	689a      	ldr	r2, [r3, #8]
 8002e08:	430a      	orrs	r2, r1
 8002e0a:	609a      	str	r2, [r3, #8]
 8002e0c:	689a      	ldr	r2, [r3, #8]
 8002e0e:	f022 0202 	bic.w	r2, r2, #2
 8002e12:	609a      	str	r2, [r3, #8]
 8002e14:	689a      	ldr	r2, [r3, #8]
 8002e16:	7e21      	ldrb	r1, [r4, #24]
 8002e18:	ea42 0241 	orr.w	r2, r2, r1, lsl #1
 8002e1c:	609a      	str	r2, [r3, #8]
 8002e1e:	f894 2020 	ldrb.w	r2, [r4, #32]
 8002e22:	2a00      	cmp	r2, #0
 8002e24:	d03e      	beq.n	8002ea4 <HAL_ADC_Init+0x134>
 8002e26:	685a      	ldr	r2, [r3, #4]
 8002e28:	6a61      	ldr	r1, [r4, #36]	; 0x24
 8002e2a:	f442 6200 	orr.w	r2, r2, #2048	; 0x800
 8002e2e:	605a      	str	r2, [r3, #4]
 8002e30:	685a      	ldr	r2, [r3, #4]
 8002e32:	f422 4260 	bic.w	r2, r2, #57344	; 0xe000
 8002e36:	605a      	str	r2, [r3, #4]
 8002e38:	685a      	ldr	r2, [r3, #4]
 8002e3a:	3901      	subs	r1, #1
 8002e3c:	ea42 3241 	orr.w	r2, r2, r1, lsl #13
 8002e40:	605a      	str	r2, [r3, #4]
 8002e42:	6ada      	ldr	r2, [r3, #44]	; 0x2c
 8002e44:	69e1      	ldr	r1, [r4, #28]
 8002e46:	f422 0270 	bic.w	r2, r2, #15728640	; 0xf00000
 8002e4a:	62da      	str	r2, [r3, #44]	; 0x2c
 8002e4c:	6ada      	ldr	r2, [r3, #44]	; 0x2c
 8002e4e:	3901      	subs	r1, #1
 8002e50:	ea42 5201 	orr.w	r2, r2, r1, lsl #20
 8002e54:	62da      	str	r2, [r3, #44]	; 0x2c
 8002e56:	689a      	ldr	r2, [r3, #8]
 8002e58:	f422 7200 	bic.w	r2, r2, #512	; 0x200
 8002e5c:	609a      	str	r2, [r3, #8]
 8002e5e:	689a      	ldr	r2, [r3, #8]
 8002e60:	f894 1030 	ldrb.w	r1, [r4, #48]	; 0x30
 8002e64:	ea42 2241 	orr.w	r2, r2, r1, lsl #9
 8002e68:	609a      	str	r2, [r3, #8]
 8002e6a:	689a      	ldr	r2, [r3, #8]
 8002e6c:	6961      	ldr	r1, [r4, #20]
 8002e6e:	f422 6280 	bic.w	r2, r2, #1024	; 0x400
 8002e72:	609a      	str	r2, [r3, #8]
 8002e74:	689a      	ldr	r2, [r3, #8]
 8002e76:	2000      	movs	r0, #0
 8002e78:	ea42 2281 	orr.w	r2, r2, r1, lsl #10
 8002e7c:	609a      	str	r2, [r3, #8]
 8002e7e:	6460      	str	r0, [r4, #68]	; 0x44
 8002e80:	6c23      	ldr	r3, [r4, #64]	; 0x40
 8002e82:	f023 0303 	bic.w	r3, r3, #3
 8002e86:	f043 0301 	orr.w	r3, r3, #1
 8002e8a:	6423      	str	r3, [r4, #64]	; 0x40
 8002e8c:	2300      	movs	r3, #0
 8002e8e:	f884 303c 	strb.w	r3, [r4, #60]	; 0x3c
 8002e92:	bd38      	pop	{r3, r4, r5, pc}
 8002e94:	689a      	ldr	r2, [r3, #8]
 8002e96:	f022 6270 	bic.w	r2, r2, #251658240	; 0xf000000
 8002e9a:	609a      	str	r2, [r3, #8]
 8002e9c:	689a      	ldr	r2, [r3, #8]
 8002e9e:	f022 5240 	bic.w	r2, r2, #805306368	; 0x30000000
 8002ea2:	e7b2      	b.n	8002e0a <HAL_ADC_Init+0x9a>
 8002ea4:	685a      	ldr	r2, [r3, #4]
 8002ea6:	f422 6200 	bic.w	r2, r2, #2048	; 0x800
 8002eaa:	e7c9      	b.n	8002e40 <HAL_ADC_Init+0xd0>
 8002eac:	2001      	movs	r0, #1
 8002eae:	e7ed      	b.n	8002e8c <HAL_ADC_Init+0x11c>
 8002eb0:	2001      	movs	r0, #1
 8002eb2:	e7ee      	b.n	8002e92 <HAL_ADC_Init+0x122>
 8002eb4:	40012300 	.word	0x40012300
 8002eb8:	0f000001 	.word	0x0f000001

08002ebc <HAL_ADC_Start>:
 8002ebc:	b513      	push	{r0, r1, r4, lr}
 8002ebe:	2300      	movs	r3, #0
 8002ec0:	9301      	str	r3, [sp, #4]
 8002ec2:	f890 303c 	ldrb.w	r3, [r0, #60]	; 0x3c
 8002ec6:	2b01      	cmp	r3, #1
 8002ec8:	d06c      	beq.n	8002fa4 <HAL_ADC_Start+0xe8>
 8002eca:	2301      	movs	r3, #1
 8002ecc:	6802      	ldr	r2, [r0, #0]
 8002ece:	f880 303c 	strb.w	r3, [r0, #60]	; 0x3c
 8002ed2:	6893      	ldr	r3, [r2, #8]
 8002ed4:	07d9      	lsls	r1, r3, #31
 8002ed6:	d50c      	bpl.n	8002ef2 <HAL_ADC_Start+0x36>
 8002ed8:	6893      	ldr	r3, [r2, #8]
 8002eda:	f013 0301 	ands.w	r3, r3, #1
 8002ede:	d11a      	bne.n	8002f16 <HAL_ADC_Start+0x5a>
 8002ee0:	6c02      	ldr	r2, [r0, #64]	; 0x40
 8002ee2:	f042 0210 	orr.w	r2, r2, #16
 8002ee6:	6402      	str	r2, [r0, #64]	; 0x40
 8002ee8:	6c42      	ldr	r2, [r0, #68]	; 0x44
 8002eea:	f042 0201 	orr.w	r2, r2, #1
 8002eee:	6442      	str	r2, [r0, #68]	; 0x44
 8002ef0:	e056      	b.n	8002fa0 <HAL_ADC_Start+0xe4>
 8002ef2:	6893      	ldr	r3, [r2, #8]
 8002ef4:	492d      	ldr	r1, [pc, #180]	; (8002fac <HAL_ADC_Start+0xf0>)
 8002ef6:	f043 0301 	orr.w	r3, r3, #1
 8002efa:	6093      	str	r3, [r2, #8]
 8002efc:	4b2c      	ldr	r3, [pc, #176]	; (8002fb0 <HAL_ADC_Start+0xf4>)
 8002efe:	681b      	ldr	r3, [r3, #0]
 8002f00:	fbb3 f3f1 	udiv	r3, r3, r1
 8002f04:	eb03 0343 	add.w	r3, r3, r3, lsl #1
 8002f08:	9301      	str	r3, [sp, #4]
 8002f0a:	9b01      	ldr	r3, [sp, #4]
 8002f0c:	2b00      	cmp	r3, #0
 8002f0e:	d0e3      	beq.n	8002ed8 <HAL_ADC_Start+0x1c>
 8002f10:	9b01      	ldr	r3, [sp, #4]
 8002f12:	3b01      	subs	r3, #1
 8002f14:	e7f8      	b.n	8002f08 <HAL_ADC_Start+0x4c>
 8002f16:	6c03      	ldr	r3, [r0, #64]	; 0x40
 8002f18:	4c26      	ldr	r4, [pc, #152]	; (8002fb4 <HAL_ADC_Start+0xf8>)
 8002f1a:	f423 63e0 	bic.w	r3, r3, #1792	; 0x700
 8002f1e:	f023 0301 	bic.w	r3, r3, #1
 8002f22:	f443 7380 	orr.w	r3, r3, #256	; 0x100
 8002f26:	6403      	str	r3, [r0, #64]	; 0x40
 8002f28:	6853      	ldr	r3, [r2, #4]
 8002f2a:	055b      	lsls	r3, r3, #21
 8002f2c:	bf41      	itttt	mi
 8002f2e:	6c03      	ldrmi	r3, [r0, #64]	; 0x40
 8002f30:	f423 5340 	bicmi.w	r3, r3, #12288	; 0x3000
 8002f34:	f443 5380 	orrmi.w	r3, r3, #4096	; 0x1000
 8002f38:	6403      	strmi	r3, [r0, #64]	; 0x40
 8002f3a:	6c03      	ldr	r3, [r0, #64]	; 0x40
 8002f3c:	f413 5380 	ands.w	r3, r3, #4096	; 0x1000
 8002f40:	bf1c      	itt	ne
 8002f42:	6c43      	ldrne	r3, [r0, #68]	; 0x44
 8002f44:	f023 0306 	bicne.w	r3, r3, #6
 8002f48:	6443      	str	r3, [r0, #68]	; 0x44
 8002f4a:	f06f 0122 	mvn.w	r1, #34	; 0x22
 8002f4e:	2300      	movs	r3, #0
 8002f50:	f880 303c 	strb.w	r3, [r0, #60]	; 0x3c
 8002f54:	6011      	str	r1, [r2, #0]
 8002f56:	4918      	ldr	r1, [pc, #96]	; (8002fb8 <HAL_ADC_Start+0xfc>)
 8002f58:	6848      	ldr	r0, [r1, #4]
 8002f5a:	f010 001f 	ands.w	r0, r0, #31
 8002f5e:	d119      	bne.n	8002f94 <HAL_ADC_Start+0xd8>
 8002f60:	42a2      	cmp	r2, r4
 8002f62:	d006      	beq.n	8002f72 <HAL_ADC_Start+0xb6>
 8002f64:	4b15      	ldr	r3, [pc, #84]	; (8002fbc <HAL_ADC_Start+0x100>)
 8002f66:	429a      	cmp	r2, r3
 8002f68:	d10d      	bne.n	8002f86 <HAL_ADC_Start+0xca>
 8002f6a:	684b      	ldr	r3, [r1, #4]
 8002f6c:	f013 0f1f 	tst.w	r3, #31
 8002f70:	d107      	bne.n	8002f82 <HAL_ADC_Start+0xc6>
 8002f72:	6890      	ldr	r0, [r2, #8]
 8002f74:	f010 5040 	ands.w	r0, r0, #805306368	; 0x30000000
 8002f78:	d116      	bne.n	8002fa8 <HAL_ADC_Start+0xec>
 8002f7a:	6893      	ldr	r3, [r2, #8]
 8002f7c:	f043 4380 	orr.w	r3, r3, #1073741824	; 0x40000000
 8002f80:	6093      	str	r3, [r2, #8]
 8002f82:	b002      	add	sp, #8
 8002f84:	bd10      	pop	{r4, pc}
 8002f86:	4b0e      	ldr	r3, [pc, #56]	; (8002fc0 <HAL_ADC_Start+0x104>)
 8002f88:	429a      	cmp	r2, r3
 8002f8a:	d1fa      	bne.n	8002f82 <HAL_ADC_Start+0xc6>
 8002f8c:	684b      	ldr	r3, [r1, #4]
 8002f8e:	f013 0f10 	tst.w	r3, #16
 8002f92:	e7ed      	b.n	8002f70 <HAL_ADC_Start+0xb4>
 8002f94:	42a2      	cmp	r2, r4
 8002f96:	d107      	bne.n	8002fa8 <HAL_ADC_Start+0xec>
 8002f98:	6890      	ldr	r0, [r2, #8]
 8002f9a:	f010 5040 	ands.w	r0, r0, #805306368	; 0x30000000
 8002f9e:	d0ec      	beq.n	8002f7a <HAL_ADC_Start+0xbe>
 8002fa0:	4618      	mov	r0, r3
 8002fa2:	e7ee      	b.n	8002f82 <HAL_ADC_Start+0xc6>
 8002fa4:	2002      	movs	r0, #2
 8002fa6:	e7ec      	b.n	8002f82 <HAL_ADC_Start+0xc6>
 8002fa8:	2000      	movs	r0, #0
 8002faa:	e7ea      	b.n	8002f82 <HAL_ADC_Start+0xc6>
 8002fac:	000f4240 	.word	0x000f4240
 8002fb0:	20000004 	.word	0x20000004
 8002fb4:	40012000 	.word	0x40012000
 8002fb8:	40012300 	.word	0x40012300
 8002fbc:	40012100 	.word	0x40012100
 8002fc0:	40012200 	.word	0x40012200

08002fc4 <HAL_ADC_PollForConversion>:
 8002fc4:	6803      	ldr	r3, [r0, #0]
 8002fc6:	689a      	ldr	r2, [r3, #8]
 8002fc8:	0552      	lsls	r2, r2, #21
 8002fca:	b570      	push	{r4, r5, r6, lr}
 8002fcc:	4604      	mov	r4, r0
 8002fce:	460d      	mov	r5, r1
 8002fd0:	d50b      	bpl.n	8002fea <HAL_ADC_PollForConversion+0x26>
 8002fd2:	689b      	ldr	r3, [r3, #8]
 8002fd4:	05de      	lsls	r6, r3, #23
 8002fd6:	d508      	bpl.n	8002fea <HAL_ADC_PollForConversion+0x26>
 8002fd8:	6c03      	ldr	r3, [r0, #64]	; 0x40
 8002fda:	f043 0320 	orr.w	r3, r3, #32
 8002fde:	6403      	str	r3, [r0, #64]	; 0x40
 8002fe0:	2300      	movs	r3, #0
 8002fe2:	f880 303c 	strb.w	r3, [r0, #60]	; 0x3c
 8002fe6:	2001      	movs	r0, #1
 8002fe8:	bd70      	pop	{r4, r5, r6, pc}
 8002fea:	f7ff fea7 	bl	8002d3c <HAL_GetTick>
 8002fee:	4606      	mov	r6, r0
 8002ff0:	6823      	ldr	r3, [r4, #0]
 8002ff2:	681a      	ldr	r2, [r3, #0]
 8002ff4:	0791      	lsls	r1, r2, #30
 8002ff6:	d50c      	bpl.n	8003012 <HAL_ADC_PollForConversion+0x4e>
 8002ff8:	f06f 0212 	mvn.w	r2, #18
 8002ffc:	601a      	str	r2, [r3, #0]
 8002ffe:	6c22      	ldr	r2, [r4, #64]	; 0x40
 8003000:	f442 7200 	orr.w	r2, r2, #512	; 0x200
 8003004:	6422      	str	r2, [r4, #64]	; 0x40
 8003006:	689a      	ldr	r2, [r3, #8]
 8003008:	f012 5f40 	tst.w	r2, #805306368	; 0x30000000
 800300c:	d017      	beq.n	800303e <HAL_ADC_PollForConversion+0x7a>
 800300e:	2000      	movs	r0, #0
 8003010:	e7ea      	b.n	8002fe8 <HAL_ADC_PollForConversion+0x24>
 8003012:	1c68      	adds	r0, r5, #1
 8003014:	d0ed      	beq.n	8002ff2 <HAL_ADC_PollForConversion+0x2e>
 8003016:	b965      	cbnz	r5, 8003032 <HAL_ADC_PollForConversion+0x6e>
 8003018:	6823      	ldr	r3, [r4, #0]
 800301a:	681b      	ldr	r3, [r3, #0]
 800301c:	f013 0302 	ands.w	r3, r3, #2
 8003020:	d1e6      	bne.n	8002ff0 <HAL_ADC_PollForConversion+0x2c>
 8003022:	6c22      	ldr	r2, [r4, #64]	; 0x40
 8003024:	f884 303c 	strb.w	r3, [r4, #60]	; 0x3c
 8003028:	f042 0204 	orr.w	r2, r2, #4
 800302c:	6422      	str	r2, [r4, #64]	; 0x40
 800302e:	2003      	movs	r0, #3
 8003030:	e7da      	b.n	8002fe8 <HAL_ADC_PollForConversion+0x24>
 8003032:	f7ff fe83 	bl	8002d3c <HAL_GetTick>
 8003036:	1b80      	subs	r0, r0, r6
 8003038:	42a8      	cmp	r0, r5
 800303a:	d8ed      	bhi.n	8003018 <HAL_ADC_PollForConversion+0x54>
 800303c:	e7d8      	b.n	8002ff0 <HAL_ADC_PollForConversion+0x2c>
 800303e:	7e20      	ldrb	r0, [r4, #24]
 8003040:	2800      	cmp	r0, #0
 8003042:	d1e4      	bne.n	800300e <HAL_ADC_PollForConversion+0x4a>
 8003044:	6ada      	ldr	r2, [r3, #44]	; 0x2c
 8003046:	f412 0f70 	tst.w	r2, #15728640	; 0xf00000
 800304a:	d002      	beq.n	8003052 <HAL_ADC_PollForConversion+0x8e>
 800304c:	689b      	ldr	r3, [r3, #8]
 800304e:	055a      	lsls	r2, r3, #21
 8003050:	d4dd      	bmi.n	800300e <HAL_ADC_PollForConversion+0x4a>
 8003052:	6c23      	ldr	r3, [r4, #64]	; 0x40
 8003054:	f423 7380 	bic.w	r3, r3, #256	; 0x100
 8003058:	6423      	str	r3, [r4, #64]	; 0x40
 800305a:	6c23      	ldr	r3, [r4, #64]	; 0x40
 800305c:	04db      	lsls	r3, r3, #19
 800305e:	d4d6      	bmi.n	800300e <HAL_ADC_PollForConversion+0x4a>
 8003060:	6c23      	ldr	r3, [r4, #64]	; 0x40
 8003062:	f043 0301 	orr.w	r3, r3, #1
 8003066:	6423      	str	r3, [r4, #64]	; 0x40
 8003068:	e7be      	b.n	8002fe8 <HAL_ADC_PollForConversion+0x24>

0800306a <HAL_ADC_GetValue>:
 800306a:	6803      	ldr	r3, [r0, #0]
 800306c:	6cd8      	ldr	r0, [r3, #76]	; 0x4c
 800306e:	4770      	bx	lr

08003070 <HAL_ADC_ConfigChannel>:
 8003070:	b5f7      	push	{r0, r1, r2, r4, r5, r6, r7, lr}
 8003072:	2300      	movs	r3, #0
 8003074:	9301      	str	r3, [sp, #4]
 8003076:	f890 303c 	ldrb.w	r3, [r0, #60]	; 0x3c
 800307a:	2b01      	cmp	r3, #1
 800307c:	d066      	beq.n	800314c <HAL_ADC_ConfigChannel+0xdc>
 800307e:	2301      	movs	r3, #1
 8003080:	f880 303c 	strb.w	r3, [r0, #60]	; 0x3c
 8003084:	680d      	ldr	r5, [r1, #0]
 8003086:	6803      	ldr	r3, [r0, #0]
 8003088:	688e      	ldr	r6, [r1, #8]
 800308a:	2d09      	cmp	r5, #9
 800308c:	b2ac      	uxth	r4, r5
 800308e:	d931      	bls.n	80030f4 <HAL_ADC_ConfigChannel+0x84>
 8003090:	eb04 0244 	add.w	r2, r4, r4, lsl #1
 8003094:	68df      	ldr	r7, [r3, #12]
 8003096:	3a1e      	subs	r2, #30
 8003098:	f04f 0c07 	mov.w	ip, #7
 800309c:	fa0c fc02 	lsl.w	ip, ip, r2
 80030a0:	ea27 070c 	bic.w	r7, r7, ip
 80030a4:	60df      	str	r7, [r3, #12]
 80030a6:	68df      	ldr	r7, [r3, #12]
 80030a8:	fa06 f202 	lsl.w	r2, r6, r2
 80030ac:	433a      	orrs	r2, r7
 80030ae:	60da      	str	r2, [r3, #12]
 80030b0:	6849      	ldr	r1, [r1, #4]
 80030b2:	2906      	cmp	r1, #6
 80030b4:	eb01 0281 	add.w	r2, r1, r1, lsl #2
 80030b8:	d82c      	bhi.n	8003114 <HAL_ADC_ConfigChannel+0xa4>
 80030ba:	6b59      	ldr	r1, [r3, #52]	; 0x34
 80030bc:	3a05      	subs	r2, #5
 80030be:	261f      	movs	r6, #31
 80030c0:	4096      	lsls	r6, r2
 80030c2:	ea21 0106 	bic.w	r1, r1, r6
 80030c6:	6359      	str	r1, [r3, #52]	; 0x34
 80030c8:	6b59      	ldr	r1, [r3, #52]	; 0x34
 80030ca:	fa04 f202 	lsl.w	r2, r4, r2
 80030ce:	430a      	orrs	r2, r1
 80030d0:	635a      	str	r2, [r3, #52]	; 0x34
 80030d2:	4a2c      	ldr	r2, [pc, #176]	; (8003184 <HAL_ADC_ConfigChannel+0x114>)
 80030d4:	4293      	cmp	r3, r2
 80030d6:	d107      	bne.n	80030e8 <HAL_ADC_ConfigChannel+0x78>
 80030d8:	2d12      	cmp	r5, #18
 80030da:	d139      	bne.n	8003150 <HAL_ADC_ConfigChannel+0xe0>
 80030dc:	f8d2 3304 	ldr.w	r3, [r2, #772]	; 0x304
 80030e0:	f443 0380 	orr.w	r3, r3, #4194304	; 0x400000
 80030e4:	f8c2 3304 	str.w	r3, [r2, #772]	; 0x304
 80030e8:	2300      	movs	r3, #0
 80030ea:	f880 303c 	strb.w	r3, [r0, #60]	; 0x3c
 80030ee:	4618      	mov	r0, r3
 80030f0:	b003      	add	sp, #12
 80030f2:	bdf0      	pop	{r4, r5, r6, r7, pc}
 80030f4:	691f      	ldr	r7, [r3, #16]
 80030f6:	eb05 0245 	add.w	r2, r5, r5, lsl #1
 80030fa:	f04f 0c07 	mov.w	ip, #7
 80030fe:	fa0c fc02 	lsl.w	ip, ip, r2
 8003102:	ea27 070c 	bic.w	r7, r7, ip
 8003106:	611f      	str	r7, [r3, #16]
 8003108:	691f      	ldr	r7, [r3, #16]
 800310a:	fa06 f202 	lsl.w	r2, r6, r2
 800310e:	433a      	orrs	r2, r7
 8003110:	611a      	str	r2, [r3, #16]
 8003112:	e7cd      	b.n	80030b0 <HAL_ADC_ConfigChannel+0x40>
 8003114:	290c      	cmp	r1, #12
 8003116:	f04f 011f 	mov.w	r1, #31
 800311a:	d80b      	bhi.n	8003134 <HAL_ADC_ConfigChannel+0xc4>
 800311c:	6b1e      	ldr	r6, [r3, #48]	; 0x30
 800311e:	3a23      	subs	r2, #35	; 0x23
 8003120:	4091      	lsls	r1, r2
 8003122:	ea26 0101 	bic.w	r1, r6, r1
 8003126:	6319      	str	r1, [r3, #48]	; 0x30
 8003128:	6b19      	ldr	r1, [r3, #48]	; 0x30
 800312a:	fa04 f202 	lsl.w	r2, r4, r2
 800312e:	430a      	orrs	r2, r1
 8003130:	631a      	str	r2, [r3, #48]	; 0x30
 8003132:	e7ce      	b.n	80030d2 <HAL_ADC_ConfigChannel+0x62>
 8003134:	6ade      	ldr	r6, [r3, #44]	; 0x2c
 8003136:	3a41      	subs	r2, #65	; 0x41
 8003138:	4091      	lsls	r1, r2
 800313a:	ea26 0101 	bic.w	r1, r6, r1
 800313e:	62d9      	str	r1, [r3, #44]	; 0x2c
 8003140:	6ad9      	ldr	r1, [r3, #44]	; 0x2c
 8003142:	fa04 f202 	lsl.w	r2, r4, r2
 8003146:	430a      	orrs	r2, r1
 8003148:	62da      	str	r2, [r3, #44]	; 0x2c
 800314a:	e7c2      	b.n	80030d2 <HAL_ADC_ConfigChannel+0x62>
 800314c:	2002      	movs	r0, #2
 800314e:	e7cf      	b.n	80030f0 <HAL_ADC_ConfigChannel+0x80>
 8003150:	f1a5 0310 	sub.w	r3, r5, #16
 8003154:	2b01      	cmp	r3, #1
 8003156:	d8c7      	bhi.n	80030e8 <HAL_ADC_ConfigChannel+0x78>
 8003158:	4a0b      	ldr	r2, [pc, #44]	; (8003188 <HAL_ADC_ConfigChannel+0x118>)
 800315a:	6853      	ldr	r3, [r2, #4]
 800315c:	2d10      	cmp	r5, #16
 800315e:	f443 0300 	orr.w	r3, r3, #8388608	; 0x800000
 8003162:	6053      	str	r3, [r2, #4]
 8003164:	d1c0      	bne.n	80030e8 <HAL_ADC_ConfigChannel+0x78>
 8003166:	4b09      	ldr	r3, [pc, #36]	; (800318c <HAL_ADC_ConfigChannel+0x11c>)
 8003168:	4a09      	ldr	r2, [pc, #36]	; (8003190 <HAL_ADC_ConfigChannel+0x120>)
 800316a:	681b      	ldr	r3, [r3, #0]
 800316c:	fbb3 f2f2 	udiv	r2, r3, r2
 8003170:	230a      	movs	r3, #10
 8003172:	4353      	muls	r3, r2
 8003174:	9301      	str	r3, [sp, #4]
 8003176:	9b01      	ldr	r3, [sp, #4]
 8003178:	2b00      	cmp	r3, #0
 800317a:	d0b5      	beq.n	80030e8 <HAL_ADC_ConfigChannel+0x78>
 800317c:	9b01      	ldr	r3, [sp, #4]
 800317e:	3b01      	subs	r3, #1
 8003180:	e7f8      	b.n	8003174 <HAL_ADC_ConfigChannel+0x104>
 8003182:	bf00      	nop
 8003184:	40012000 	.word	0x40012000
 8003188:	40012300 	.word	0x40012300
 800318c:	20000004 	.word	0x20000004
 8003190:	000f4240 	.word	0x000f4240

08003194 <HAL_NVIC_SetPriorityGrouping>:
 8003194:	4907      	ldr	r1, [pc, #28]	; (80031b4 <HAL_NVIC_SetPriorityGrouping+0x20>)
 8003196:	68ca      	ldr	r2, [r1, #12]
 8003198:	f422 62e0 	bic.w	r2, r2, #1792	; 0x700
 800319c:	0203      	lsls	r3, r0, #8
 800319e:	0412      	lsls	r2, r2, #16
 80031a0:	f403 63e0 	and.w	r3, r3, #1792	; 0x700
 80031a4:	0c12      	lsrs	r2, r2, #16
 80031a6:	4313      	orrs	r3, r2
 80031a8:	f043 63bf 	orr.w	r3, r3, #100139008	; 0x5f80000
 80031ac:	f443 3300 	orr.w	r3, r3, #131072	; 0x20000
 80031b0:	60cb      	str	r3, [r1, #12]
 80031b2:	4770      	bx	lr
 80031b4:	e000ed00 	.word	0xe000ed00

080031b8 <HAL_NVIC_SetPriority>:
 80031b8:	4b16      	ldr	r3, [pc, #88]	; (8003214 <HAL_NVIC_SetPriority+0x5c>)
 80031ba:	b530      	push	{r4, r5, lr}
 80031bc:	68dc      	ldr	r4, [r3, #12]
 80031be:	f3c4 2402 	ubfx	r4, r4, #8, #3
 80031c2:	f1c4 0507 	rsb	r5, r4, #7
 80031c6:	1d23      	adds	r3, r4, #4
 80031c8:	2d04      	cmp	r5, #4
 80031ca:	bf28      	it	cs
 80031cc:	2504      	movcs	r5, #4
 80031ce:	2b06      	cmp	r3, #6
 80031d0:	f04f 33ff 	mov.w	r3, #4294967295
 80031d4:	bf8c      	ite	hi
 80031d6:	3c03      	subhi	r4, #3
 80031d8:	2400      	movls	r4, #0
 80031da:	fa03 f505 	lsl.w	r5, r3, r5
 80031de:	ea21 0105 	bic.w	r1, r1, r5
 80031e2:	40a3      	lsls	r3, r4
 80031e4:	ea22 0203 	bic.w	r2, r2, r3
 80031e8:	40a1      	lsls	r1, r4
 80031ea:	2800      	cmp	r0, #0
 80031ec:	ea41 0302 	orr.w	r3, r1, r2
 80031f0:	bfac      	ite	ge
 80031f2:	f100 4060 	addge.w	r0, r0, #3758096384	; 0xe0000000
 80031f6:	4a08      	ldrlt	r2, [pc, #32]	; (8003218 <HAL_NVIC_SetPriority+0x60>)
 80031f8:	ea4f 1303 	mov.w	r3, r3, lsl #4
 80031fc:	bfb8      	it	lt
 80031fe:	f000 000f 	andlt.w	r0, r0, #15
 8003202:	b2db      	uxtb	r3, r3
 8003204:	bfaa      	itet	ge
 8003206:	f500 4061 	addge.w	r0, r0, #57600	; 0xe100
 800320a:	5413      	strblt	r3, [r2, r0]
 800320c:	f880 3300 	strbge.w	r3, [r0, #768]	; 0x300
 8003210:	bd30      	pop	{r4, r5, pc}
 8003212:	bf00      	nop
 8003214:	e000ed00 	.word	0xe000ed00
 8003218:	e000ed14 	.word	0xe000ed14

0800321c <HAL_NVIC_EnableIRQ>:
 800321c:	2800      	cmp	r0, #0
 800321e:	db08      	blt.n	8003232 <HAL_NVIC_EnableIRQ+0x16>
 8003220:	0942      	lsrs	r2, r0, #5
 8003222:	2301      	movs	r3, #1
 8003224:	f000 001f 	and.w	r0, r0, #31
 8003228:	fa03 f000 	lsl.w	r0, r3, r0
 800322c:	4b01      	ldr	r3, [pc, #4]	; (8003234 <HAL_NVIC_EnableIRQ+0x18>)
 800322e:	f843 0022 	str.w	r0, [r3, r2, lsl #2]
 8003232:	4770      	bx	lr
 8003234:	e000e100 	.word	0xe000e100

08003238 <HAL_SYSTICK_Config>:
 8003238:	3801      	subs	r0, #1
 800323a:	f1b0 7f80 	cmp.w	r0, #16777216	; 0x1000000
 800323e:	d20a      	bcs.n	8003256 <HAL_SYSTICK_Config+0x1e>
 8003240:	4b06      	ldr	r3, [pc, #24]	; (800325c <HAL_SYSTICK_Config+0x24>)
 8003242:	4a07      	ldr	r2, [pc, #28]	; (8003260 <HAL_SYSTICK_Config+0x28>)
 8003244:	6058      	str	r0, [r3, #4]
 8003246:	21f0      	movs	r1, #240	; 0xf0
 8003248:	f882 1023 	strb.w	r1, [r2, #35]	; 0x23
 800324c:	2000      	movs	r0, #0
 800324e:	2207      	movs	r2, #7
 8003250:	6098      	str	r0, [r3, #8]
 8003252:	601a      	str	r2, [r3, #0]
 8003254:	4770      	bx	lr
 8003256:	2001      	movs	r0, #1
 8003258:	4770      	bx	lr
 800325a:	bf00      	nop
 800325c:	e000e010 	.word	0xe000e010
 8003260:	e000ed00 	.word	0xe000ed00

08003264 <HAL_DMA_Abort>:
 8003264:	b570      	push	{r4, r5, r6, lr}
 8003266:	4604      	mov	r4, r0
 8003268:	6d86      	ldr	r6, [r0, #88]	; 0x58
 800326a:	f7ff fd67 	bl	8002d3c <HAL_GetTick>
 800326e:	f894 3035 	ldrb.w	r3, [r4, #53]	; 0x35
 8003272:	2b02      	cmp	r3, #2
 8003274:	4605      	mov	r5, r0
 8003276:	d006      	beq.n	8003286 <HAL_DMA_Abort+0x22>
 8003278:	2380      	movs	r3, #128	; 0x80
 800327a:	6563      	str	r3, [r4, #84]	; 0x54
 800327c:	2300      	movs	r3, #0
 800327e:	f884 3034 	strb.w	r3, [r4, #52]	; 0x34
 8003282:	2001      	movs	r0, #1
 8003284:	bd70      	pop	{r4, r5, r6, pc}
 8003286:	6823      	ldr	r3, [r4, #0]
 8003288:	681a      	ldr	r2, [r3, #0]
 800328a:	f022 0216 	bic.w	r2, r2, #22
 800328e:	601a      	str	r2, [r3, #0]
 8003290:	695a      	ldr	r2, [r3, #20]
 8003292:	f022 0280 	bic.w	r2, r2, #128	; 0x80
 8003296:	615a      	str	r2, [r3, #20]
 8003298:	6c22      	ldr	r2, [r4, #64]	; 0x40
 800329a:	b90a      	cbnz	r2, 80032a0 <HAL_DMA_Abort+0x3c>
 800329c:	6ca2      	ldr	r2, [r4, #72]	; 0x48
 800329e:	b11a      	cbz	r2, 80032a8 <HAL_DMA_Abort+0x44>
 80032a0:	681a      	ldr	r2, [r3, #0]
 80032a2:	f022 0208 	bic.w	r2, r2, #8
 80032a6:	601a      	str	r2, [r3, #0]
 80032a8:	681a      	ldr	r2, [r3, #0]
 80032aa:	f022 0201 	bic.w	r2, r2, #1
 80032ae:	601a      	str	r2, [r3, #0]
 80032b0:	6823      	ldr	r3, [r4, #0]
 80032b2:	681b      	ldr	r3, [r3, #0]
 80032b4:	f013 0301 	ands.w	r3, r3, #1
 80032b8:	d10a      	bne.n	80032d0 <HAL_DMA_Abort+0x6c>
 80032ba:	6de1      	ldr	r1, [r4, #92]	; 0x5c
 80032bc:	223f      	movs	r2, #63	; 0x3f
 80032be:	408a      	lsls	r2, r1
 80032c0:	60b2      	str	r2, [r6, #8]
 80032c2:	2201      	movs	r2, #1
 80032c4:	f884 2035 	strb.w	r2, [r4, #53]	; 0x35
 80032c8:	f884 3034 	strb.w	r3, [r4, #52]	; 0x34
 80032cc:	4618      	mov	r0, r3
 80032ce:	e7d9      	b.n	8003284 <HAL_DMA_Abort+0x20>
 80032d0:	f7ff fd34 	bl	8002d3c <HAL_GetTick>
 80032d4:	1b40      	subs	r0, r0, r5
 80032d6:	2805      	cmp	r0, #5
 80032d8:	d9ea      	bls.n	80032b0 <HAL_DMA_Abort+0x4c>
 80032da:	2320      	movs	r3, #32
 80032dc:	6563      	str	r3, [r4, #84]	; 0x54
 80032de:	2003      	movs	r0, #3
 80032e0:	2300      	movs	r3, #0
 80032e2:	f884 0035 	strb.w	r0, [r4, #53]	; 0x35
 80032e6:	f884 3034 	strb.w	r3, [r4, #52]	; 0x34
 80032ea:	e7cb      	b.n	8003284 <HAL_DMA_Abort+0x20>

080032ec <HAL_DMA_Abort_IT>:
 80032ec:	f890 3035 	ldrb.w	r3, [r0, #53]	; 0x35
 80032f0:	2b02      	cmp	r3, #2
 80032f2:	d003      	beq.n	80032fc <HAL_DMA_Abort_IT+0x10>
 80032f4:	2380      	movs	r3, #128	; 0x80
 80032f6:	6543      	str	r3, [r0, #84]	; 0x54
 80032f8:	2001      	movs	r0, #1
 80032fa:	4770      	bx	lr
 80032fc:	6802      	ldr	r2, [r0, #0]
 80032fe:	2305      	movs	r3, #5
 8003300:	f880 3035 	strb.w	r3, [r0, #53]	; 0x35
 8003304:	6813      	ldr	r3, [r2, #0]
 8003306:	f023 0301 	bic.w	r3, r3, #1
 800330a:	6013      	str	r3, [r2, #0]
 800330c:	2000      	movs	r0, #0
 800330e:	4770      	bx	lr

08003310 <HAL_GPIO_Init>:
 8003310:	e92d 4ff7 	stmdb	sp!, {r0, r1, r2, r4, r5, r6, r7, r8, r9, sl, fp, lr}
 8003314:	f8df 91a8 	ldr.w	r9, [pc, #424]	; 80034c0 <HAL_GPIO_Init+0x1b0>
 8003318:	4a67      	ldr	r2, [pc, #412]	; (80034b8 <HAL_GPIO_Init+0x1a8>)
 800331a:	2300      	movs	r3, #0
 800331c:	680d      	ldr	r5, [r1, #0]
 800331e:	2401      	movs	r4, #1
 8003320:	409c      	lsls	r4, r3
 8003322:	ea04 0c05 	and.w	ip, r4, r5
 8003326:	43ac      	bics	r4, r5
 8003328:	f040 80b1 	bne.w	800348e <HAL_GPIO_Init+0x17e>
 800332c:	684d      	ldr	r5, [r1, #4]
 800332e:	f005 0403 	and.w	r4, r5, #3
 8003332:	ea4f 0843 	mov.w	r8, r3, lsl #1
 8003336:	2603      	movs	r6, #3
 8003338:	1e67      	subs	r7, r4, #1
 800333a:	fa06 f608 	lsl.w	r6, r6, r8
 800333e:	2f01      	cmp	r7, #1
 8003340:	ea6f 0606 	mvn.w	r6, r6
 8003344:	d834      	bhi.n	80033b0 <HAL_GPIO_Init+0xa0>
 8003346:	6887      	ldr	r7, [r0, #8]
 8003348:	ea07 0e06 	and.w	lr, r7, r6
 800334c:	68cf      	ldr	r7, [r1, #12]
 800334e:	fa07 f708 	lsl.w	r7, r7, r8
 8003352:	ea47 070e 	orr.w	r7, r7, lr
 8003356:	6087      	str	r7, [r0, #8]
 8003358:	6847      	ldr	r7, [r0, #4]
 800335a:	ea27 0e0c 	bic.w	lr, r7, ip
 800335e:	f3c5 1700 	ubfx	r7, r5, #4, #1
 8003362:	409f      	lsls	r7, r3
 8003364:	ea47 070e 	orr.w	r7, r7, lr
 8003368:	6047      	str	r7, [r0, #4]
 800336a:	68c7      	ldr	r7, [r0, #12]
 800336c:	ea07 0e06 	and.w	lr, r7, r6
 8003370:	688f      	ldr	r7, [r1, #8]
 8003372:	fa07 f708 	lsl.w	r7, r7, r8
 8003376:	ea47 070e 	orr.w	r7, r7, lr
 800337a:	2c02      	cmp	r4, #2
 800337c:	60c7      	str	r7, [r0, #12]
 800337e:	d119      	bne.n	80033b4 <HAL_GPIO_Init+0xa4>
 8003380:	ea4f 0ad3 	mov.w	sl, r3, lsr #3
 8003384:	eb00 0a8a 	add.w	sl, r0, sl, lsl #2
 8003388:	f003 0b07 	and.w	fp, r3, #7
 800338c:	f8da 7020 	ldr.w	r7, [sl, #32]
 8003390:	ea4f 0b8b 	mov.w	fp, fp, lsl #2
 8003394:	f04f 0e0f 	mov.w	lr, #15
 8003398:	fa0e fe0b 	lsl.w	lr, lr, fp
 800339c:	ea27 0e0e 	bic.w	lr, r7, lr
 80033a0:	690f      	ldr	r7, [r1, #16]
 80033a2:	fa07 f70b 	lsl.w	r7, r7, fp
 80033a6:	ea47 070e 	orr.w	r7, r7, lr
 80033aa:	f8ca 7020 	str.w	r7, [sl, #32]
 80033ae:	e001      	b.n	80033b4 <HAL_GPIO_Init+0xa4>
 80033b0:	2c03      	cmp	r4, #3
 80033b2:	d1da      	bne.n	800336a <HAL_GPIO_Init+0x5a>
 80033b4:	6807      	ldr	r7, [r0, #0]
 80033b6:	fa04 f408 	lsl.w	r4, r4, r8
 80033ba:	403e      	ands	r6, r7
 80033bc:	4326      	orrs	r6, r4
 80033be:	f415 3f40 	tst.w	r5, #196608	; 0x30000
 80033c2:	6006      	str	r6, [r0, #0]
 80033c4:	d063      	beq.n	800348e <HAL_GPIO_Init+0x17e>
 80033c6:	f04f 0a00 	mov.w	sl, #0
 80033ca:	f8cd a004 	str.w	sl, [sp, #4]
 80033ce:	f8d9 6044 	ldr.w	r6, [r9, #68]	; 0x44
 80033d2:	4c3a      	ldr	r4, [pc, #232]	; (80034bc <HAL_GPIO_Init+0x1ac>)
 80033d4:	f446 4680 	orr.w	r6, r6, #16384	; 0x4000
 80033d8:	f8c9 6044 	str.w	r6, [r9, #68]	; 0x44
 80033dc:	f8d9 6044 	ldr.w	r6, [r9, #68]	; 0x44
 80033e0:	f406 4680 	and.w	r6, r6, #16384	; 0x4000
 80033e4:	9601      	str	r6, [sp, #4]
 80033e6:	9e01      	ldr	r6, [sp, #4]
 80033e8:	f023 0603 	bic.w	r6, r3, #3
 80033ec:	f106 4680 	add.w	r6, r6, #1073741824	; 0x40000000
 80033f0:	f506 369c 	add.w	r6, r6, #79872	; 0x13800
 80033f4:	f003 0e03 	and.w	lr, r3, #3
 80033f8:	f8d6 8008 	ldr.w	r8, [r6, #8]
 80033fc:	ea4f 0e8e 	mov.w	lr, lr, lsl #2
 8003400:	270f      	movs	r7, #15
 8003402:	fa07 f70e 	lsl.w	r7, r7, lr
 8003406:	42a0      	cmp	r0, r4
 8003408:	ea28 0707 	bic.w	r7, r8, r7
 800340c:	d046      	beq.n	800349c <HAL_GPIO_Init+0x18c>
 800340e:	f504 6480 	add.w	r4, r4, #1024	; 0x400
 8003412:	42a0      	cmp	r0, r4
 8003414:	d044      	beq.n	80034a0 <HAL_GPIO_Init+0x190>
 8003416:	f504 6480 	add.w	r4, r4, #1024	; 0x400
 800341a:	42a0      	cmp	r0, r4
 800341c:	d042      	beq.n	80034a4 <HAL_GPIO_Init+0x194>
 800341e:	f504 6480 	add.w	r4, r4, #1024	; 0x400
 8003422:	42a0      	cmp	r0, r4
 8003424:	d040      	beq.n	80034a8 <HAL_GPIO_Init+0x198>
 8003426:	f504 6480 	add.w	r4, r4, #1024	; 0x400
 800342a:	42a0      	cmp	r0, r4
 800342c:	d03e      	beq.n	80034ac <HAL_GPIO_Init+0x19c>
 800342e:	f504 6480 	add.w	r4, r4, #1024	; 0x400
 8003432:	42a0      	cmp	r0, r4
 8003434:	d03c      	beq.n	80034b0 <HAL_GPIO_Init+0x1a0>
 8003436:	f504 6480 	add.w	r4, r4, #1024	; 0x400
 800343a:	42a0      	cmp	r0, r4
 800343c:	d03a      	beq.n	80034b4 <HAL_GPIO_Init+0x1a4>
 800343e:	f504 6480 	add.w	r4, r4, #1024	; 0x400
 8003442:	42a0      	cmp	r0, r4
 8003444:	bf0c      	ite	eq
 8003446:	2407      	moveq	r4, #7
 8003448:	2408      	movne	r4, #8
 800344a:	fa04 f40e 	lsl.w	r4, r4, lr
 800344e:	433c      	orrs	r4, r7
 8003450:	60b4      	str	r4, [r6, #8]
 8003452:	6814      	ldr	r4, [r2, #0]
 8003454:	ea6f 060c 	mvn.w	r6, ip
 8003458:	03ef      	lsls	r7, r5, #15
 800345a:	bf54      	ite	pl
 800345c:	4034      	andpl	r4, r6
 800345e:	ea4c 0404 	orrmi.w	r4, ip, r4
 8003462:	6014      	str	r4, [r2, #0]
 8003464:	6854      	ldr	r4, [r2, #4]
 8003466:	03af      	lsls	r7, r5, #14
 8003468:	bf54      	ite	pl
 800346a:	4034      	andpl	r4, r6
 800346c:	ea4c 0404 	orrmi.w	r4, ip, r4
 8003470:	6054      	str	r4, [r2, #4]
 8003472:	6894      	ldr	r4, [r2, #8]
 8003474:	02ef      	lsls	r7, r5, #11
 8003476:	bf54      	ite	pl
 8003478:	4034      	andpl	r4, r6
 800347a:	ea4c 0404 	orrmi.w	r4, ip, r4
 800347e:	6094      	str	r4, [r2, #8]
 8003480:	68d4      	ldr	r4, [r2, #12]
 8003482:	02ad      	lsls	r5, r5, #10
 8003484:	bf54      	ite	pl
 8003486:	4034      	andpl	r4, r6
 8003488:	ea4c 0404 	orrmi.w	r4, ip, r4
 800348c:	60d4      	str	r4, [r2, #12]
 800348e:	3301      	adds	r3, #1
 8003490:	2b10      	cmp	r3, #16
 8003492:	f47f af43 	bne.w	800331c <HAL_GPIO_Init+0xc>
 8003496:	b003      	add	sp, #12
 8003498:	e8bd 8ff0 	ldmia.w	sp!, {r4, r5, r6, r7, r8, r9, sl, fp, pc}
 800349c:	4654      	mov	r4, sl
 800349e:	e7d4      	b.n	800344a <HAL_GPIO_Init+0x13a>
 80034a0:	2401      	movs	r4, #1
 80034a2:	e7d2      	b.n	800344a <HAL_GPIO_Init+0x13a>
 80034a4:	2402      	movs	r4, #2
 80034a6:	e7d0      	b.n	800344a <HAL_GPIO_Init+0x13a>
 80034a8:	2403      	movs	r4, #3
 80034aa:	e7ce      	b.n	800344a <HAL_GPIO_Init+0x13a>
 80034ac:	2404      	movs	r4, #4
 80034ae:	e7cc      	b.n	800344a <HAL_GPIO_Init+0x13a>
 80034b0:	2405      	movs	r4, #5
 80034b2:	e7ca      	b.n	800344a <HAL_GPIO_Init+0x13a>
 80034b4:	2406      	movs	r4, #6
 80034b6:	e7c8      	b.n	800344a <HAL_GPIO_Init+0x13a>
 80034b8:	40013c00 	.word	0x40013c00
 80034bc:	40020000 	.word	0x40020000
 80034c0:	40023800 	.word	0x40023800

080034c4 <HAL_GPIO_WritePin>:
 80034c4:	b10a      	cbz	r2, 80034ca <HAL_GPIO_WritePin+0x6>
 80034c6:	6181      	str	r1, [r0, #24]
 80034c8:	4770      	bx	lr
 80034ca:	0409      	lsls	r1, r1, #16
 80034cc:	e7fb      	b.n	80034c6 <HAL_GPIO_WritePin+0x2>
	...

080034d0 <HAL_PWR_EnableBkUpAccess>:
 80034d0:	4b04      	ldr	r3, [pc, #16]	; (80034e4 <HAL_PWR_EnableBkUpAccess+0x14>)
 80034d2:	2201      	movs	r2, #1
 80034d4:	601a      	str	r2, [r3, #0]
 80034d6:	4b04      	ldr	r3, [pc, #16]	; (80034e8 <HAL_PWR_EnableBkUpAccess+0x18>)
 80034d8:	b082      	sub	sp, #8
 80034da:	681b      	ldr	r3, [r3, #0]
 80034dc:	9301      	str	r3, [sp, #4]
 80034de:	9b01      	ldr	r3, [sp, #4]
 80034e0:	b002      	add	sp, #8
 80034e2:	4770      	bx	lr
 80034e4:	420e0020 	.word	0x420e0020
 80034e8:	40007000 	.word	0x40007000

080034ec <HAL_PWR_DisableBkUpAccess>:
 80034ec:	4b04      	ldr	r3, [pc, #16]	; (8003500 <HAL_PWR_DisableBkUpAccess+0x14>)
 80034ee:	2200      	movs	r2, #0
 80034f0:	601a      	str	r2, [r3, #0]
 80034f2:	4b04      	ldr	r3, [pc, #16]	; (8003504 <HAL_PWR_DisableBkUpAccess+0x18>)
 80034f4:	b082      	sub	sp, #8
 80034f6:	681b      	ldr	r3, [r3, #0]
 80034f8:	9301      	str	r3, [sp, #4]
 80034fa:	9b01      	ldr	r3, [sp, #4]
 80034fc:	b002      	add	sp, #8
 80034fe:	4770      	bx	lr
 8003500:	420e0020 	.word	0x420e0020
 8003504:	40007000 	.word	0x40007000

08003508 <HAL_RCC_OscConfig>:
 8003508:	e92d 41f3 	stmdb	sp!, {r0, r1, r4, r5, r6, r7, r8, lr}
 800350c:	4604      	mov	r4, r0
 800350e:	b340      	cbz	r0, 8003562 <HAL_RCC_OscConfig+0x5a>
 8003510:	6803      	ldr	r3, [r0, #0]
 8003512:	07dd      	lsls	r5, r3, #31
 8003514:	d410      	bmi.n	8003538 <HAL_RCC_OscConfig+0x30>
 8003516:	6823      	ldr	r3, [r4, #0]
 8003518:	0798      	lsls	r0, r3, #30
 800351a:	d45e      	bmi.n	80035da <HAL_RCC_OscConfig+0xd2>
 800351c:	6823      	ldr	r3, [r4, #0]
 800351e:	071a      	lsls	r2, r3, #28
 8003520:	f100 80a0 	bmi.w	8003664 <HAL_RCC_OscConfig+0x15c>
 8003524:	6823      	ldr	r3, [r4, #0]
 8003526:	075b      	lsls	r3, r3, #29
 8003528:	f100 80be 	bmi.w	80036a8 <HAL_RCC_OscConfig+0x1a0>
 800352c:	69a0      	ldr	r0, [r4, #24]
 800352e:	2800      	cmp	r0, #0
 8003530:	f040 811f 	bne.w	8003772 <HAL_RCC_OscConfig+0x26a>
 8003534:	2000      	movs	r0, #0
 8003536:	e02b      	b.n	8003590 <HAL_RCC_OscConfig+0x88>
 8003538:	4ba6      	ldr	r3, [pc, #664]	; (80037d4 <HAL_RCC_OscConfig+0x2cc>)
 800353a:	689a      	ldr	r2, [r3, #8]
 800353c:	f002 020c 	and.w	r2, r2, #12
 8003540:	2a04      	cmp	r2, #4
 8003542:	d007      	beq.n	8003554 <HAL_RCC_OscConfig+0x4c>
 8003544:	689a      	ldr	r2, [r3, #8]
 8003546:	f002 020c 	and.w	r2, r2, #12
 800354a:	2a08      	cmp	r2, #8
 800354c:	d10b      	bne.n	8003566 <HAL_RCC_OscConfig+0x5e>
 800354e:	685a      	ldr	r2, [r3, #4]
 8003550:	0251      	lsls	r1, r2, #9
 8003552:	d508      	bpl.n	8003566 <HAL_RCC_OscConfig+0x5e>
 8003554:	4b9f      	ldr	r3, [pc, #636]	; (80037d4 <HAL_RCC_OscConfig+0x2cc>)
 8003556:	681b      	ldr	r3, [r3, #0]
 8003558:	039a      	lsls	r2, r3, #14
 800355a:	d5dc      	bpl.n	8003516 <HAL_RCC_OscConfig+0xe>
 800355c:	6863      	ldr	r3, [r4, #4]
 800355e:	2b00      	cmp	r3, #0
 8003560:	d1d9      	bne.n	8003516 <HAL_RCC_OscConfig+0xe>
 8003562:	2001      	movs	r0, #1
 8003564:	e014      	b.n	8003590 <HAL_RCC_OscConfig+0x88>
 8003566:	6862      	ldr	r2, [r4, #4]
 8003568:	f5b2 3f80 	cmp.w	r2, #65536	; 0x10000
 800356c:	d113      	bne.n	8003596 <HAL_RCC_OscConfig+0x8e>
 800356e:	681a      	ldr	r2, [r3, #0]
 8003570:	f442 3280 	orr.w	r2, r2, #65536	; 0x10000
 8003574:	601a      	str	r2, [r3, #0]
 8003576:	f7ff fbe1 	bl	8002d3c <HAL_GetTick>
 800357a:	4e96      	ldr	r6, [pc, #600]	; (80037d4 <HAL_RCC_OscConfig+0x2cc>)
 800357c:	4605      	mov	r5, r0
 800357e:	6833      	ldr	r3, [r6, #0]
 8003580:	039b      	lsls	r3, r3, #14
 8003582:	d4c8      	bmi.n	8003516 <HAL_RCC_OscConfig+0xe>
 8003584:	f7ff fbda 	bl	8002d3c <HAL_GetTick>
 8003588:	1b40      	subs	r0, r0, r5
 800358a:	2864      	cmp	r0, #100	; 0x64
 800358c:	d9f7      	bls.n	800357e <HAL_RCC_OscConfig+0x76>
 800358e:	2003      	movs	r0, #3
 8003590:	b002      	add	sp, #8
 8003592:	e8bd 81f0 	ldmia.w	sp!, {r4, r5, r6, r7, r8, pc}
 8003596:	4d8f      	ldr	r5, [pc, #572]	; (80037d4 <HAL_RCC_OscConfig+0x2cc>)
 8003598:	f5b2 2fa0 	cmp.w	r2, #327680	; 0x50000
 800359c:	682b      	ldr	r3, [r5, #0]
 800359e:	d107      	bne.n	80035b0 <HAL_RCC_OscConfig+0xa8>
 80035a0:	f443 2380 	orr.w	r3, r3, #262144	; 0x40000
 80035a4:	602b      	str	r3, [r5, #0]
 80035a6:	682b      	ldr	r3, [r5, #0]
 80035a8:	f443 3380 	orr.w	r3, r3, #65536	; 0x10000
 80035ac:	602b      	str	r3, [r5, #0]
 80035ae:	e7e2      	b.n	8003576 <HAL_RCC_OscConfig+0x6e>
 80035b0:	f423 3380 	bic.w	r3, r3, #65536	; 0x10000
 80035b4:	602b      	str	r3, [r5, #0]
 80035b6:	682b      	ldr	r3, [r5, #0]
 80035b8:	f423 2380 	bic.w	r3, r3, #262144	; 0x40000
 80035bc:	602b      	str	r3, [r5, #0]
 80035be:	2a00      	cmp	r2, #0
 80035c0:	d1d9      	bne.n	8003576 <HAL_RCC_OscConfig+0x6e>
 80035c2:	f7ff fbbb 	bl	8002d3c <HAL_GetTick>
 80035c6:	4606      	mov	r6, r0
 80035c8:	682b      	ldr	r3, [r5, #0]
 80035ca:	039f      	lsls	r7, r3, #14
 80035cc:	d5a3      	bpl.n	8003516 <HAL_RCC_OscConfig+0xe>
 80035ce:	f7ff fbb5 	bl	8002d3c <HAL_GetTick>
 80035d2:	1b80      	subs	r0, r0, r6
 80035d4:	2864      	cmp	r0, #100	; 0x64
 80035d6:	d9f7      	bls.n	80035c8 <HAL_RCC_OscConfig+0xc0>
 80035d8:	e7d9      	b.n	800358e <HAL_RCC_OscConfig+0x86>
 80035da:	4b7e      	ldr	r3, [pc, #504]	; (80037d4 <HAL_RCC_OscConfig+0x2cc>)
 80035dc:	689a      	ldr	r2, [r3, #8]
 80035de:	f012 0f0c 	tst.w	r2, #12
 80035e2:	d007      	beq.n	80035f4 <HAL_RCC_OscConfig+0xec>
 80035e4:	689a      	ldr	r2, [r3, #8]
 80035e6:	f002 020c 	and.w	r2, r2, #12
 80035ea:	2a08      	cmp	r2, #8
 80035ec:	d111      	bne.n	8003612 <HAL_RCC_OscConfig+0x10a>
 80035ee:	685b      	ldr	r3, [r3, #4]
 80035f0:	025e      	lsls	r6, r3, #9
 80035f2:	d40e      	bmi.n	8003612 <HAL_RCC_OscConfig+0x10a>
 80035f4:	4b77      	ldr	r3, [pc, #476]	; (80037d4 <HAL_RCC_OscConfig+0x2cc>)
 80035f6:	681a      	ldr	r2, [r3, #0]
 80035f8:	0795      	lsls	r5, r2, #30
 80035fa:	d502      	bpl.n	8003602 <HAL_RCC_OscConfig+0xfa>
 80035fc:	68e2      	ldr	r2, [r4, #12]
 80035fe:	2a01      	cmp	r2, #1
 8003600:	d1af      	bne.n	8003562 <HAL_RCC_OscConfig+0x5a>
 8003602:	681a      	ldr	r2, [r3, #0]
 8003604:	6921      	ldr	r1, [r4, #16]
 8003606:	f022 02f8 	bic.w	r2, r2, #248	; 0xf8
 800360a:	ea42 02c1 	orr.w	r2, r2, r1, lsl #3
 800360e:	601a      	str	r2, [r3, #0]
 8003610:	e784      	b.n	800351c <HAL_RCC_OscConfig+0x14>
 8003612:	68e2      	ldr	r2, [r4, #12]
 8003614:	4b70      	ldr	r3, [pc, #448]	; (80037d8 <HAL_RCC_OscConfig+0x2d0>)
 8003616:	b1b2      	cbz	r2, 8003646 <HAL_RCC_OscConfig+0x13e>
 8003618:	2201      	movs	r2, #1
 800361a:	601a      	str	r2, [r3, #0]
 800361c:	f7ff fb8e 	bl	8002d3c <HAL_GetTick>
 8003620:	4d6c      	ldr	r5, [pc, #432]	; (80037d4 <HAL_RCC_OscConfig+0x2cc>)
 8003622:	4606      	mov	r6, r0
 8003624:	682b      	ldr	r3, [r5, #0]
 8003626:	0798      	lsls	r0, r3, #30
 8003628:	d507      	bpl.n	800363a <HAL_RCC_OscConfig+0x132>
 800362a:	682b      	ldr	r3, [r5, #0]
 800362c:	6922      	ldr	r2, [r4, #16]
 800362e:	f023 03f8 	bic.w	r3, r3, #248	; 0xf8
 8003632:	ea43 03c2 	orr.w	r3, r3, r2, lsl #3
 8003636:	602b      	str	r3, [r5, #0]
 8003638:	e770      	b.n	800351c <HAL_RCC_OscConfig+0x14>
 800363a:	f7ff fb7f 	bl	8002d3c <HAL_GetTick>
 800363e:	1b80      	subs	r0, r0, r6
 8003640:	2802      	cmp	r0, #2
 8003642:	d9ef      	bls.n	8003624 <HAL_RCC_OscConfig+0x11c>
 8003644:	e7a3      	b.n	800358e <HAL_RCC_OscConfig+0x86>
 8003646:	601a      	str	r2, [r3, #0]
 8003648:	f7ff fb78 	bl	8002d3c <HAL_GetTick>
 800364c:	4e61      	ldr	r6, [pc, #388]	; (80037d4 <HAL_RCC_OscConfig+0x2cc>)
 800364e:	4605      	mov	r5, r0
 8003650:	6833      	ldr	r3, [r6, #0]
 8003652:	0799      	lsls	r1, r3, #30
 8003654:	f57f af62 	bpl.w	800351c <HAL_RCC_OscConfig+0x14>
 8003658:	f7ff fb70 	bl	8002d3c <HAL_GetTick>
 800365c:	1b40      	subs	r0, r0, r5
 800365e:	2802      	cmp	r0, #2
 8003660:	d9f6      	bls.n	8003650 <HAL_RCC_OscConfig+0x148>
 8003662:	e794      	b.n	800358e <HAL_RCC_OscConfig+0x86>
 8003664:	6962      	ldr	r2, [r4, #20]
 8003666:	4b5d      	ldr	r3, [pc, #372]	; (80037dc <HAL_RCC_OscConfig+0x2d4>)
 8003668:	b17a      	cbz	r2, 800368a <HAL_RCC_OscConfig+0x182>
 800366a:	2201      	movs	r2, #1
 800366c:	601a      	str	r2, [r3, #0]
 800366e:	f7ff fb65 	bl	8002d3c <HAL_GetTick>
 8003672:	4e58      	ldr	r6, [pc, #352]	; (80037d4 <HAL_RCC_OscConfig+0x2cc>)
 8003674:	4605      	mov	r5, r0
 8003676:	6f73      	ldr	r3, [r6, #116]	; 0x74
 8003678:	079f      	lsls	r7, r3, #30
 800367a:	f53f af53 	bmi.w	8003524 <HAL_RCC_OscConfig+0x1c>
 800367e:	f7ff fb5d 	bl	8002d3c <HAL_GetTick>
 8003682:	1b40      	subs	r0, r0, r5
 8003684:	2802      	cmp	r0, #2
 8003686:	d9f6      	bls.n	8003676 <HAL_RCC_OscConfig+0x16e>
 8003688:	e781      	b.n	800358e <HAL_RCC_OscConfig+0x86>
 800368a:	601a      	str	r2, [r3, #0]
 800368c:	f7ff fb56 	bl	8002d3c <HAL_GetTick>
 8003690:	4e50      	ldr	r6, [pc, #320]	; (80037d4 <HAL_RCC_OscConfig+0x2cc>)
 8003692:	4605      	mov	r5, r0
 8003694:	6f73      	ldr	r3, [r6, #116]	; 0x74
 8003696:	0798      	lsls	r0, r3, #30
 8003698:	f57f af44 	bpl.w	8003524 <HAL_RCC_OscConfig+0x1c>
 800369c:	f7ff fb4e 	bl	8002d3c <HAL_GetTick>
 80036a0:	1b40      	subs	r0, r0, r5
 80036a2:	2802      	cmp	r0, #2
 80036a4:	d9f6      	bls.n	8003694 <HAL_RCC_OscConfig+0x18c>
 80036a6:	e772      	b.n	800358e <HAL_RCC_OscConfig+0x86>
 80036a8:	4b4a      	ldr	r3, [pc, #296]	; (80037d4 <HAL_RCC_OscConfig+0x2cc>)
 80036aa:	6c1a      	ldr	r2, [r3, #64]	; 0x40
 80036ac:	f012 5280 	ands.w	r2, r2, #268435456	; 0x10000000
 80036b0:	d128      	bne.n	8003704 <HAL_RCC_OscConfig+0x1fc>
 80036b2:	9201      	str	r2, [sp, #4]
 80036b4:	6c1a      	ldr	r2, [r3, #64]	; 0x40
 80036b6:	f042 5280 	orr.w	r2, r2, #268435456	; 0x10000000
 80036ba:	641a      	str	r2, [r3, #64]	; 0x40
 80036bc:	6c1b      	ldr	r3, [r3, #64]	; 0x40
 80036be:	f003 5380 	and.w	r3, r3, #268435456	; 0x10000000
 80036c2:	9301      	str	r3, [sp, #4]
 80036c4:	9b01      	ldr	r3, [sp, #4]
 80036c6:	2701      	movs	r7, #1
 80036c8:	4d45      	ldr	r5, [pc, #276]	; (80037e0 <HAL_RCC_OscConfig+0x2d8>)
 80036ca:	682b      	ldr	r3, [r5, #0]
 80036cc:	05d9      	lsls	r1, r3, #23
 80036ce:	d51b      	bpl.n	8003708 <HAL_RCC_OscConfig+0x200>
 80036d0:	68a3      	ldr	r3, [r4, #8]
 80036d2:	4d40      	ldr	r5, [pc, #256]	; (80037d4 <HAL_RCC_OscConfig+0x2cc>)
 80036d4:	2b01      	cmp	r3, #1
 80036d6:	d127      	bne.n	8003728 <HAL_RCC_OscConfig+0x220>
 80036d8:	6f2b      	ldr	r3, [r5, #112]	; 0x70
 80036da:	f043 0301 	orr.w	r3, r3, #1
 80036de:	672b      	str	r3, [r5, #112]	; 0x70
 80036e0:	f7ff fb2c 	bl	8002d3c <HAL_GetTick>
 80036e4:	4e3b      	ldr	r6, [pc, #236]	; (80037d4 <HAL_RCC_OscConfig+0x2cc>)
 80036e6:	4605      	mov	r5, r0
 80036e8:	f241 3888 	movw	r8, #5000	; 0x1388
 80036ec:	6f33      	ldr	r3, [r6, #112]	; 0x70
 80036ee:	079b      	lsls	r3, r3, #30
 80036f0:	d539      	bpl.n	8003766 <HAL_RCC_OscConfig+0x25e>
 80036f2:	2f00      	cmp	r7, #0
 80036f4:	f43f af1a 	beq.w	800352c <HAL_RCC_OscConfig+0x24>
 80036f8:	4a36      	ldr	r2, [pc, #216]	; (80037d4 <HAL_RCC_OscConfig+0x2cc>)
 80036fa:	6c13      	ldr	r3, [r2, #64]	; 0x40
 80036fc:	f023 5380 	bic.w	r3, r3, #268435456	; 0x10000000
 8003700:	6413      	str	r3, [r2, #64]	; 0x40
 8003702:	e713      	b.n	800352c <HAL_RCC_OscConfig+0x24>
 8003704:	2700      	movs	r7, #0
 8003706:	e7df      	b.n	80036c8 <HAL_RCC_OscConfig+0x1c0>
 8003708:	682b      	ldr	r3, [r5, #0]
 800370a:	f443 7380 	orr.w	r3, r3, #256	; 0x100
 800370e:	602b      	str	r3, [r5, #0]
 8003710:	f7ff fb14 	bl	8002d3c <HAL_GetTick>
 8003714:	4606      	mov	r6, r0
 8003716:	682b      	ldr	r3, [r5, #0]
 8003718:	05da      	lsls	r2, r3, #23
 800371a:	d4d9      	bmi.n	80036d0 <HAL_RCC_OscConfig+0x1c8>
 800371c:	f7ff fb0e 	bl	8002d3c <HAL_GetTick>
 8003720:	1b80      	subs	r0, r0, r6
 8003722:	2802      	cmp	r0, #2
 8003724:	d9f7      	bls.n	8003716 <HAL_RCC_OscConfig+0x20e>
 8003726:	e732      	b.n	800358e <HAL_RCC_OscConfig+0x86>
 8003728:	2b05      	cmp	r3, #5
 800372a:	d104      	bne.n	8003736 <HAL_RCC_OscConfig+0x22e>
 800372c:	6f2b      	ldr	r3, [r5, #112]	; 0x70
 800372e:	f043 0304 	orr.w	r3, r3, #4
 8003732:	672b      	str	r3, [r5, #112]	; 0x70
 8003734:	e7d0      	b.n	80036d8 <HAL_RCC_OscConfig+0x1d0>
 8003736:	6f2a      	ldr	r2, [r5, #112]	; 0x70
 8003738:	f022 0201 	bic.w	r2, r2, #1
 800373c:	672a      	str	r2, [r5, #112]	; 0x70
 800373e:	6f2a      	ldr	r2, [r5, #112]	; 0x70
 8003740:	f022 0204 	bic.w	r2, r2, #4
 8003744:	672a      	str	r2, [r5, #112]	; 0x70
 8003746:	2b00      	cmp	r3, #0
 8003748:	d1ca      	bne.n	80036e0 <HAL_RCC_OscConfig+0x1d8>
 800374a:	f7ff faf7 	bl	8002d3c <HAL_GetTick>
 800374e:	f241 3888 	movw	r8, #5000	; 0x1388
 8003752:	4606      	mov	r6, r0
 8003754:	6f2b      	ldr	r3, [r5, #112]	; 0x70
 8003756:	0798      	lsls	r0, r3, #30
 8003758:	d5cb      	bpl.n	80036f2 <HAL_RCC_OscConfig+0x1ea>
 800375a:	f7ff faef 	bl	8002d3c <HAL_GetTick>
 800375e:	1b80      	subs	r0, r0, r6
 8003760:	4540      	cmp	r0, r8
 8003762:	d9f7      	bls.n	8003754 <HAL_RCC_OscConfig+0x24c>
 8003764:	e713      	b.n	800358e <HAL_RCC_OscConfig+0x86>
 8003766:	f7ff fae9 	bl	8002d3c <HAL_GetTick>
 800376a:	1b40      	subs	r0, r0, r5
 800376c:	4540      	cmp	r0, r8
 800376e:	d9bd      	bls.n	80036ec <HAL_RCC_OscConfig+0x1e4>
 8003770:	e70d      	b.n	800358e <HAL_RCC_OscConfig+0x86>
 8003772:	4d18      	ldr	r5, [pc, #96]	; (80037d4 <HAL_RCC_OscConfig+0x2cc>)
 8003774:	68ab      	ldr	r3, [r5, #8]
 8003776:	f003 030c 	and.w	r3, r3, #12
 800377a:	2b08      	cmp	r3, #8
 800377c:	d047      	beq.n	800380e <HAL_RCC_OscConfig+0x306>
 800377e:	4e19      	ldr	r6, [pc, #100]	; (80037e4 <HAL_RCC_OscConfig+0x2dc>)
 8003780:	2300      	movs	r3, #0
 8003782:	2802      	cmp	r0, #2
 8003784:	6033      	str	r3, [r6, #0]
 8003786:	d135      	bne.n	80037f4 <HAL_RCC_OscConfig+0x2ec>
 8003788:	f7ff fad8 	bl	8002d3c <HAL_GetTick>
 800378c:	4607      	mov	r7, r0
 800378e:	682b      	ldr	r3, [r5, #0]
 8003790:	0199      	lsls	r1, r3, #6
 8003792:	d429      	bmi.n	80037e8 <HAL_RCC_OscConfig+0x2e0>
 8003794:	e9d4 3207 	ldrd	r3, r2, [r4, #28]
 8003798:	4313      	orrs	r3, r2
 800379a:	6a62      	ldr	r2, [r4, #36]	; 0x24
 800379c:	ea43 1382 	orr.w	r3, r3, r2, lsl #6
 80037a0:	6ae2      	ldr	r2, [r4, #44]	; 0x2c
 80037a2:	ea43 6302 	orr.w	r3, r3, r2, lsl #24
 80037a6:	6aa2      	ldr	r2, [r4, #40]	; 0x28
 80037a8:	0852      	lsrs	r2, r2, #1
 80037aa:	3a01      	subs	r2, #1
 80037ac:	ea43 4302 	orr.w	r3, r3, r2, lsl #16
 80037b0:	606b      	str	r3, [r5, #4]
 80037b2:	2301      	movs	r3, #1
 80037b4:	6033      	str	r3, [r6, #0]
 80037b6:	f7ff fac1 	bl	8002d3c <HAL_GetTick>
 80037ba:	4d06      	ldr	r5, [pc, #24]	; (80037d4 <HAL_RCC_OscConfig+0x2cc>)
 80037bc:	4604      	mov	r4, r0
 80037be:	682b      	ldr	r3, [r5, #0]
 80037c0:	019a      	lsls	r2, r3, #6
 80037c2:	f53f aeb7 	bmi.w	8003534 <HAL_RCC_OscConfig+0x2c>
 80037c6:	f7ff fab9 	bl	8002d3c <HAL_GetTick>
 80037ca:	1b00      	subs	r0, r0, r4
 80037cc:	2802      	cmp	r0, #2
 80037ce:	d9f6      	bls.n	80037be <HAL_RCC_OscConfig+0x2b6>
 80037d0:	e6dd      	b.n	800358e <HAL_RCC_OscConfig+0x86>
 80037d2:	bf00      	nop
 80037d4:	40023800 	.word	0x40023800
 80037d8:	42470000 	.word	0x42470000
 80037dc:	42470e80 	.word	0x42470e80
 80037e0:	40007000 	.word	0x40007000
 80037e4:	42470060 	.word	0x42470060
 80037e8:	f7ff faa8 	bl	8002d3c <HAL_GetTick>
 80037ec:	1bc0      	subs	r0, r0, r7
 80037ee:	2802      	cmp	r0, #2
 80037f0:	d9cd      	bls.n	800378e <HAL_RCC_OscConfig+0x286>
 80037f2:	e6cc      	b.n	800358e <HAL_RCC_OscConfig+0x86>
 80037f4:	f7ff faa2 	bl	8002d3c <HAL_GetTick>
 80037f8:	4604      	mov	r4, r0
 80037fa:	682b      	ldr	r3, [r5, #0]
 80037fc:	019b      	lsls	r3, r3, #6
 80037fe:	f57f ae99 	bpl.w	8003534 <HAL_RCC_OscConfig+0x2c>
 8003802:	f7ff fa9b 	bl	8002d3c <HAL_GetTick>
 8003806:	1b00      	subs	r0, r0, r4
 8003808:	2802      	cmp	r0, #2
 800380a:	d9f6      	bls.n	80037fa <HAL_RCC_OscConfig+0x2f2>
 800380c:	e6bf      	b.n	800358e <HAL_RCC_OscConfig+0x86>
 800380e:	2801      	cmp	r0, #1
 8003810:	f43f aebe 	beq.w	8003590 <HAL_RCC_OscConfig+0x88>
 8003814:	686b      	ldr	r3, [r5, #4]
 8003816:	69e2      	ldr	r2, [r4, #28]
 8003818:	f403 0180 	and.w	r1, r3, #4194304	; 0x400000
 800381c:	4291      	cmp	r1, r2
 800381e:	f47f aea0 	bne.w	8003562 <HAL_RCC_OscConfig+0x5a>
 8003822:	6a21      	ldr	r1, [r4, #32]
 8003824:	f003 023f 	and.w	r2, r3, #63	; 0x3f
 8003828:	428a      	cmp	r2, r1
 800382a:	f47f ae9a 	bne.w	8003562 <HAL_RCC_OscConfig+0x5a>
 800382e:	6a61      	ldr	r1, [r4, #36]	; 0x24
 8003830:	f647 72c0 	movw	r2, #32704	; 0x7fc0
 8003834:	401a      	ands	r2, r3
 8003836:	ebb2 1f81 	cmp.w	r2, r1, lsl #6
 800383a:	f47f ae92 	bne.w	8003562 <HAL_RCC_OscConfig+0x5a>
 800383e:	6aa2      	ldr	r2, [r4, #40]	; 0x28
 8003840:	0852      	lsrs	r2, r2, #1
 8003842:	f403 3140 	and.w	r1, r3, #196608	; 0x30000
 8003846:	3a01      	subs	r2, #1
 8003848:	ebb1 4f02 	cmp.w	r1, r2, lsl #16
 800384c:	f47f ae89 	bne.w	8003562 <HAL_RCC_OscConfig+0x5a>
 8003850:	6ae2      	ldr	r2, [r4, #44]	; 0x2c
 8003852:	f003 6370 	and.w	r3, r3, #251658240	; 0xf000000
 8003856:	ebb3 6f02 	cmp.w	r3, r2, lsl #24
 800385a:	f43f ae6b 	beq.w	8003534 <HAL_RCC_OscConfig+0x2c>
 800385e:	e680      	b.n	8003562 <HAL_RCC_OscConfig+0x5a>

08003860 <HAL_RCC_GetSysClockFreq>:
 8003860:	4913      	ldr	r1, [pc, #76]	; (80038b0 <HAL_RCC_GetSysClockFreq+0x50>)
 8003862:	b508      	push	{r3, lr}
 8003864:	688b      	ldr	r3, [r1, #8]
 8003866:	f003 030c 	and.w	r3, r3, #12
 800386a:	2b04      	cmp	r3, #4
 800386c:	d01c      	beq.n	80038a8 <HAL_RCC_GetSysClockFreq+0x48>
 800386e:	2b08      	cmp	r3, #8
 8003870:	d11c      	bne.n	80038ac <HAL_RCC_GetSysClockFreq+0x4c>
 8003872:	684a      	ldr	r2, [r1, #4]
 8003874:	684b      	ldr	r3, [r1, #4]
 8003876:	6849      	ldr	r1, [r1, #4]
 8003878:	f413 0380 	ands.w	r3, r3, #4194304	; 0x400000
 800387c:	bf14      	ite	ne
 800387e:	480d      	ldrne	r0, [pc, #52]	; (80038b4 <HAL_RCC_GetSysClockFreq+0x54>)
 8003880:	480d      	ldreq	r0, [pc, #52]	; (80038b8 <HAL_RCC_GetSysClockFreq+0x58>)
 8003882:	f3c1 1188 	ubfx	r1, r1, #6, #9
 8003886:	bf18      	it	ne
 8003888:	2300      	movne	r3, #0
 800388a:	f002 023f 	and.w	r2, r2, #63	; 0x3f
 800388e:	fba1 0100 	umull	r0, r1, r1, r0
 8003892:	f7fd f9d9 	bl	8000c48 <__aeabi_uldivmod>
 8003896:	4b06      	ldr	r3, [pc, #24]	; (80038b0 <HAL_RCC_GetSysClockFreq+0x50>)
 8003898:	685b      	ldr	r3, [r3, #4]
 800389a:	f3c3 4301 	ubfx	r3, r3, #16, #2
 800389e:	3301      	adds	r3, #1
 80038a0:	005b      	lsls	r3, r3, #1
 80038a2:	fbb0 f0f3 	udiv	r0, r0, r3
 80038a6:	bd08      	pop	{r3, pc}
 80038a8:	4802      	ldr	r0, [pc, #8]	; (80038b4 <HAL_RCC_GetSysClockFreq+0x54>)
 80038aa:	e7fc      	b.n	80038a6 <HAL_RCC_GetSysClockFreq+0x46>
 80038ac:	4802      	ldr	r0, [pc, #8]	; (80038b8 <HAL_RCC_GetSysClockFreq+0x58>)
 80038ae:	e7fa      	b.n	80038a6 <HAL_RCC_GetSysClockFreq+0x46>
 80038b0:	40023800 	.word	0x40023800
 80038b4:	017d7840 	.word	0x017d7840
 80038b8:	00f42400 	.word	0x00f42400

080038bc <HAL_RCC_ClockConfig>:
 80038bc:	e92d 41f0 	stmdb	sp!, {r4, r5, r6, r7, r8, lr}
 80038c0:	460d      	mov	r5, r1
 80038c2:	4604      	mov	r4, r0
 80038c4:	b910      	cbnz	r0, 80038cc <HAL_RCC_ClockConfig+0x10>
 80038c6:	2001      	movs	r0, #1
 80038c8:	e8bd 81f0 	ldmia.w	sp!, {r4, r5, r6, r7, r8, pc}
 80038cc:	4b44      	ldr	r3, [pc, #272]	; (80039e0 <HAL_RCC_ClockConfig+0x124>)
 80038ce:	681a      	ldr	r2, [r3, #0]
 80038d0:	f002 0207 	and.w	r2, r2, #7
 80038d4:	428a      	cmp	r2, r1
 80038d6:	d328      	bcc.n	800392a <HAL_RCC_ClockConfig+0x6e>
 80038d8:	6822      	ldr	r2, [r4, #0]
 80038da:	0797      	lsls	r7, r2, #30
 80038dc:	d42d      	bmi.n	800393a <HAL_RCC_ClockConfig+0x7e>
 80038de:	07d0      	lsls	r0, r2, #31
 80038e0:	d441      	bmi.n	8003966 <HAL_RCC_ClockConfig+0xaa>
 80038e2:	4b3f      	ldr	r3, [pc, #252]	; (80039e0 <HAL_RCC_ClockConfig+0x124>)
 80038e4:	681a      	ldr	r2, [r3, #0]
 80038e6:	f002 0207 	and.w	r2, r2, #7
 80038ea:	42aa      	cmp	r2, r5
 80038ec:	d866      	bhi.n	80039bc <HAL_RCC_ClockConfig+0x100>
 80038ee:	6822      	ldr	r2, [r4, #0]
 80038f0:	0751      	lsls	r1, r2, #29
 80038f2:	d46c      	bmi.n	80039ce <HAL_RCC_ClockConfig+0x112>
 80038f4:	0713      	lsls	r3, r2, #28
 80038f6:	d507      	bpl.n	8003908 <HAL_RCC_ClockConfig+0x4c>
 80038f8:	4a3a      	ldr	r2, [pc, #232]	; (80039e4 <HAL_RCC_ClockConfig+0x128>)
 80038fa:	6921      	ldr	r1, [r4, #16]
 80038fc:	6893      	ldr	r3, [r2, #8]
 80038fe:	f423 4360 	bic.w	r3, r3, #57344	; 0xe000
 8003902:	ea43 03c1 	orr.w	r3, r3, r1, lsl #3
 8003906:	6093      	str	r3, [r2, #8]
 8003908:	f7ff ffaa 	bl	8003860 <HAL_RCC_GetSysClockFreq>
 800390c:	4b35      	ldr	r3, [pc, #212]	; (80039e4 <HAL_RCC_ClockConfig+0x128>)
 800390e:	4a36      	ldr	r2, [pc, #216]	; (80039e8 <HAL_RCC_ClockConfig+0x12c>)
 8003910:	689b      	ldr	r3, [r3, #8]
 8003912:	f3c3 1303 	ubfx	r3, r3, #4, #4
 8003916:	5cd3      	ldrb	r3, [r2, r3]
 8003918:	40d8      	lsrs	r0, r3
 800391a:	4b34      	ldr	r3, [pc, #208]	; (80039ec <HAL_RCC_ClockConfig+0x130>)
 800391c:	6018      	str	r0, [r3, #0]
 800391e:	4b34      	ldr	r3, [pc, #208]	; (80039f0 <HAL_RCC_ClockConfig+0x134>)
 8003920:	6818      	ldr	r0, [r3, #0]
 8003922:	f7ff f9c1 	bl	8002ca8 <HAL_InitTick>
 8003926:	2000      	movs	r0, #0
 8003928:	e7ce      	b.n	80038c8 <HAL_RCC_ClockConfig+0xc>
 800392a:	b2ca      	uxtb	r2, r1
 800392c:	701a      	strb	r2, [r3, #0]
 800392e:	681b      	ldr	r3, [r3, #0]
 8003930:	f003 0307 	and.w	r3, r3, #7
 8003934:	428b      	cmp	r3, r1
 8003936:	d1c6      	bne.n	80038c6 <HAL_RCC_ClockConfig+0xa>
 8003938:	e7ce      	b.n	80038d8 <HAL_RCC_ClockConfig+0x1c>
 800393a:	4b2a      	ldr	r3, [pc, #168]	; (80039e4 <HAL_RCC_ClockConfig+0x128>)
 800393c:	f012 0f04 	tst.w	r2, #4
 8003940:	bf1e      	ittt	ne
 8003942:	6899      	ldrne	r1, [r3, #8]
 8003944:	f441 51e0 	orrne.w	r1, r1, #7168	; 0x1c00
 8003948:	6099      	strne	r1, [r3, #8]
 800394a:	0716      	lsls	r6, r2, #28
 800394c:	bf42      	ittt	mi
 800394e:	6899      	ldrmi	r1, [r3, #8]
 8003950:	f441 4160 	orrmi.w	r1, r1, #57344	; 0xe000
 8003954:	6099      	strmi	r1, [r3, #8]
 8003956:	4923      	ldr	r1, [pc, #140]	; (80039e4 <HAL_RCC_ClockConfig+0x128>)
 8003958:	68a0      	ldr	r0, [r4, #8]
 800395a:	688b      	ldr	r3, [r1, #8]
 800395c:	f023 03f0 	bic.w	r3, r3, #240	; 0xf0
 8003960:	4303      	orrs	r3, r0
 8003962:	608b      	str	r3, [r1, #8]
 8003964:	e7bb      	b.n	80038de <HAL_RCC_ClockConfig+0x22>
 8003966:	6862      	ldr	r2, [r4, #4]
 8003968:	4b1e      	ldr	r3, [pc, #120]	; (80039e4 <HAL_RCC_ClockConfig+0x128>)
 800396a:	2a01      	cmp	r2, #1
 800396c:	d11c      	bne.n	80039a8 <HAL_RCC_ClockConfig+0xec>
 800396e:	681b      	ldr	r3, [r3, #0]
 8003970:	f413 3f00 	tst.w	r3, #131072	; 0x20000
 8003974:	d0a7      	beq.n	80038c6 <HAL_RCC_ClockConfig+0xa>
 8003976:	4e1b      	ldr	r6, [pc, #108]	; (80039e4 <HAL_RCC_ClockConfig+0x128>)
 8003978:	68b3      	ldr	r3, [r6, #8]
 800397a:	f023 0303 	bic.w	r3, r3, #3
 800397e:	4313      	orrs	r3, r2
 8003980:	60b3      	str	r3, [r6, #8]
 8003982:	f7ff f9db 	bl	8002d3c <HAL_GetTick>
 8003986:	f241 3888 	movw	r8, #5000	; 0x1388
 800398a:	4607      	mov	r7, r0
 800398c:	68b3      	ldr	r3, [r6, #8]
 800398e:	6862      	ldr	r2, [r4, #4]
 8003990:	f003 030c 	and.w	r3, r3, #12
 8003994:	ebb3 0f82 	cmp.w	r3, r2, lsl #2
 8003998:	d0a3      	beq.n	80038e2 <HAL_RCC_ClockConfig+0x26>
 800399a:	f7ff f9cf 	bl	8002d3c <HAL_GetTick>
 800399e:	1bc0      	subs	r0, r0, r7
 80039a0:	4540      	cmp	r0, r8
 80039a2:	d9f3      	bls.n	800398c <HAL_RCC_ClockConfig+0xd0>
 80039a4:	2003      	movs	r0, #3
 80039a6:	e78f      	b.n	80038c8 <HAL_RCC_ClockConfig+0xc>
 80039a8:	1e91      	subs	r1, r2, #2
 80039aa:	2901      	cmp	r1, #1
 80039ac:	681b      	ldr	r3, [r3, #0]
 80039ae:	d802      	bhi.n	80039b6 <HAL_RCC_ClockConfig+0xfa>
 80039b0:	f013 7f00 	tst.w	r3, #33554432	; 0x2000000
 80039b4:	e7de      	b.n	8003974 <HAL_RCC_ClockConfig+0xb8>
 80039b6:	f013 0f02 	tst.w	r3, #2
 80039ba:	e7db      	b.n	8003974 <HAL_RCC_ClockConfig+0xb8>
 80039bc:	b2ea      	uxtb	r2, r5
 80039be:	701a      	strb	r2, [r3, #0]
 80039c0:	681b      	ldr	r3, [r3, #0]
 80039c2:	f003 0307 	and.w	r3, r3, #7
 80039c6:	42ab      	cmp	r3, r5
 80039c8:	f47f af7d 	bne.w	80038c6 <HAL_RCC_ClockConfig+0xa>
 80039cc:	e78f      	b.n	80038ee <HAL_RCC_ClockConfig+0x32>
 80039ce:	4905      	ldr	r1, [pc, #20]	; (80039e4 <HAL_RCC_ClockConfig+0x128>)
 80039d0:	68e0      	ldr	r0, [r4, #12]
 80039d2:	688b      	ldr	r3, [r1, #8]
 80039d4:	f423 53e0 	bic.w	r3, r3, #7168	; 0x1c00
 80039d8:	4303      	orrs	r3, r0
 80039da:	608b      	str	r3, [r1, #8]
 80039dc:	e78a      	b.n	80038f4 <HAL_RCC_ClockConfig+0x38>
 80039de:	bf00      	nop
 80039e0:	40023c00 	.word	0x40023c00
 80039e4:	40023800 	.word	0x40023800
 80039e8:	0800ac5c 	.word	0x0800ac5c
 80039ec:	20000004 	.word	0x20000004
 80039f0:	2000000c 	.word	0x2000000c

080039f4 <HAL_RCC_GetPCLK1Freq>:
 80039f4:	4b04      	ldr	r3, [pc, #16]	; (8003a08 <HAL_RCC_GetPCLK1Freq+0x14>)
 80039f6:	4a05      	ldr	r2, [pc, #20]	; (8003a0c <HAL_RCC_GetPCLK1Freq+0x18>)
 80039f8:	689b      	ldr	r3, [r3, #8]
 80039fa:	f3c3 2382 	ubfx	r3, r3, #10, #3
 80039fe:	5cd3      	ldrb	r3, [r2, r3]
 8003a00:	4a03      	ldr	r2, [pc, #12]	; (8003a10 <HAL_RCC_GetPCLK1Freq+0x1c>)
 8003a02:	6810      	ldr	r0, [r2, #0]
 8003a04:	40d8      	lsrs	r0, r3
 8003a06:	4770      	bx	lr
 8003a08:	40023800 	.word	0x40023800
 8003a0c:	0800ac6c 	.word	0x0800ac6c
 8003a10:	20000004 	.word	0x20000004

08003a14 <HAL_RCC_GetPCLK2Freq>:
 8003a14:	4b04      	ldr	r3, [pc, #16]	; (8003a28 <HAL_RCC_GetPCLK2Freq+0x14>)
 8003a16:	4a05      	ldr	r2, [pc, #20]	; (8003a2c <HAL_RCC_GetPCLK2Freq+0x18>)
 8003a18:	689b      	ldr	r3, [r3, #8]
 8003a1a:	f3c3 3342 	ubfx	r3, r3, #13, #3
 8003a1e:	5cd3      	ldrb	r3, [r2, r3]
 8003a20:	4a03      	ldr	r2, [pc, #12]	; (8003a30 <HAL_RCC_GetPCLK2Freq+0x1c>)
 8003a22:	6810      	ldr	r0, [r2, #0]
 8003a24:	40d8      	lsrs	r0, r3
 8003a26:	4770      	bx	lr
 8003a28:	40023800 	.word	0x40023800
 8003a2c:	0800ac6c 	.word	0x0800ac6c
 8003a30:	20000004 	.word	0x20000004

08003a34 <TIM_OC1_SetConfig>:
 8003a34:	6a03      	ldr	r3, [r0, #32]
 8003a36:	f023 0301 	bic.w	r3, r3, #1
 8003a3a:	6203      	str	r3, [r0, #32]
 8003a3c:	6a03      	ldr	r3, [r0, #32]
 8003a3e:	b570      	push	{r4, r5, r6, lr}
 8003a40:	6844      	ldr	r4, [r0, #4]
 8003a42:	6982      	ldr	r2, [r0, #24]
 8003a44:	680d      	ldr	r5, [r1, #0]
 8003a46:	f022 0273 	bic.w	r2, r2, #115	; 0x73
 8003a4a:	432a      	orrs	r2, r5
 8003a4c:	688d      	ldr	r5, [r1, #8]
 8003a4e:	f023 0302 	bic.w	r3, r3, #2
 8003a52:	432b      	orrs	r3, r5
 8003a54:	4d0e      	ldr	r5, [pc, #56]	; (8003a90 <TIM_OC1_SetConfig+0x5c>)
 8003a56:	42a8      	cmp	r0, r5
 8003a58:	d002      	beq.n	8003a60 <TIM_OC1_SetConfig+0x2c>
 8003a5a:	4e0e      	ldr	r6, [pc, #56]	; (8003a94 <TIM_OC1_SetConfig+0x60>)
 8003a5c:	42b0      	cmp	r0, r6
 8003a5e:	d110      	bne.n	8003a82 <TIM_OC1_SetConfig+0x4e>
 8003a60:	68ce      	ldr	r6, [r1, #12]
 8003a62:	f023 0308 	bic.w	r3, r3, #8
 8003a66:	4333      	orrs	r3, r6
 8003a68:	42a8      	cmp	r0, r5
 8003a6a:	f023 0304 	bic.w	r3, r3, #4
 8003a6e:	d002      	beq.n	8003a76 <TIM_OC1_SetConfig+0x42>
 8003a70:	4d08      	ldr	r5, [pc, #32]	; (8003a94 <TIM_OC1_SetConfig+0x60>)
 8003a72:	42a8      	cmp	r0, r5
 8003a74:	d105      	bne.n	8003a82 <TIM_OC1_SetConfig+0x4e>
 8003a76:	e9d1 5605 	ldrd	r5, r6, [r1, #20]
 8003a7a:	f424 7440 	bic.w	r4, r4, #768	; 0x300
 8003a7e:	4335      	orrs	r5, r6
 8003a80:	432c      	orrs	r4, r5
 8003a82:	6044      	str	r4, [r0, #4]
 8003a84:	6182      	str	r2, [r0, #24]
 8003a86:	684a      	ldr	r2, [r1, #4]
 8003a88:	6342      	str	r2, [r0, #52]	; 0x34
 8003a8a:	6203      	str	r3, [r0, #32]
 8003a8c:	bd70      	pop	{r4, r5, r6, pc}
 8003a8e:	bf00      	nop
 8003a90:	40010000 	.word	0x40010000
 8003a94:	40010400 	.word	0x40010400

08003a98 <TIM_OC3_SetConfig>:
 8003a98:	6a03      	ldr	r3, [r0, #32]
 8003a9a:	f423 7380 	bic.w	r3, r3, #256	; 0x100
 8003a9e:	6203      	str	r3, [r0, #32]
 8003aa0:	6a03      	ldr	r3, [r0, #32]
 8003aa2:	b570      	push	{r4, r5, r6, lr}
 8003aa4:	6844      	ldr	r4, [r0, #4]
 8003aa6:	69c2      	ldr	r2, [r0, #28]
 8003aa8:	680d      	ldr	r5, [r1, #0]
 8003aaa:	f022 0273 	bic.w	r2, r2, #115	; 0x73
 8003aae:	432a      	orrs	r2, r5
 8003ab0:	688d      	ldr	r5, [r1, #8]
 8003ab2:	f423 7300 	bic.w	r3, r3, #512	; 0x200
 8003ab6:	ea43 2305 	orr.w	r3, r3, r5, lsl #8
 8003aba:	4d11      	ldr	r5, [pc, #68]	; (8003b00 <TIM_OC3_SetConfig+0x68>)
 8003abc:	42a8      	cmp	r0, r5
 8003abe:	d003      	beq.n	8003ac8 <TIM_OC3_SetConfig+0x30>
 8003ac0:	f505 6580 	add.w	r5, r5, #1024	; 0x400
 8003ac4:	42a8      	cmp	r0, r5
 8003ac6:	d114      	bne.n	8003af2 <TIM_OC3_SetConfig+0x5a>
 8003ac8:	68cd      	ldr	r5, [r1, #12]
 8003aca:	f423 6300 	bic.w	r3, r3, #2048	; 0x800
 8003ace:	ea43 2305 	orr.w	r3, r3, r5, lsl #8
 8003ad2:	4d0b      	ldr	r5, [pc, #44]	; (8003b00 <TIM_OC3_SetConfig+0x68>)
 8003ad4:	42a8      	cmp	r0, r5
 8003ad6:	f423 6380 	bic.w	r3, r3, #1024	; 0x400
 8003ada:	d003      	beq.n	8003ae4 <TIM_OC3_SetConfig+0x4c>
 8003adc:	f505 6580 	add.w	r5, r5, #1024	; 0x400
 8003ae0:	42a8      	cmp	r0, r5
 8003ae2:	d106      	bne.n	8003af2 <TIM_OC3_SetConfig+0x5a>
 8003ae4:	e9d1 5605 	ldrd	r5, r6, [r1, #20]
 8003ae8:	f424 5440 	bic.w	r4, r4, #12288	; 0x3000
 8003aec:	4335      	orrs	r5, r6
 8003aee:	ea44 1405 	orr.w	r4, r4, r5, lsl #4
 8003af2:	6044      	str	r4, [r0, #4]
 8003af4:	61c2      	str	r2, [r0, #28]
 8003af6:	684a      	ldr	r2, [r1, #4]
 8003af8:	63c2      	str	r2, [r0, #60]	; 0x3c
 8003afa:	6203      	str	r3, [r0, #32]
 8003afc:	bd70      	pop	{r4, r5, r6, pc}
 8003afe:	bf00      	nop
 8003b00:	40010000 	.word	0x40010000

08003b04 <TIM_OC4_SetConfig>:
 8003b04:	6a03      	ldr	r3, [r0, #32]
 8003b06:	f423 5380 	bic.w	r3, r3, #4096	; 0x1000
 8003b0a:	6203      	str	r3, [r0, #32]
 8003b0c:	6a03      	ldr	r3, [r0, #32]
 8003b0e:	b530      	push	{r4, r5, lr}
 8003b10:	6844      	ldr	r4, [r0, #4]
 8003b12:	69c2      	ldr	r2, [r0, #28]
 8003b14:	680d      	ldr	r5, [r1, #0]
 8003b16:	f422 42e6 	bic.w	r2, r2, #29440	; 0x7300
 8003b1a:	ea42 2205 	orr.w	r2, r2, r5, lsl #8
 8003b1e:	688d      	ldr	r5, [r1, #8]
 8003b20:	f423 5300 	bic.w	r3, r3, #8192	; 0x2000
 8003b24:	ea43 3305 	orr.w	r3, r3, r5, lsl #12
 8003b28:	4d08      	ldr	r5, [pc, #32]	; (8003b4c <TIM_OC4_SetConfig+0x48>)
 8003b2a:	42a8      	cmp	r0, r5
 8003b2c:	d003      	beq.n	8003b36 <TIM_OC4_SetConfig+0x32>
 8003b2e:	f505 6580 	add.w	r5, r5, #1024	; 0x400
 8003b32:	42a8      	cmp	r0, r5
 8003b34:	d104      	bne.n	8003b40 <TIM_OC4_SetConfig+0x3c>
 8003b36:	694d      	ldr	r5, [r1, #20]
 8003b38:	f424 4480 	bic.w	r4, r4, #16384	; 0x4000
 8003b3c:	ea44 1485 	orr.w	r4, r4, r5, lsl #6
 8003b40:	6044      	str	r4, [r0, #4]
 8003b42:	61c2      	str	r2, [r0, #28]
 8003b44:	684a      	ldr	r2, [r1, #4]
 8003b46:	6402      	str	r2, [r0, #64]	; 0x40
 8003b48:	6203      	str	r3, [r0, #32]
 8003b4a:	bd30      	pop	{r4, r5, pc}
 8003b4c:	40010000 	.word	0x40010000

08003b50 <HAL_TIM_PWM_MspInit>:
 8003b50:	4770      	bx	lr

08003b52 <HAL_TIM_Encoder_Start>:
 8003b52:	b530      	push	{r4, r5, lr}
 8003b54:	f890 203e 	ldrb.w	r2, [r0, #62]	; 0x3e
 8003b58:	f890 303f 	ldrb.w	r3, [r0, #63]	; 0x3f
 8003b5c:	f890 5042 	ldrb.w	r5, [r0, #66]	; 0x42
 8003b60:	f890 4043 	ldrb.w	r4, [r0, #67]	; 0x43
 8003b64:	b2d2      	uxtb	r2, r2
 8003b66:	b2db      	uxtb	r3, r3
 8003b68:	b2ed      	uxtb	r5, r5
 8003b6a:	b2e4      	uxtb	r4, r4
 8003b6c:	b9c9      	cbnz	r1, 8003ba2 <HAL_TIM_Encoder_Start+0x50>
 8003b6e:	2a01      	cmp	r2, #1
 8003b70:	d146      	bne.n	8003c00 <HAL_TIM_Encoder_Start+0xae>
 8003b72:	2d01      	cmp	r5, #1
 8003b74:	d146      	bne.n	8003c04 <HAL_TIM_Encoder_Start+0xb2>
 8003b76:	2302      	movs	r3, #2
 8003b78:	f880 303e 	strb.w	r3, [r0, #62]	; 0x3e
 8003b7c:	f880 3042 	strb.w	r3, [r0, #66]	; 0x42
 8003b80:	6803      	ldr	r3, [r0, #0]
 8003b82:	6a1a      	ldr	r2, [r3, #32]
 8003b84:	f022 0201 	bic.w	r2, r2, #1
 8003b88:	621a      	str	r2, [r3, #32]
 8003b8a:	6a1a      	ldr	r2, [r3, #32]
 8003b8c:	f042 0201 	orr.w	r2, r2, #1
 8003b90:	621a      	str	r2, [r3, #32]
 8003b92:	6802      	ldr	r2, [r0, #0]
 8003b94:	6813      	ldr	r3, [r2, #0]
 8003b96:	f043 0301 	orr.w	r3, r3, #1
 8003b9a:	6013      	str	r3, [r2, #0]
 8003b9c:	2300      	movs	r3, #0
 8003b9e:	4618      	mov	r0, r3
 8003ba0:	bd30      	pop	{r4, r5, pc}
 8003ba2:	2904      	cmp	r1, #4
 8003ba4:	d111      	bne.n	8003bca <HAL_TIM_Encoder_Start+0x78>
 8003ba6:	2b01      	cmp	r3, #1
 8003ba8:	d12a      	bne.n	8003c00 <HAL_TIM_Encoder_Start+0xae>
 8003baa:	2c01      	cmp	r4, #1
 8003bac:	d1f7      	bne.n	8003b9e <HAL_TIM_Encoder_Start+0x4c>
 8003bae:	2302      	movs	r3, #2
 8003bb0:	f880 303f 	strb.w	r3, [r0, #63]	; 0x3f
 8003bb4:	f880 3043 	strb.w	r3, [r0, #67]	; 0x43
 8003bb8:	6803      	ldr	r3, [r0, #0]
 8003bba:	6a1a      	ldr	r2, [r3, #32]
 8003bbc:	f022 0210 	bic.w	r2, r2, #16
 8003bc0:	621a      	str	r2, [r3, #32]
 8003bc2:	6a1a      	ldr	r2, [r3, #32]
 8003bc4:	f042 0210 	orr.w	r2, r2, #16
 8003bc8:	e7e2      	b.n	8003b90 <HAL_TIM_Encoder_Start+0x3e>
 8003bca:	2a01      	cmp	r2, #1
 8003bcc:	d118      	bne.n	8003c00 <HAL_TIM_Encoder_Start+0xae>
 8003bce:	2b01      	cmp	r3, #1
 8003bd0:	d118      	bne.n	8003c04 <HAL_TIM_Encoder_Start+0xb2>
 8003bd2:	2d01      	cmp	r5, #1
 8003bd4:	d1e3      	bne.n	8003b9e <HAL_TIM_Encoder_Start+0x4c>
 8003bd6:	2c01      	cmp	r4, #1
 8003bd8:	d1e1      	bne.n	8003b9e <HAL_TIM_Encoder_Start+0x4c>
 8003bda:	2302      	movs	r3, #2
 8003bdc:	f880 303e 	strb.w	r3, [r0, #62]	; 0x3e
 8003be0:	f880 303f 	strb.w	r3, [r0, #63]	; 0x3f
 8003be4:	f880 3042 	strb.w	r3, [r0, #66]	; 0x42
 8003be8:	f880 3043 	strb.w	r3, [r0, #67]	; 0x43
 8003bec:	6803      	ldr	r3, [r0, #0]
 8003bee:	6a1a      	ldr	r2, [r3, #32]
 8003bf0:	f022 0201 	bic.w	r2, r2, #1
 8003bf4:	621a      	str	r2, [r3, #32]
 8003bf6:	6a1a      	ldr	r2, [r3, #32]
 8003bf8:	f042 0201 	orr.w	r2, r2, #1
 8003bfc:	621a      	str	r2, [r3, #32]
 8003bfe:	e7dc      	b.n	8003bba <HAL_TIM_Encoder_Start+0x68>
 8003c00:	2301      	movs	r3, #1
 8003c02:	e7cc      	b.n	8003b9e <HAL_TIM_Encoder_Start+0x4c>
 8003c04:	4613      	mov	r3, r2
 8003c06:	e7ca      	b.n	8003b9e <HAL_TIM_Encoder_Start+0x4c>

08003c08 <TIM_Base_SetConfig>:
 8003c08:	4a30      	ldr	r2, [pc, #192]	; (8003ccc <TIM_Base_SetConfig+0xc4>)
 8003c0a:	6803      	ldr	r3, [r0, #0]
 8003c0c:	4290      	cmp	r0, r2
 8003c0e:	d012      	beq.n	8003c36 <TIM_Base_SetConfig+0x2e>
 8003c10:	f1b0 4f80 	cmp.w	r0, #1073741824	; 0x40000000
 8003c14:	d00f      	beq.n	8003c36 <TIM_Base_SetConfig+0x2e>
 8003c16:	f5a2 427c 	sub.w	r2, r2, #64512	; 0xfc00
 8003c1a:	4290      	cmp	r0, r2
 8003c1c:	d00b      	beq.n	8003c36 <TIM_Base_SetConfig+0x2e>
 8003c1e:	f502 6280 	add.w	r2, r2, #1024	; 0x400
 8003c22:	4290      	cmp	r0, r2
 8003c24:	d007      	beq.n	8003c36 <TIM_Base_SetConfig+0x2e>
 8003c26:	f502 6280 	add.w	r2, r2, #1024	; 0x400
 8003c2a:	4290      	cmp	r0, r2
 8003c2c:	d003      	beq.n	8003c36 <TIM_Base_SetConfig+0x2e>
 8003c2e:	f502 4278 	add.w	r2, r2, #63488	; 0xf800
 8003c32:	4290      	cmp	r0, r2
 8003c34:	d119      	bne.n	8003c6a <TIM_Base_SetConfig+0x62>
 8003c36:	684a      	ldr	r2, [r1, #4]
 8003c38:	f023 0370 	bic.w	r3, r3, #112	; 0x70
 8003c3c:	4313      	orrs	r3, r2
 8003c3e:	4a23      	ldr	r2, [pc, #140]	; (8003ccc <TIM_Base_SetConfig+0xc4>)
 8003c40:	4290      	cmp	r0, r2
 8003c42:	d029      	beq.n	8003c98 <TIM_Base_SetConfig+0x90>
 8003c44:	f1b0 4f80 	cmp.w	r0, #1073741824	; 0x40000000
 8003c48:	d026      	beq.n	8003c98 <TIM_Base_SetConfig+0x90>
 8003c4a:	f5a2 427c 	sub.w	r2, r2, #64512	; 0xfc00
 8003c4e:	4290      	cmp	r0, r2
 8003c50:	d022      	beq.n	8003c98 <TIM_Base_SetConfig+0x90>
 8003c52:	f502 6280 	add.w	r2, r2, #1024	; 0x400
 8003c56:	4290      	cmp	r0, r2
 8003c58:	d01e      	beq.n	8003c98 <TIM_Base_SetConfig+0x90>
 8003c5a:	f502 6280 	add.w	r2, r2, #1024	; 0x400
 8003c5e:	4290      	cmp	r0, r2
 8003c60:	d01a      	beq.n	8003c98 <TIM_Base_SetConfig+0x90>
 8003c62:	f502 4278 	add.w	r2, r2, #63488	; 0xf800
 8003c66:	4290      	cmp	r0, r2
 8003c68:	d016      	beq.n	8003c98 <TIM_Base_SetConfig+0x90>
 8003c6a:	4a19      	ldr	r2, [pc, #100]	; (8003cd0 <TIM_Base_SetConfig+0xc8>)
 8003c6c:	4290      	cmp	r0, r2
 8003c6e:	d013      	beq.n	8003c98 <TIM_Base_SetConfig+0x90>
 8003c70:	f502 6280 	add.w	r2, r2, #1024	; 0x400
 8003c74:	4290      	cmp	r0, r2
 8003c76:	d00f      	beq.n	8003c98 <TIM_Base_SetConfig+0x90>
 8003c78:	f502 6280 	add.w	r2, r2, #1024	; 0x400
 8003c7c:	4290      	cmp	r0, r2
 8003c7e:	d00b      	beq.n	8003c98 <TIM_Base_SetConfig+0x90>
 8003c80:	f5a2 3298 	sub.w	r2, r2, #77824	; 0x13000
 8003c84:	4290      	cmp	r0, r2
 8003c86:	d007      	beq.n	8003c98 <TIM_Base_SetConfig+0x90>
 8003c88:	f502 6280 	add.w	r2, r2, #1024	; 0x400
 8003c8c:	4290      	cmp	r0, r2
 8003c8e:	d003      	beq.n	8003c98 <TIM_Base_SetConfig+0x90>
 8003c90:	f502 6280 	add.w	r2, r2, #1024	; 0x400
 8003c94:	4290      	cmp	r0, r2
 8003c96:	d103      	bne.n	8003ca0 <TIM_Base_SetConfig+0x98>
 8003c98:	68ca      	ldr	r2, [r1, #12]
 8003c9a:	f423 7340 	bic.w	r3, r3, #768	; 0x300
 8003c9e:	4313      	orrs	r3, r2
 8003ca0:	694a      	ldr	r2, [r1, #20]
 8003ca2:	f023 0380 	bic.w	r3, r3, #128	; 0x80
 8003ca6:	4313      	orrs	r3, r2
 8003ca8:	6003      	str	r3, [r0, #0]
 8003caa:	688b      	ldr	r3, [r1, #8]
 8003cac:	62c3      	str	r3, [r0, #44]	; 0x2c
 8003cae:	680b      	ldr	r3, [r1, #0]
 8003cb0:	6283      	str	r3, [r0, #40]	; 0x28
 8003cb2:	4b06      	ldr	r3, [pc, #24]	; (8003ccc <TIM_Base_SetConfig+0xc4>)
 8003cb4:	4298      	cmp	r0, r3
 8003cb6:	d003      	beq.n	8003cc0 <TIM_Base_SetConfig+0xb8>
 8003cb8:	f503 6380 	add.w	r3, r3, #1024	; 0x400
 8003cbc:	4298      	cmp	r0, r3
 8003cbe:	d101      	bne.n	8003cc4 <TIM_Base_SetConfig+0xbc>
 8003cc0:	690b      	ldr	r3, [r1, #16]
 8003cc2:	6303      	str	r3, [r0, #48]	; 0x30
 8003cc4:	2301      	movs	r3, #1
 8003cc6:	6143      	str	r3, [r0, #20]
 8003cc8:	4770      	bx	lr
 8003cca:	bf00      	nop
 8003ccc:	40010000 	.word	0x40010000
 8003cd0:	40014000 	.word	0x40014000

08003cd4 <HAL_TIM_Base_Init>:
 8003cd4:	b510      	push	{r4, lr}
 8003cd6:	4604      	mov	r4, r0
 8003cd8:	b330      	cbz	r0, 8003d28 <HAL_TIM_Base_Init+0x54>
 8003cda:	f890 303d 	ldrb.w	r3, [r0, #61]	; 0x3d
 8003cde:	f003 02ff 	and.w	r2, r3, #255	; 0xff
 8003ce2:	b91b      	cbnz	r3, 8003cec <HAL_TIM_Base_Init+0x18>
 8003ce4:	f880 203c 	strb.w	r2, [r0, #60]	; 0x3c
 8003ce8:	f7fe fe3c 	bl	8002964 <HAL_TIM_Base_MspInit>
 8003cec:	2302      	movs	r3, #2
 8003cee:	6820      	ldr	r0, [r4, #0]
 8003cf0:	f884 303d 	strb.w	r3, [r4, #61]	; 0x3d
 8003cf4:	1d21      	adds	r1, r4, #4
 8003cf6:	f7ff ff87 	bl	8003c08 <TIM_Base_SetConfig>
 8003cfa:	2301      	movs	r3, #1
 8003cfc:	f884 3046 	strb.w	r3, [r4, #70]	; 0x46
 8003d00:	2000      	movs	r0, #0
 8003d02:	f884 303e 	strb.w	r3, [r4, #62]	; 0x3e
 8003d06:	f884 303f 	strb.w	r3, [r4, #63]	; 0x3f
 8003d0a:	f884 3040 	strb.w	r3, [r4, #64]	; 0x40
 8003d0e:	f884 3041 	strb.w	r3, [r4, #65]	; 0x41
 8003d12:	f884 3042 	strb.w	r3, [r4, #66]	; 0x42
 8003d16:	f884 3043 	strb.w	r3, [r4, #67]	; 0x43
 8003d1a:	f884 3044 	strb.w	r3, [r4, #68]	; 0x44
 8003d1e:	f884 3045 	strb.w	r3, [r4, #69]	; 0x45
 8003d22:	f884 303d 	strb.w	r3, [r4, #61]	; 0x3d
 8003d26:	bd10      	pop	{r4, pc}
 8003d28:	2001      	movs	r0, #1
 8003d2a:	e7fc      	b.n	8003d26 <HAL_TIM_Base_Init+0x52>

08003d2c <HAL_TIM_PWM_Init>:
 8003d2c:	b510      	push	{r4, lr}
 8003d2e:	4604      	mov	r4, r0
 8003d30:	b330      	cbz	r0, 8003d80 <HAL_TIM_PWM_Init+0x54>
 8003d32:	f890 303d 	ldrb.w	r3, [r0, #61]	; 0x3d
 8003d36:	f003 02ff 	and.w	r2, r3, #255	; 0xff
 8003d3a:	b91b      	cbnz	r3, 8003d44 <HAL_TIM_PWM_Init+0x18>
 8003d3c:	f880 203c 	strb.w	r2, [r0, #60]	; 0x3c
 8003d40:	f7ff ff06 	bl	8003b50 <HAL_TIM_PWM_MspInit>
 8003d44:	2302      	movs	r3, #2
 8003d46:	6820      	ldr	r0, [r4, #0]
 8003d48:	f884 303d 	strb.w	r3, [r4, #61]	; 0x3d
 8003d4c:	1d21      	adds	r1, r4, #4
 8003d4e:	f7ff ff5b 	bl	8003c08 <TIM_Base_SetConfig>
 8003d52:	2301      	movs	r3, #1
 8003d54:	f884 3046 	strb.w	r3, [r4, #70]	; 0x46
 8003d58:	2000      	movs	r0, #0
 8003d5a:	f884 303e 	strb.w	r3, [r4, #62]	; 0x3e
 8003d5e:	f884 303f 	strb.w	r3, [r4, #63]	; 0x3f
 8003d62:	f884 3040 	strb.w	r3, [r4, #64]	; 0x40
 8003d66:	f884 3041 	strb.w	r3, [r4, #65]	; 0x41
 8003d6a:	f884 3042 	strb.w	r3, [r4, #66]	; 0x42
 8003d6e:	f884 3043 	strb.w	r3, [r4, #67]	; 0x43
 8003d72:	f884 3044 	strb.w	r3, [r4, #68]	; 0x44
 8003d76:	f884 3045 	strb.w	r3, [r4, #69]	; 0x45
 8003d7a:	f884 303d 	strb.w	r3, [r4, #61]	; 0x3d
 8003d7e:	bd10      	pop	{r4, pc}
 8003d80:	2001      	movs	r0, #1
 8003d82:	e7fc      	b.n	8003d7e <HAL_TIM_PWM_Init+0x52>

08003d84 <HAL_TIM_Encoder_Init>:
 8003d84:	b5f8      	push	{r3, r4, r5, r6, r7, lr}
 8003d86:	460d      	mov	r5, r1
 8003d88:	4604      	mov	r4, r0
 8003d8a:	2800      	cmp	r0, #0
 8003d8c:	d04d      	beq.n	8003e2a <HAL_TIM_Encoder_Init+0xa6>
 8003d8e:	f890 303d 	ldrb.w	r3, [r0, #61]	; 0x3d
 8003d92:	f003 02ff 	and.w	r2, r3, #255	; 0xff
 8003d96:	b91b      	cbnz	r3, 8003da0 <HAL_TIM_Encoder_Init+0x1c>
 8003d98:	f880 203c 	strb.w	r2, [r0, #60]	; 0x3c
 8003d9c:	f7fe fe2a 	bl	80029f4 <HAL_TIM_Encoder_MspInit>
 8003da0:	4621      	mov	r1, r4
 8003da2:	2302      	movs	r3, #2
 8003da4:	f884 303d 	strb.w	r3, [r4, #61]	; 0x3d
 8003da8:	f851 0b04 	ldr.w	r0, [r1], #4
 8003dac:	6883      	ldr	r3, [r0, #8]
 8003dae:	f423 4380 	bic.w	r3, r3, #16384	; 0x4000
 8003db2:	f023 0307 	bic.w	r3, r3, #7
 8003db6:	6083      	str	r3, [r0, #8]
 8003db8:	f7ff ff26 	bl	8003c08 <TIM_Base_SetConfig>
 8003dbc:	6820      	ldr	r0, [r4, #0]
 8003dbe:	682b      	ldr	r3, [r5, #0]
 8003dc0:	6886      	ldr	r6, [r0, #8]
 8003dc2:	6982      	ldr	r2, [r0, #24]
 8003dc4:	68a9      	ldr	r1, [r5, #8]
 8003dc6:	6a07      	ldr	r7, [r0, #32]
 8003dc8:	431e      	orrs	r6, r3
 8003dca:	69ab      	ldr	r3, [r5, #24]
 8003dcc:	f422 7240 	bic.w	r2, r2, #768	; 0x300
 8003dd0:	f022 0203 	bic.w	r2, r2, #3
 8003dd4:	ea41 2303 	orr.w	r3, r1, r3, lsl #8
 8003dd8:	4313      	orrs	r3, r2
 8003dda:	f423 427c 	bic.w	r2, r3, #64512	; 0xfc00
 8003dde:	692b      	ldr	r3, [r5, #16]
 8003de0:	69e9      	ldr	r1, [r5, #28]
 8003de2:	011b      	lsls	r3, r3, #4
 8003de4:	ea43 2301 	orr.w	r3, r3, r1, lsl #8
 8003de8:	68e9      	ldr	r1, [r5, #12]
 8003dea:	430b      	orrs	r3, r1
 8003dec:	6a29      	ldr	r1, [r5, #32]
 8003dee:	f022 02fc 	bic.w	r2, r2, #252	; 0xfc
 8003df2:	ea43 3301 	orr.w	r3, r3, r1, lsl #12
 8003df6:	4313      	orrs	r3, r2
 8003df8:	6969      	ldr	r1, [r5, #20]
 8003dfa:	f027 02aa 	bic.w	r2, r7, #170	; 0xaa
 8003dfe:	686f      	ldr	r7, [r5, #4]
 8003e00:	6086      	str	r6, [r0, #8]
 8003e02:	ea47 1701 	orr.w	r7, r7, r1, lsl #4
 8003e06:	6183      	str	r3, [r0, #24]
 8003e08:	4317      	orrs	r7, r2
 8003e0a:	2301      	movs	r3, #1
 8003e0c:	6207      	str	r7, [r0, #32]
 8003e0e:	f884 3046 	strb.w	r3, [r4, #70]	; 0x46
 8003e12:	2000      	movs	r0, #0
 8003e14:	f884 303e 	strb.w	r3, [r4, #62]	; 0x3e
 8003e18:	f884 303f 	strb.w	r3, [r4, #63]	; 0x3f
 8003e1c:	f884 3042 	strb.w	r3, [r4, #66]	; 0x42
 8003e20:	f884 3043 	strb.w	r3, [r4, #67]	; 0x43
 8003e24:	f884 303d 	strb.w	r3, [r4, #61]	; 0x3d
 8003e28:	bdf8      	pop	{r3, r4, r5, r6, r7, pc}
 8003e2a:	2001      	movs	r0, #1
 8003e2c:	e7fc      	b.n	8003e28 <HAL_TIM_Encoder_Init+0xa4>
	...

08003e30 <TIM_OC2_SetConfig>:
 8003e30:	6a03      	ldr	r3, [r0, #32]
 8003e32:	f023 0310 	bic.w	r3, r3, #16
 8003e36:	6203      	str	r3, [r0, #32]
 8003e38:	6a03      	ldr	r3, [r0, #32]
 8003e3a:	b570      	push	{r4, r5, r6, lr}
 8003e3c:	6844      	ldr	r4, [r0, #4]
 8003e3e:	6982      	ldr	r2, [r0, #24]
 8003e40:	680d      	ldr	r5, [r1, #0]
 8003e42:	f422 42e6 	bic.w	r2, r2, #29440	; 0x7300
 8003e46:	ea42 2205 	orr.w	r2, r2, r5, lsl #8
 8003e4a:	688d      	ldr	r5, [r1, #8]
 8003e4c:	f023 0320 	bic.w	r3, r3, #32
 8003e50:	ea43 1305 	orr.w	r3, r3, r5, lsl #4
 8003e54:	4d10      	ldr	r5, [pc, #64]	; (8003e98 <TIM_OC2_SetConfig+0x68>)
 8003e56:	42a8      	cmp	r0, r5
 8003e58:	d003      	beq.n	8003e62 <TIM_OC2_SetConfig+0x32>
 8003e5a:	f505 6580 	add.w	r5, r5, #1024	; 0x400
 8003e5e:	42a8      	cmp	r0, r5
 8003e60:	d114      	bne.n	8003e8c <TIM_OC2_SetConfig+0x5c>
 8003e62:	68cd      	ldr	r5, [r1, #12]
 8003e64:	f023 0380 	bic.w	r3, r3, #128	; 0x80
 8003e68:	ea43 1305 	orr.w	r3, r3, r5, lsl #4
 8003e6c:	4d0a      	ldr	r5, [pc, #40]	; (8003e98 <TIM_OC2_SetConfig+0x68>)
 8003e6e:	42a8      	cmp	r0, r5
 8003e70:	f023 0340 	bic.w	r3, r3, #64	; 0x40
 8003e74:	d003      	beq.n	8003e7e <TIM_OC2_SetConfig+0x4e>
 8003e76:	f505 6580 	add.w	r5, r5, #1024	; 0x400
 8003e7a:	42a8      	cmp	r0, r5
 8003e7c:	d106      	bne.n	8003e8c <TIM_OC2_SetConfig+0x5c>
 8003e7e:	e9d1 5605 	ldrd	r5, r6, [r1, #20]
 8003e82:	f424 6440 	bic.w	r4, r4, #3072	; 0xc00
 8003e86:	4335      	orrs	r5, r6
 8003e88:	ea44 0485 	orr.w	r4, r4, r5, lsl #2
 8003e8c:	6044      	str	r4, [r0, #4]
 8003e8e:	6182      	str	r2, [r0, #24]
 8003e90:	684a      	ldr	r2, [r1, #4]
 8003e92:	6382      	str	r2, [r0, #56]	; 0x38
 8003e94:	6203      	str	r3, [r0, #32]
 8003e96:	bd70      	pop	{r4, r5, r6, pc}
 8003e98:	40010000 	.word	0x40010000

08003e9c <HAL_TIM_PWM_ConfigChannel>:
 8003e9c:	b570      	push	{r4, r5, r6, lr}
 8003e9e:	f890 303c 	ldrb.w	r3, [r0, #60]	; 0x3c
 8003ea2:	2b01      	cmp	r3, #1
 8003ea4:	4605      	mov	r5, r0
 8003ea6:	4614      	mov	r4, r2
 8003ea8:	d054      	beq.n	8003f54 <HAL_TIM_PWM_ConfigChannel+0xb8>
 8003eaa:	2201      	movs	r2, #1
 8003eac:	2c08      	cmp	r4, #8
 8003eae:	f880 203c 	strb.w	r2, [r0, #60]	; 0x3c
 8003eb2:	d03e      	beq.n	8003f32 <HAL_TIM_PWM_ConfigChannel+0x96>
 8003eb4:	d807      	bhi.n	8003ec6 <HAL_TIM_PWM_ConfigChannel+0x2a>
 8003eb6:	b1cc      	cbz	r4, 8003eec <HAL_TIM_PWM_ConfigChannel+0x50>
 8003eb8:	2c04      	cmp	r4, #4
 8003eba:	d029      	beq.n	8003f10 <HAL_TIM_PWM_ConfigChannel+0x74>
 8003ebc:	2300      	movs	r3, #0
 8003ebe:	f885 303c 	strb.w	r3, [r5, #60]	; 0x3c
 8003ec2:	4610      	mov	r0, r2
 8003ec4:	bd70      	pop	{r4, r5, r6, pc}
 8003ec6:	2c0c      	cmp	r4, #12
 8003ec8:	d1f8      	bne.n	8003ebc <HAL_TIM_PWM_ConfigChannel+0x20>
 8003eca:	6800      	ldr	r0, [r0, #0]
 8003ecc:	f7ff fe1a 	bl	8003b04 <TIM_OC4_SetConfig>
 8003ed0:	682b      	ldr	r3, [r5, #0]
 8003ed2:	6909      	ldr	r1, [r1, #16]
 8003ed4:	69da      	ldr	r2, [r3, #28]
 8003ed6:	f442 6200 	orr.w	r2, r2, #2048	; 0x800
 8003eda:	61da      	str	r2, [r3, #28]
 8003edc:	69da      	ldr	r2, [r3, #28]
 8003ede:	f422 6280 	bic.w	r2, r2, #1024	; 0x400
 8003ee2:	61da      	str	r2, [r3, #28]
 8003ee4:	69da      	ldr	r2, [r3, #28]
 8003ee6:	ea42 2201 	orr.w	r2, r2, r1, lsl #8
 8003eea:	e031      	b.n	8003f50 <HAL_TIM_PWM_ConfigChannel+0xb4>
 8003eec:	6800      	ldr	r0, [r0, #0]
 8003eee:	f7ff fda1 	bl	8003a34 <TIM_OC1_SetConfig>
 8003ef2:	682b      	ldr	r3, [r5, #0]
 8003ef4:	6909      	ldr	r1, [r1, #16]
 8003ef6:	699a      	ldr	r2, [r3, #24]
 8003ef8:	f042 0208 	orr.w	r2, r2, #8
 8003efc:	619a      	str	r2, [r3, #24]
 8003efe:	699a      	ldr	r2, [r3, #24]
 8003f00:	f022 0204 	bic.w	r2, r2, #4
 8003f04:	619a      	str	r2, [r3, #24]
 8003f06:	699a      	ldr	r2, [r3, #24]
 8003f08:	430a      	orrs	r2, r1
 8003f0a:	619a      	str	r2, [r3, #24]
 8003f0c:	2200      	movs	r2, #0
 8003f0e:	e7d5      	b.n	8003ebc <HAL_TIM_PWM_ConfigChannel+0x20>
 8003f10:	6800      	ldr	r0, [r0, #0]
 8003f12:	f7ff ff8d 	bl	8003e30 <TIM_OC2_SetConfig>
 8003f16:	682b      	ldr	r3, [r5, #0]
 8003f18:	6909      	ldr	r1, [r1, #16]
 8003f1a:	699a      	ldr	r2, [r3, #24]
 8003f1c:	f442 6200 	orr.w	r2, r2, #2048	; 0x800
 8003f20:	619a      	str	r2, [r3, #24]
 8003f22:	699a      	ldr	r2, [r3, #24]
 8003f24:	f422 6280 	bic.w	r2, r2, #1024	; 0x400
 8003f28:	619a      	str	r2, [r3, #24]
 8003f2a:	699a      	ldr	r2, [r3, #24]
 8003f2c:	ea42 2201 	orr.w	r2, r2, r1, lsl #8
 8003f30:	e7eb      	b.n	8003f0a <HAL_TIM_PWM_ConfigChannel+0x6e>
 8003f32:	6800      	ldr	r0, [r0, #0]
 8003f34:	f7ff fdb0 	bl	8003a98 <TIM_OC3_SetConfig>
 8003f38:	682b      	ldr	r3, [r5, #0]
 8003f3a:	6909      	ldr	r1, [r1, #16]
 8003f3c:	69da      	ldr	r2, [r3, #28]
 8003f3e:	f042 0208 	orr.w	r2, r2, #8
 8003f42:	61da      	str	r2, [r3, #28]
 8003f44:	69da      	ldr	r2, [r3, #28]
 8003f46:	f022 0204 	bic.w	r2, r2, #4
 8003f4a:	61da      	str	r2, [r3, #28]
 8003f4c:	69da      	ldr	r2, [r3, #28]
 8003f4e:	430a      	orrs	r2, r1
 8003f50:	61da      	str	r2, [r3, #28]
 8003f52:	e7db      	b.n	8003f0c <HAL_TIM_PWM_ConfigChannel+0x70>
 8003f54:	2202      	movs	r2, #2
 8003f56:	e7b4      	b.n	8003ec2 <HAL_TIM_PWM_ConfigChannel+0x26>

08003f58 <TIM_ETR_SetConfig>:
 8003f58:	b510      	push	{r4, lr}
 8003f5a:	6884      	ldr	r4, [r0, #8]
 8003f5c:	4311      	orrs	r1, r2
 8003f5e:	f424 447f 	bic.w	r4, r4, #65280	; 0xff00
 8003f62:	ea41 2303 	orr.w	r3, r1, r3, lsl #8
 8003f66:	4323      	orrs	r3, r4
 8003f68:	6083      	str	r3, [r0, #8]
 8003f6a:	bd10      	pop	{r4, pc}

08003f6c <HAL_TIM_ConfigClockSource>:
 8003f6c:	b570      	push	{r4, r5, r6, lr}
 8003f6e:	f890 303c 	ldrb.w	r3, [r0, #60]	; 0x3c
 8003f72:	2b01      	cmp	r3, #1
 8003f74:	4604      	mov	r4, r0
 8003f76:	f04f 0302 	mov.w	r3, #2
 8003f7a:	f000 8091 	beq.w	80040a0 <HAL_TIM_ConfigClockSource+0x134>
 8003f7e:	2201      	movs	r2, #1
 8003f80:	f880 303d 	strb.w	r3, [r0, #61]	; 0x3d
 8003f84:	f880 203c 	strb.w	r2, [r0, #60]	; 0x3c
 8003f88:	6800      	ldr	r0, [r0, #0]
 8003f8a:	6883      	ldr	r3, [r0, #8]
 8003f8c:	f423 437f 	bic.w	r3, r3, #65280	; 0xff00
 8003f90:	f023 0377 	bic.w	r3, r3, #119	; 0x77
 8003f94:	6083      	str	r3, [r0, #8]
 8003f96:	680b      	ldr	r3, [r1, #0]
 8003f98:	2b60      	cmp	r3, #96	; 0x60
 8003f9a:	d052      	beq.n	8004042 <HAL_TIM_ConfigClockSource+0xd6>
 8003f9c:	d833      	bhi.n	8004006 <HAL_TIM_ConfigClockSource+0x9a>
 8003f9e:	2b40      	cmp	r3, #64	; 0x40
 8003fa0:	d067      	beq.n	8004072 <HAL_TIM_ConfigClockSource+0x106>
 8003fa2:	d816      	bhi.n	8003fd2 <HAL_TIM_ConfigClockSource+0x66>
 8003fa4:	2b20      	cmp	r3, #32
 8003fa6:	d00d      	beq.n	8003fc4 <HAL_TIM_ConfigClockSource+0x58>
 8003fa8:	d80a      	bhi.n	8003fc0 <HAL_TIM_ConfigClockSource+0x54>
 8003faa:	f033 0110 	bics.w	r1, r3, #16
 8003fae:	d009      	beq.n	8003fc4 <HAL_TIM_ConfigClockSource+0x58>
 8003fb0:	2301      	movs	r3, #1
 8003fb2:	f884 303d 	strb.w	r3, [r4, #61]	; 0x3d
 8003fb6:	2300      	movs	r3, #0
 8003fb8:	f884 303c 	strb.w	r3, [r4, #60]	; 0x3c
 8003fbc:	4610      	mov	r0, r2
 8003fbe:	bd70      	pop	{r4, r5, r6, pc}
 8003fc0:	2b30      	cmp	r3, #48	; 0x30
 8003fc2:	d1f5      	bne.n	8003fb0 <HAL_TIM_ConfigClockSource+0x44>
 8003fc4:	6882      	ldr	r2, [r0, #8]
 8003fc6:	f022 0270 	bic.w	r2, r2, #112	; 0x70
 8003fca:	4313      	orrs	r3, r2
 8003fcc:	f043 0307 	orr.w	r3, r3, #7
 8003fd0:	e017      	b.n	8004002 <HAL_TIM_ConfigClockSource+0x96>
 8003fd2:	2b50      	cmp	r3, #80	; 0x50
 8003fd4:	d1ec      	bne.n	8003fb0 <HAL_TIM_ConfigClockSource+0x44>
 8003fd6:	684a      	ldr	r2, [r1, #4]
 8003fd8:	68ce      	ldr	r6, [r1, #12]
 8003fda:	6a01      	ldr	r1, [r0, #32]
 8003fdc:	6a05      	ldr	r5, [r0, #32]
 8003fde:	f025 0501 	bic.w	r5, r5, #1
 8003fe2:	6205      	str	r5, [r0, #32]
 8003fe4:	6983      	ldr	r3, [r0, #24]
 8003fe6:	f021 010a 	bic.w	r1, r1, #10
 8003fea:	f023 03f0 	bic.w	r3, r3, #240	; 0xf0
 8003fee:	ea43 1306 	orr.w	r3, r3, r6, lsl #4
 8003ff2:	430a      	orrs	r2, r1
 8003ff4:	6183      	str	r3, [r0, #24]
 8003ff6:	6202      	str	r2, [r0, #32]
 8003ff8:	6883      	ldr	r3, [r0, #8]
 8003ffa:	f023 0370 	bic.w	r3, r3, #112	; 0x70
 8003ffe:	f043 0357 	orr.w	r3, r3, #87	; 0x57
 8004002:	6083      	str	r3, [r0, #8]
 8004004:	e011      	b.n	800402a <HAL_TIM_ConfigClockSource+0xbe>
 8004006:	f5b3 5f80 	cmp.w	r3, #4096	; 0x1000
 800400a:	d00e      	beq.n	800402a <HAL_TIM_ConfigClockSource+0xbe>
 800400c:	f5b3 5f00 	cmp.w	r3, #8192	; 0x2000
 8004010:	d00d      	beq.n	800402e <HAL_TIM_ConfigClockSource+0xc2>
 8004012:	2b70      	cmp	r3, #112	; 0x70
 8004014:	d1cc      	bne.n	8003fb0 <HAL_TIM_ConfigClockSource+0x44>
 8004016:	68cb      	ldr	r3, [r1, #12]
 8004018:	e9d1 2101 	ldrd	r2, r1, [r1, #4]
 800401c:	f7ff ff9c 	bl	8003f58 <TIM_ETR_SetConfig>
 8004020:	6822      	ldr	r2, [r4, #0]
 8004022:	6893      	ldr	r3, [r2, #8]
 8004024:	f043 0377 	orr.w	r3, r3, #119	; 0x77
 8004028:	6093      	str	r3, [r2, #8]
 800402a:	2200      	movs	r2, #0
 800402c:	e7c0      	b.n	8003fb0 <HAL_TIM_ConfigClockSource+0x44>
 800402e:	68cb      	ldr	r3, [r1, #12]
 8004030:	e9d1 2101 	ldrd	r2, r1, [r1, #4]
 8004034:	f7ff ff90 	bl	8003f58 <TIM_ETR_SetConfig>
 8004038:	6822      	ldr	r2, [r4, #0]
 800403a:	6893      	ldr	r3, [r2, #8]
 800403c:	f443 4380 	orr.w	r3, r3, #16384	; 0x4000
 8004040:	e7f2      	b.n	8004028 <HAL_TIM_ConfigClockSource+0xbc>
 8004042:	684d      	ldr	r5, [r1, #4]
 8004044:	68ce      	ldr	r6, [r1, #12]
 8004046:	6a01      	ldr	r1, [r0, #32]
 8004048:	f021 0110 	bic.w	r1, r1, #16
 800404c:	6201      	str	r1, [r0, #32]
 800404e:	6982      	ldr	r2, [r0, #24]
 8004050:	6a03      	ldr	r3, [r0, #32]
 8004052:	f422 4270 	bic.w	r2, r2, #61440	; 0xf000
 8004056:	f023 03a0 	bic.w	r3, r3, #160	; 0xa0
 800405a:	ea43 1305 	orr.w	r3, r3, r5, lsl #4
 800405e:	ea42 3206 	orr.w	r2, r2, r6, lsl #12
 8004062:	6182      	str	r2, [r0, #24]
 8004064:	6203      	str	r3, [r0, #32]
 8004066:	6883      	ldr	r3, [r0, #8]
 8004068:	f023 0370 	bic.w	r3, r3, #112	; 0x70
 800406c:	f043 0367 	orr.w	r3, r3, #103	; 0x67
 8004070:	e7c7      	b.n	8004002 <HAL_TIM_ConfigClockSource+0x96>
 8004072:	684a      	ldr	r2, [r1, #4]
 8004074:	68ce      	ldr	r6, [r1, #12]
 8004076:	6a01      	ldr	r1, [r0, #32]
 8004078:	6a05      	ldr	r5, [r0, #32]
 800407a:	f025 0501 	bic.w	r5, r5, #1
 800407e:	6205      	str	r5, [r0, #32]
 8004080:	6983      	ldr	r3, [r0, #24]
 8004082:	f021 010a 	bic.w	r1, r1, #10
 8004086:	f023 03f0 	bic.w	r3, r3, #240	; 0xf0
 800408a:	ea43 1306 	orr.w	r3, r3, r6, lsl #4
 800408e:	430a      	orrs	r2, r1
 8004090:	6183      	str	r3, [r0, #24]
 8004092:	6202      	str	r2, [r0, #32]
 8004094:	6883      	ldr	r3, [r0, #8]
 8004096:	f023 0370 	bic.w	r3, r3, #112	; 0x70
 800409a:	f043 0347 	orr.w	r3, r3, #71	; 0x47
 800409e:	e7b0      	b.n	8004002 <HAL_TIM_ConfigClockSource+0x96>
 80040a0:	461a      	mov	r2, r3
 80040a2:	e78b      	b.n	8003fbc <HAL_TIM_ConfigClockSource+0x50>

080040a4 <TIM_CCxChannelCmd>:
 80040a4:	6a03      	ldr	r3, [r0, #32]
 80040a6:	f001 011f 	and.w	r1, r1, #31
 80040aa:	b510      	push	{r4, lr}
 80040ac:	2401      	movs	r4, #1
 80040ae:	408c      	lsls	r4, r1
 80040b0:	ea23 0304 	bic.w	r3, r3, r4
 80040b4:	6203      	str	r3, [r0, #32]
 80040b6:	6a03      	ldr	r3, [r0, #32]
 80040b8:	408a      	lsls	r2, r1
 80040ba:	431a      	orrs	r2, r3
 80040bc:	6202      	str	r2, [r0, #32]
 80040be:	bd10      	pop	{r4, pc}

080040c0 <HAL_TIM_OC_Start>:
 80040c0:	b510      	push	{r4, lr}
 80040c2:	4604      	mov	r4, r0
 80040c4:	b929      	cbnz	r1, 80040d2 <HAL_TIM_OC_Start+0x12>
 80040c6:	f890 303e 	ldrb.w	r3, [r0, #62]	; 0x3e
 80040ca:	2b01      	cmp	r3, #1
 80040cc:	d01d      	beq.n	800410a <HAL_TIM_OC_Start+0x4a>
 80040ce:	2001      	movs	r0, #1
 80040d0:	e032      	b.n	8004138 <HAL_TIM_OC_Start+0x78>
 80040d2:	2904      	cmp	r1, #4
 80040d4:	d107      	bne.n	80040e6 <HAL_TIM_OC_Start+0x26>
 80040d6:	f890 303f 	ldrb.w	r3, [r0, #63]	; 0x3f
 80040da:	2b01      	cmp	r3, #1
 80040dc:	d1f7      	bne.n	80040ce <HAL_TIM_OC_Start+0xe>
 80040de:	2302      	movs	r3, #2
 80040e0:	f880 303f 	strb.w	r3, [r0, #63]	; 0x3f
 80040e4:	e014      	b.n	8004110 <HAL_TIM_OC_Start+0x50>
 80040e6:	2908      	cmp	r1, #8
 80040e8:	d107      	bne.n	80040fa <HAL_TIM_OC_Start+0x3a>
 80040ea:	f890 3040 	ldrb.w	r3, [r0, #64]	; 0x40
 80040ee:	2b01      	cmp	r3, #1
 80040f0:	d1ed      	bne.n	80040ce <HAL_TIM_OC_Start+0xe>
 80040f2:	2302      	movs	r3, #2
 80040f4:	f880 3040 	strb.w	r3, [r0, #64]	; 0x40
 80040f8:	e00a      	b.n	8004110 <HAL_TIM_OC_Start+0x50>
 80040fa:	f890 3041 	ldrb.w	r3, [r0, #65]	; 0x41
 80040fe:	2b01      	cmp	r3, #1
 8004100:	d1e5      	bne.n	80040ce <HAL_TIM_OC_Start+0xe>
 8004102:	2302      	movs	r3, #2
 8004104:	f880 3041 	strb.w	r3, [r0, #65]	; 0x41
 8004108:	e002      	b.n	8004110 <HAL_TIM_OC_Start+0x50>
 800410a:	2302      	movs	r3, #2
 800410c:	f880 303e 	strb.w	r3, [r0, #62]	; 0x3e
 8004110:	2201      	movs	r2, #1
 8004112:	6820      	ldr	r0, [r4, #0]
 8004114:	f7ff ffc6 	bl	80040a4 <TIM_CCxChannelCmd>
 8004118:	6823      	ldr	r3, [r4, #0]
 800411a:	4a19      	ldr	r2, [pc, #100]	; (8004180 <HAL_TIM_OC_Start+0xc0>)
 800411c:	4293      	cmp	r3, r2
 800411e:	d00c      	beq.n	800413a <HAL_TIM_OC_Start+0x7a>
 8004120:	4918      	ldr	r1, [pc, #96]	; (8004184 <HAL_TIM_OC_Start+0xc4>)
 8004122:	428b      	cmp	r3, r1
 8004124:	d009      	beq.n	800413a <HAL_TIM_OC_Start+0x7a>
 8004126:	f1b3 4f80 	cmp.w	r3, #1073741824	; 0x40000000
 800412a:	d10d      	bne.n	8004148 <HAL_TIM_OC_Start+0x88>
 800412c:	689a      	ldr	r2, [r3, #8]
 800412e:	f002 0207 	and.w	r2, r2, #7
 8004132:	2a06      	cmp	r2, #6
 8004134:	d11f      	bne.n	8004176 <HAL_TIM_OC_Start+0xb6>
 8004136:	2000      	movs	r0, #0
 8004138:	bd10      	pop	{r4, pc}
 800413a:	6c59      	ldr	r1, [r3, #68]	; 0x44
 800413c:	4293      	cmp	r3, r2
 800413e:	f441 4100 	orr.w	r1, r1, #32768	; 0x8000
 8004142:	6459      	str	r1, [r3, #68]	; 0x44
 8004144:	d0f2      	beq.n	800412c <HAL_TIM_OC_Start+0x6c>
 8004146:	e7ee      	b.n	8004126 <HAL_TIM_OC_Start+0x66>
 8004148:	4a0f      	ldr	r2, [pc, #60]	; (8004188 <HAL_TIM_OC_Start+0xc8>)
 800414a:	4293      	cmp	r3, r2
 800414c:	d0ee      	beq.n	800412c <HAL_TIM_OC_Start+0x6c>
 800414e:	f502 6280 	add.w	r2, r2, #1024	; 0x400
 8004152:	4293      	cmp	r3, r2
 8004154:	d0ea      	beq.n	800412c <HAL_TIM_OC_Start+0x6c>
 8004156:	f502 6280 	add.w	r2, r2, #1024	; 0x400
 800415a:	4293      	cmp	r3, r2
 800415c:	d0e6      	beq.n	800412c <HAL_TIM_OC_Start+0x6c>
 800415e:	f502 4278 	add.w	r2, r2, #63488	; 0xf800
 8004162:	4293      	cmp	r3, r2
 8004164:	d0e2      	beq.n	800412c <HAL_TIM_OC_Start+0x6c>
 8004166:	f502 5270 	add.w	r2, r2, #15360	; 0x3c00
 800416a:	4293      	cmp	r3, r2
 800416c:	d0de      	beq.n	800412c <HAL_TIM_OC_Start+0x6c>
 800416e:	f5a2 3294 	sub.w	r2, r2, #75776	; 0x12800
 8004172:	4293      	cmp	r3, r2
 8004174:	d0da      	beq.n	800412c <HAL_TIM_OC_Start+0x6c>
 8004176:	681a      	ldr	r2, [r3, #0]
 8004178:	f042 0201 	orr.w	r2, r2, #1
 800417c:	601a      	str	r2, [r3, #0]
 800417e:	e7da      	b.n	8004136 <HAL_TIM_OC_Start+0x76>
 8004180:	40010000 	.word	0x40010000
 8004184:	40010400 	.word	0x40010400
 8004188:	40000400 	.word	0x40000400

0800418c <HAL_TIM_PWM_Start>:
 800418c:	f7ff bf98 	b.w	80040c0 <HAL_TIM_OC_Start>

08004190 <HAL_TIMEx_MasterConfigSynchronization>:
 8004190:	b530      	push	{r4, r5, lr}
 8004192:	f890 303c 	ldrb.w	r3, [r0, #60]	; 0x3c
 8004196:	2b01      	cmp	r3, #1
 8004198:	f04f 0302 	mov.w	r3, #2
 800419c:	d032      	beq.n	8004204 <HAL_TIMEx_MasterConfigSynchronization+0x74>
 800419e:	f880 303d 	strb.w	r3, [r0, #61]	; 0x3d
 80041a2:	6803      	ldr	r3, [r0, #0]
 80041a4:	680d      	ldr	r5, [r1, #0]
 80041a6:	685c      	ldr	r4, [r3, #4]
 80041a8:	689a      	ldr	r2, [r3, #8]
 80041aa:	f024 0470 	bic.w	r4, r4, #112	; 0x70
 80041ae:	432c      	orrs	r4, r5
 80041b0:	605c      	str	r4, [r3, #4]
 80041b2:	4c15      	ldr	r4, [pc, #84]	; (8004208 <HAL_TIMEx_MasterConfigSynchronization+0x78>)
 80041b4:	42a3      	cmp	r3, r4
 80041b6:	d01a      	beq.n	80041ee <HAL_TIMEx_MasterConfigSynchronization+0x5e>
 80041b8:	f1b3 4f80 	cmp.w	r3, #1073741824	; 0x40000000
 80041bc:	d017      	beq.n	80041ee <HAL_TIMEx_MasterConfigSynchronization+0x5e>
 80041be:	f5a4 447c 	sub.w	r4, r4, #64512	; 0xfc00
 80041c2:	42a3      	cmp	r3, r4
 80041c4:	d013      	beq.n	80041ee <HAL_TIMEx_MasterConfigSynchronization+0x5e>
 80041c6:	f504 6480 	add.w	r4, r4, #1024	; 0x400
 80041ca:	42a3      	cmp	r3, r4
 80041cc:	d00f      	beq.n	80041ee <HAL_TIMEx_MasterConfigSynchronization+0x5e>
 80041ce:	f504 6480 	add.w	r4, r4, #1024	; 0x400
 80041d2:	42a3      	cmp	r3, r4
 80041d4:	d00b      	beq.n	80041ee <HAL_TIMEx_MasterConfigSynchronization+0x5e>
 80041d6:	f504 4478 	add.w	r4, r4, #63488	; 0xf800
 80041da:	42a3      	cmp	r3, r4
 80041dc:	d007      	beq.n	80041ee <HAL_TIMEx_MasterConfigSynchronization+0x5e>
 80041de:	f504 5470 	add.w	r4, r4, #15360	; 0x3c00
 80041e2:	42a3      	cmp	r3, r4
 80041e4:	d003      	beq.n	80041ee <HAL_TIMEx_MasterConfigSynchronization+0x5e>
 80041e6:	f5a4 3494 	sub.w	r4, r4, #75776	; 0x12800
 80041ea:	42a3      	cmp	r3, r4
 80041ec:	d104      	bne.n	80041f8 <HAL_TIMEx_MasterConfigSynchronization+0x68>
 80041ee:	6849      	ldr	r1, [r1, #4]
 80041f0:	f022 0280 	bic.w	r2, r2, #128	; 0x80
 80041f4:	430a      	orrs	r2, r1
 80041f6:	609a      	str	r2, [r3, #8]
 80041f8:	2301      	movs	r3, #1
 80041fa:	f880 303d 	strb.w	r3, [r0, #61]	; 0x3d
 80041fe:	2300      	movs	r3, #0
 8004200:	f880 303c 	strb.w	r3, [r0, #60]	; 0x3c
 8004204:	4618      	mov	r0, r3
 8004206:	bd30      	pop	{r4, r5, pc}
 8004208:	40010000 	.word	0x40010000

0800420c <HAL_TIMEx_ConfigBreakDeadTime>:
 800420c:	f890 303c 	ldrb.w	r3, [r0, #60]	; 0x3c
 8004210:	2b01      	cmp	r3, #1
 8004212:	d01f      	beq.n	8004254 <HAL_TIMEx_ConfigBreakDeadTime+0x48>
 8004214:	68cb      	ldr	r3, [r1, #12]
 8004216:	688a      	ldr	r2, [r1, #8]
 8004218:	f423 7340 	bic.w	r3, r3, #768	; 0x300
 800421c:	4313      	orrs	r3, r2
 800421e:	684a      	ldr	r2, [r1, #4]
 8004220:	f423 6380 	bic.w	r3, r3, #1024	; 0x400
 8004224:	4313      	orrs	r3, r2
 8004226:	680a      	ldr	r2, [r1, #0]
 8004228:	f423 6300 	bic.w	r3, r3, #2048	; 0x800
 800422c:	4313      	orrs	r3, r2
 800422e:	690a      	ldr	r2, [r1, #16]
 8004230:	f423 5380 	bic.w	r3, r3, #4096	; 0x1000
 8004234:	4313      	orrs	r3, r2
 8004236:	694a      	ldr	r2, [r1, #20]
 8004238:	f423 5300 	bic.w	r3, r3, #8192	; 0x2000
 800423c:	4313      	orrs	r3, r2
 800423e:	69ca      	ldr	r2, [r1, #28]
 8004240:	f423 4380 	bic.w	r3, r3, #16384	; 0x4000
 8004244:	4313      	orrs	r3, r2
 8004246:	6802      	ldr	r2, [r0, #0]
 8004248:	6453      	str	r3, [r2, #68]	; 0x44
 800424a:	2300      	movs	r3, #0
 800424c:	f880 303c 	strb.w	r3, [r0, #60]	; 0x3c
 8004250:	4618      	mov	r0, r3
 8004252:	4770      	bx	lr
 8004254:	2002      	movs	r0, #2
 8004256:	4770      	bx	lr

08004258 <UART_EndRxTransfer>:
 8004258:	6802      	ldr	r2, [r0, #0]
 800425a:	f102 030c 	add.w	r3, r2, #12
 800425e:	e853 3f00 	ldrex	r3, [r3]
 8004262:	f423 7390 	bic.w	r3, r3, #288	; 0x120
 8004266:	320c      	adds	r2, #12
 8004268:	e842 3100 	strex	r1, r3, [r2]
 800426c:	6802      	ldr	r2, [r0, #0]
 800426e:	2900      	cmp	r1, #0
 8004270:	d1f2      	bne.n	8004258 <UART_EndRxTransfer>
 8004272:	f102 0314 	add.w	r3, r2, #20
 8004276:	e853 3f00 	ldrex	r3, [r3]
 800427a:	f023 0301 	bic.w	r3, r3, #1
 800427e:	f102 0c14 	add.w	ip, r2, #20
 8004282:	e84c 3100 	strex	r1, r3, [ip]
 8004286:	2900      	cmp	r1, #0
 8004288:	d1f3      	bne.n	8004272 <UART_EndRxTransfer+0x1a>
 800428a:	6b03      	ldr	r3, [r0, #48]	; 0x30
 800428c:	2b01      	cmp	r3, #1
 800428e:	d10b      	bne.n	80042a8 <UART_EndRxTransfer+0x50>
 8004290:	f102 030c 	add.w	r3, r2, #12
 8004294:	e853 3f00 	ldrex	r3, [r3]
 8004298:	f023 0310 	bic.w	r3, r3, #16
 800429c:	f102 0c0c 	add.w	ip, r2, #12
 80042a0:	e84c 3100 	strex	r1, r3, [ip]
 80042a4:	2900      	cmp	r1, #0
 80042a6:	d1f3      	bne.n	8004290 <UART_EndRxTransfer+0x38>
 80042a8:	2320      	movs	r3, #32
 80042aa:	f880 303e 	strb.w	r3, [r0, #62]	; 0x3e
 80042ae:	2300      	movs	r3, #0
 80042b0:	6303      	str	r3, [r0, #48]	; 0x30
 80042b2:	4770      	bx	lr

080042b4 <UART_SetConfig>:
 80042b4:	6802      	ldr	r2, [r0, #0]
 80042b6:	68c1      	ldr	r1, [r0, #12]
 80042b8:	b538      	push	{r3, r4, r5, lr}
 80042ba:	6913      	ldr	r3, [r2, #16]
 80042bc:	f423 5340 	bic.w	r3, r3, #12288	; 0x3000
 80042c0:	430b      	orrs	r3, r1
 80042c2:	6113      	str	r3, [r2, #16]
 80042c4:	4605      	mov	r5, r0
 80042c6:	6883      	ldr	r3, [r0, #8]
 80042c8:	6900      	ldr	r0, [r0, #16]
 80042ca:	68d1      	ldr	r1, [r2, #12]
 80042cc:	4303      	orrs	r3, r0
 80042ce:	6968      	ldr	r0, [r5, #20]
 80042d0:	4303      	orrs	r3, r0
 80042d2:	69e8      	ldr	r0, [r5, #28]
 80042d4:	f421 4116 	bic.w	r1, r1, #38400	; 0x9600
 80042d8:	f021 010c 	bic.w	r1, r1, #12
 80042dc:	4303      	orrs	r3, r0
 80042de:	430b      	orrs	r3, r1
 80042e0:	60d3      	str	r3, [r2, #12]
 80042e2:	6953      	ldr	r3, [r2, #20]
 80042e4:	69a9      	ldr	r1, [r5, #24]
 80042e6:	f423 7340 	bic.w	r3, r3, #768	; 0x300
 80042ea:	430b      	orrs	r3, r1
 80042ec:	6153      	str	r3, [r2, #20]
 80042ee:	4b1f      	ldr	r3, [pc, #124]	; (800436c <UART_SetConfig+0xb8>)
 80042f0:	429a      	cmp	r2, r3
 80042f2:	d003      	beq.n	80042fc <UART_SetConfig+0x48>
 80042f4:	f503 6380 	add.w	r3, r3, #1024	; 0x400
 80042f8:	429a      	cmp	r2, r3
 80042fa:	d124      	bne.n	8004346 <UART_SetConfig+0x92>
 80042fc:	f7ff fb8a 	bl	8003a14 <HAL_RCC_GetPCLK2Freq>
 8004300:	69ea      	ldr	r2, [r5, #28]
 8004302:	2319      	movs	r3, #25
 8004304:	f5b2 4f00 	cmp.w	r2, #32768	; 0x8000
 8004308:	fba0 0103 	umull	r0, r1, r0, r3
 800430c:	e9d5 4300 	ldrd	r4, r3, [r5]
 8004310:	d11c      	bne.n	800434c <UART_SetConfig+0x98>
 8004312:	461a      	mov	r2, r3
 8004314:	1892      	adds	r2, r2, r2
 8004316:	f04f 0300 	mov.w	r3, #0
 800431a:	415b      	adcs	r3, r3
 800431c:	f7fc fc94 	bl	8000c48 <__aeabi_uldivmod>
 8004320:	2164      	movs	r1, #100	; 0x64
 8004322:	fbb0 f5f1 	udiv	r5, r0, r1
 8004326:	fb01 0315 	mls	r3, r1, r5, r0
 800432a:	00db      	lsls	r3, r3, #3
 800432c:	3332      	adds	r3, #50	; 0x32
 800432e:	fbb3 f3f1 	udiv	r3, r3, r1
 8004332:	f003 0207 	and.w	r2, r3, #7
 8004336:	005b      	lsls	r3, r3, #1
 8004338:	eb02 1205 	add.w	r2, r2, r5, lsl #4
 800433c:	f403 73f8 	and.w	r3, r3, #496	; 0x1f0
 8004340:	4413      	add	r3, r2
 8004342:	60a3      	str	r3, [r4, #8]
 8004344:	bd38      	pop	{r3, r4, r5, pc}
 8004346:	f7ff fb55 	bl	80039f4 <HAL_RCC_GetPCLK1Freq>
 800434a:	e7d9      	b.n	8004300 <UART_SetConfig+0x4c>
 800434c:	009a      	lsls	r2, r3, #2
 800434e:	0f9b      	lsrs	r3, r3, #30
 8004350:	f7fc fc7a 	bl	8000c48 <__aeabi_uldivmod>
 8004354:	2264      	movs	r2, #100	; 0x64
 8004356:	fbb0 f1f2 	udiv	r1, r0, r2
 800435a:	fb02 0311 	mls	r3, r2, r1, r0
 800435e:	011b      	lsls	r3, r3, #4
 8004360:	3332      	adds	r3, #50	; 0x32
 8004362:	fbb3 f3f2 	udiv	r3, r3, r2
 8004366:	eb03 1301 	add.w	r3, r3, r1, lsl #4
 800436a:	e7ea      	b.n	8004342 <UART_SetConfig+0x8e>
 800436c:	40011000 	.word	0x40011000

08004370 <UART_WaitOnFlagUntilTimeout.constprop.0>:
 8004370:	b5f8      	push	{r3, r4, r5, r6, r7, lr}
 8004372:	4604      	mov	r4, r0
 8004374:	460e      	mov	r6, r1
 8004376:	4617      	mov	r7, r2
 8004378:	461d      	mov	r5, r3
 800437a:	6822      	ldr	r2, [r4, #0]
 800437c:	6813      	ldr	r3, [r2, #0]
 800437e:	ea36 0303 	bics.w	r3, r6, r3
 8004382:	d101      	bne.n	8004388 <UART_WaitOnFlagUntilTimeout.constprop.0+0x18>
 8004384:	2000      	movs	r0, #0
 8004386:	e028      	b.n	80043da <UART_WaitOnFlagUntilTimeout.constprop.0+0x6a>
 8004388:	1c6b      	adds	r3, r5, #1
 800438a:	d0f7      	beq.n	800437c <UART_WaitOnFlagUntilTimeout.constprop.0+0xc>
 800438c:	b125      	cbz	r5, 8004398 <UART_WaitOnFlagUntilTimeout.constprop.0+0x28>
 800438e:	f7fe fcd5 	bl	8002d3c <HAL_GetTick>
 8004392:	1bc0      	subs	r0, r0, r7
 8004394:	4285      	cmp	r5, r0
 8004396:	d2f0      	bcs.n	800437a <UART_WaitOnFlagUntilTimeout.constprop.0+0xa>
 8004398:	6822      	ldr	r2, [r4, #0]
 800439a:	f102 030c 	add.w	r3, r2, #12
 800439e:	e853 3f00 	ldrex	r3, [r3]
 80043a2:	f423 73d0 	bic.w	r3, r3, #416	; 0x1a0
 80043a6:	320c      	adds	r2, #12
 80043a8:	e842 3000 	strex	r0, r3, [r2]
 80043ac:	6821      	ldr	r1, [r4, #0]
 80043ae:	2800      	cmp	r0, #0
 80043b0:	d1f2      	bne.n	8004398 <UART_WaitOnFlagUntilTimeout.constprop.0+0x28>
 80043b2:	f101 0314 	add.w	r3, r1, #20
 80043b6:	e853 3f00 	ldrex	r3, [r3]
 80043ba:	f023 0301 	bic.w	r3, r3, #1
 80043be:	f101 0014 	add.w	r0, r1, #20
 80043c2:	e840 3200 	strex	r2, r3, [r0]
 80043c6:	2a00      	cmp	r2, #0
 80043c8:	d1f3      	bne.n	80043b2 <UART_WaitOnFlagUntilTimeout.constprop.0+0x42>
 80043ca:	2320      	movs	r3, #32
 80043cc:	f884 303d 	strb.w	r3, [r4, #61]	; 0x3d
 80043d0:	f884 203c 	strb.w	r2, [r4, #60]	; 0x3c
 80043d4:	f884 303e 	strb.w	r3, [r4, #62]	; 0x3e
 80043d8:	2003      	movs	r0, #3
 80043da:	bdf8      	pop	{r3, r4, r5, r6, r7, pc}

080043dc <HAL_UART_Init>:
 80043dc:	b510      	push	{r4, lr}
 80043de:	4604      	mov	r4, r0
 80043e0:	b340      	cbz	r0, 8004434 <HAL_UART_Init+0x58>
 80043e2:	f890 303d 	ldrb.w	r3, [r0, #61]	; 0x3d
 80043e6:	f003 02ff 	and.w	r2, r3, #255	; 0xff
 80043ea:	b91b      	cbnz	r3, 80043f4 <HAL_UART_Init+0x18>
 80043ec:	f880 203c 	strb.w	r2, [r0, #60]	; 0x3c
 80043f0:	f7fe fb78 	bl	8002ae4 <HAL_UART_MspInit>
 80043f4:	6822      	ldr	r2, [r4, #0]
 80043f6:	2324      	movs	r3, #36	; 0x24
 80043f8:	f884 303d 	strb.w	r3, [r4, #61]	; 0x3d
 80043fc:	68d3      	ldr	r3, [r2, #12]
 80043fe:	f423 5300 	bic.w	r3, r3, #8192	; 0x2000
 8004402:	60d3      	str	r3, [r2, #12]
 8004404:	4620      	mov	r0, r4
 8004406:	f7ff ff55 	bl	80042b4 <UART_SetConfig>
 800440a:	6823      	ldr	r3, [r4, #0]
 800440c:	691a      	ldr	r2, [r3, #16]
 800440e:	f422 4290 	bic.w	r2, r2, #18432	; 0x4800
 8004412:	611a      	str	r2, [r3, #16]
 8004414:	695a      	ldr	r2, [r3, #20]
 8004416:	f022 022a 	bic.w	r2, r2, #42	; 0x2a
 800441a:	615a      	str	r2, [r3, #20]
 800441c:	68da      	ldr	r2, [r3, #12]
 800441e:	f442 5200 	orr.w	r2, r2, #8192	; 0x2000
 8004422:	60da      	str	r2, [r3, #12]
 8004424:	2000      	movs	r0, #0
 8004426:	2320      	movs	r3, #32
 8004428:	6420      	str	r0, [r4, #64]	; 0x40
 800442a:	f884 303d 	strb.w	r3, [r4, #61]	; 0x3d
 800442e:	f884 303e 	strb.w	r3, [r4, #62]	; 0x3e
 8004432:	bd10      	pop	{r4, pc}
 8004434:	2001      	movs	r0, #1
 8004436:	e7fc      	b.n	8004432 <HAL_UART_Init+0x56>

08004438 <HAL_UART_Transmit>:
 8004438:	b5f7      	push	{r0, r1, r2, r4, r5, r6, r7, lr}
 800443a:	4617      	mov	r7, r2
 800443c:	f890 203d 	ldrb.w	r2, [r0, #61]	; 0x3d
 8004440:	9300      	str	r3, [sp, #0]
 8004442:	2a20      	cmp	r2, #32
 8004444:	4604      	mov	r4, r0
 8004446:	460e      	mov	r6, r1
 8004448:	d149      	bne.n	80044de <HAL_UART_Transmit+0xa6>
 800444a:	2900      	cmp	r1, #0
 800444c:	d045      	beq.n	80044da <HAL_UART_Transmit+0xa2>
 800444e:	2f00      	cmp	r7, #0
 8004450:	d043      	beq.n	80044da <HAL_UART_Transmit+0xa2>
 8004452:	f890 203c 	ldrb.w	r2, [r0, #60]	; 0x3c
 8004456:	2a01      	cmp	r2, #1
 8004458:	d041      	beq.n	80044de <HAL_UART_Transmit+0xa6>
 800445a:	2201      	movs	r2, #1
 800445c:	f880 203c 	strb.w	r2, [r0, #60]	; 0x3c
 8004460:	2500      	movs	r5, #0
 8004462:	2221      	movs	r2, #33	; 0x21
 8004464:	6405      	str	r5, [r0, #64]	; 0x40
 8004466:	f880 203d 	strb.w	r2, [r0, #61]	; 0x3d
 800446a:	f7fe fc67 	bl	8002d3c <HAL_GetTick>
 800446e:	68a1      	ldr	r1, [r4, #8]
 8004470:	9b00      	ldr	r3, [sp, #0]
 8004472:	84a7      	strh	r7, [r4, #36]	; 0x24
 8004474:	f5b1 5f80 	cmp.w	r1, #4096	; 0x1000
 8004478:	4602      	mov	r2, r0
 800447a:	84e7      	strh	r7, [r4, #38]	; 0x26
 800447c:	d103      	bne.n	8004486 <HAL_UART_Transmit+0x4e>
 800447e:	6921      	ldr	r1, [r4, #16]
 8004480:	b909      	cbnz	r1, 8004486 <HAL_UART_Transmit+0x4e>
 8004482:	4635      	mov	r5, r6
 8004484:	460e      	mov	r6, r1
 8004486:	2100      	movs	r1, #0
 8004488:	f884 103c 	strb.w	r1, [r4, #60]	; 0x3c
 800448c:	8ce1      	ldrh	r1, [r4, #38]	; 0x26
 800448e:	b289      	uxth	r1, r1
 8004490:	b941      	cbnz	r1, 80044a4 <HAL_UART_Transmit+0x6c>
 8004492:	2140      	movs	r1, #64	; 0x40
 8004494:	4620      	mov	r0, r4
 8004496:	f7ff ff6b 	bl	8004370 <UART_WaitOnFlagUntilTimeout.constprop.0>
 800449a:	b960      	cbnz	r0, 80044b6 <HAL_UART_Transmit+0x7e>
 800449c:	2320      	movs	r3, #32
 800449e:	f884 303d 	strb.w	r3, [r4, #61]	; 0x3d
 80044a2:	e009      	b.n	80044b8 <HAL_UART_Transmit+0x80>
 80044a4:	2180      	movs	r1, #128	; 0x80
 80044a6:	4620      	mov	r0, r4
 80044a8:	e9cd 2300 	strd	r2, r3, [sp]
 80044ac:	f7ff ff60 	bl	8004370 <UART_WaitOnFlagUntilTimeout.constprop.0>
 80044b0:	e9dd 2300 	ldrd	r2, r3, [sp]
 80044b4:	b110      	cbz	r0, 80044bc <HAL_UART_Transmit+0x84>
 80044b6:	2003      	movs	r0, #3
 80044b8:	b003      	add	sp, #12
 80044ba:	bdf0      	pop	{r4, r5, r6, r7, pc}
 80044bc:	6820      	ldr	r0, [r4, #0]
 80044be:	b94e      	cbnz	r6, 80044d4 <HAL_UART_Transmit+0x9c>
 80044c0:	f835 1b02 	ldrh.w	r1, [r5], #2
 80044c4:	f3c1 0108 	ubfx	r1, r1, #0, #9
 80044c8:	6041      	str	r1, [r0, #4]
 80044ca:	8ce1      	ldrh	r1, [r4, #38]	; 0x26
 80044cc:	3901      	subs	r1, #1
 80044ce:	b289      	uxth	r1, r1
 80044d0:	84e1      	strh	r1, [r4, #38]	; 0x26
 80044d2:	e7db      	b.n	800448c <HAL_UART_Transmit+0x54>
 80044d4:	f816 1b01 	ldrb.w	r1, [r6], #1
 80044d8:	e7f6      	b.n	80044c8 <HAL_UART_Transmit+0x90>
 80044da:	2001      	movs	r0, #1
 80044dc:	e7ec      	b.n	80044b8 <HAL_UART_Transmit+0x80>
 80044de:	2002      	movs	r0, #2
 80044e0:	e7ea      	b.n	80044b8 <HAL_UART_Transmit+0x80>

080044e2 <HAL_UART_TxCpltCallback>:
 80044e2:	4770      	bx	lr

080044e4 <HAL_UART_ErrorCallback>:
 80044e4:	4770      	bx	lr

080044e6 <UART_DMAAbortOnError>:
 80044e6:	b508      	push	{r3, lr}
 80044e8:	6b80      	ldr	r0, [r0, #56]	; 0x38
 80044ea:	2300      	movs	r3, #0
 80044ec:	85c3      	strh	r3, [r0, #46]	; 0x2e
 80044ee:	84c3      	strh	r3, [r0, #38]	; 0x26
 80044f0:	f7ff fff8 	bl	80044e4 <HAL_UART_ErrorCallback>
 80044f4:	bd08      	pop	{r3, pc}

080044f6 <HAL_UARTEx_RxEventCallback>:
 80044f6:	4770      	bx	lr

080044f8 <UART_Receive_IT>:
 80044f8:	b513      	push	{r0, r1, r4, lr}
 80044fa:	f890 303e 	ldrb.w	r3, [r0, #62]	; 0x3e
 80044fe:	2b22      	cmp	r3, #34	; 0x22
 8004500:	d153      	bne.n	80045aa <UART_Receive_IT+0xb2>
 8004502:	6881      	ldr	r1, [r0, #8]
 8004504:	6a83      	ldr	r3, [r0, #40]	; 0x28
 8004506:	6802      	ldr	r2, [r0, #0]
 8004508:	f5b1 5f80 	cmp.w	r1, #4096	; 0x1000
 800450c:	d13d      	bne.n	800458a <UART_Receive_IT+0x92>
 800450e:	6901      	ldr	r1, [r0, #16]
 8004510:	2900      	cmp	r1, #0
 8004512:	d13d      	bne.n	8004590 <UART_Receive_IT+0x98>
 8004514:	6852      	ldr	r2, [r2, #4]
 8004516:	f3c2 0208 	ubfx	r2, r2, #0, #9
 800451a:	f823 2b02 	strh.w	r2, [r3], #2
 800451e:	8dc4      	ldrh	r4, [r0, #46]	; 0x2e
 8004520:	6283      	str	r3, [r0, #40]	; 0x28
 8004522:	3c01      	subs	r4, #1
 8004524:	b2a4      	uxth	r4, r4
 8004526:	85c4      	strh	r4, [r0, #46]	; 0x2e
 8004528:	2c00      	cmp	r4, #0
 800452a:	d12c      	bne.n	8004586 <UART_Receive_IT+0x8e>
 800452c:	6803      	ldr	r3, [r0, #0]
 800452e:	68da      	ldr	r2, [r3, #12]
 8004530:	f022 0220 	bic.w	r2, r2, #32
 8004534:	60da      	str	r2, [r3, #12]
 8004536:	68da      	ldr	r2, [r3, #12]
 8004538:	f422 7280 	bic.w	r2, r2, #256	; 0x100
 800453c:	60da      	str	r2, [r3, #12]
 800453e:	695a      	ldr	r2, [r3, #20]
 8004540:	f022 0201 	bic.w	r2, r2, #1
 8004544:	615a      	str	r2, [r3, #20]
 8004546:	2320      	movs	r3, #32
 8004548:	f880 303e 	strb.w	r3, [r0, #62]	; 0x3e
 800454c:	6b03      	ldr	r3, [r0, #48]	; 0x30
 800454e:	2b01      	cmp	r3, #1
 8004550:	6803      	ldr	r3, [r0, #0]
 8004552:	d127      	bne.n	80045a4 <UART_Receive_IT+0xac>
 8004554:	6304      	str	r4, [r0, #48]	; 0x30
 8004556:	f103 020c 	add.w	r2, r3, #12
 800455a:	e852 2f00 	ldrex	r2, [r2]
 800455e:	f022 0210 	bic.w	r2, r2, #16
 8004562:	f103 040c 	add.w	r4, r3, #12
 8004566:	e844 2100 	strex	r1, r2, [r4]
 800456a:	2900      	cmp	r1, #0
 800456c:	d1f3      	bne.n	8004556 <UART_Receive_IT+0x5e>
 800456e:	681a      	ldr	r2, [r3, #0]
 8004570:	06d2      	lsls	r2, r2, #27
 8004572:	d505      	bpl.n	8004580 <UART_Receive_IT+0x88>
 8004574:	9101      	str	r1, [sp, #4]
 8004576:	681a      	ldr	r2, [r3, #0]
 8004578:	9201      	str	r2, [sp, #4]
 800457a:	685b      	ldr	r3, [r3, #4]
 800457c:	9301      	str	r3, [sp, #4]
 800457e:	9b01      	ldr	r3, [sp, #4]
 8004580:	8d81      	ldrh	r1, [r0, #44]	; 0x2c
 8004582:	f7ff ffb8 	bl	80044f6 <HAL_UARTEx_RxEventCallback>
 8004586:	2000      	movs	r0, #0
 8004588:	e010      	b.n	80045ac <UART_Receive_IT+0xb4>
 800458a:	b939      	cbnz	r1, 800459c <UART_Receive_IT+0xa4>
 800458c:	6901      	ldr	r1, [r0, #16]
 800458e:	b929      	cbnz	r1, 800459c <UART_Receive_IT+0xa4>
 8004590:	6852      	ldr	r2, [r2, #4]
 8004592:	b2d2      	uxtb	r2, r2
 8004594:	701a      	strb	r2, [r3, #0]
 8004596:	6a83      	ldr	r3, [r0, #40]	; 0x28
 8004598:	3301      	adds	r3, #1
 800459a:	e7c0      	b.n	800451e <UART_Receive_IT+0x26>
 800459c:	6852      	ldr	r2, [r2, #4]
 800459e:	f002 027f 	and.w	r2, r2, #127	; 0x7f
 80045a2:	e7f7      	b.n	8004594 <UART_Receive_IT+0x9c>
 80045a4:	f7fd fdc2 	bl	800212c <HAL_UART_RxCpltCallback>
 80045a8:	e7ed      	b.n	8004586 <UART_Receive_IT+0x8e>
 80045aa:	2002      	movs	r0, #2
 80045ac:	b002      	add	sp, #8
 80045ae:	bd10      	pop	{r4, pc}

080045b0 <HAL_UART_IRQHandler>:
 80045b0:	6803      	ldr	r3, [r0, #0]
 80045b2:	b537      	push	{r0, r1, r2, r4, r5, lr}
 80045b4:	681a      	ldr	r2, [r3, #0]
 80045b6:	68d9      	ldr	r1, [r3, #12]
 80045b8:	695d      	ldr	r5, [r3, #20]
 80045ba:	f012 0f0f 	tst.w	r2, #15
 80045be:	4604      	mov	r4, r0
 80045c0:	d108      	bne.n	80045d4 <HAL_UART_IRQHandler+0x24>
 80045c2:	0695      	lsls	r5, r2, #26
 80045c4:	d568      	bpl.n	8004698 <HAL_UART_IRQHandler+0xe8>
 80045c6:	068d      	lsls	r5, r1, #26
 80045c8:	d566      	bpl.n	8004698 <HAL_UART_IRQHandler+0xe8>
 80045ca:	b003      	add	sp, #12
 80045cc:	e8bd 4030 	ldmia.w	sp!, {r4, r5, lr}
 80045d0:	f7ff bf92 	b.w	80044f8 <UART_Receive_IT>
 80045d4:	f005 0001 	and.w	r0, r5, #1
 80045d8:	f401 7590 	and.w	r5, r1, #288	; 0x120
 80045dc:	4305      	orrs	r5, r0
 80045de:	d05b      	beq.n	8004698 <HAL_UART_IRQHandler+0xe8>
 80045e0:	07d5      	lsls	r5, r2, #31
 80045e2:	d505      	bpl.n	80045f0 <HAL_UART_IRQHandler+0x40>
 80045e4:	05cb      	lsls	r3, r1, #23
 80045e6:	bf42      	ittt	mi
 80045e8:	6c23      	ldrmi	r3, [r4, #64]	; 0x40
 80045ea:	f043 0301 	orrmi.w	r3, r3, #1
 80045ee:	6423      	strmi	r3, [r4, #64]	; 0x40
 80045f0:	0755      	lsls	r5, r2, #29
 80045f2:	d504      	bpl.n	80045fe <HAL_UART_IRQHandler+0x4e>
 80045f4:	b118      	cbz	r0, 80045fe <HAL_UART_IRQHandler+0x4e>
 80045f6:	6c23      	ldr	r3, [r4, #64]	; 0x40
 80045f8:	f043 0302 	orr.w	r3, r3, #2
 80045fc:	6423      	str	r3, [r4, #64]	; 0x40
 80045fe:	0793      	lsls	r3, r2, #30
 8004600:	d504      	bpl.n	800460c <HAL_UART_IRQHandler+0x5c>
 8004602:	b118      	cbz	r0, 800460c <HAL_UART_IRQHandler+0x5c>
 8004604:	6c23      	ldr	r3, [r4, #64]	; 0x40
 8004606:	f043 0304 	orr.w	r3, r3, #4
 800460a:	6423      	str	r3, [r4, #64]	; 0x40
 800460c:	0715      	lsls	r5, r2, #28
 800460e:	d507      	bpl.n	8004620 <HAL_UART_IRQHandler+0x70>
 8004610:	f001 0320 	and.w	r3, r1, #32
 8004614:	4303      	orrs	r3, r0
 8004616:	bf1e      	ittt	ne
 8004618:	6c23      	ldrne	r3, [r4, #64]	; 0x40
 800461a:	f043 0308 	orrne.w	r3, r3, #8
 800461e:	6423      	strne	r3, [r4, #64]	; 0x40
 8004620:	6c23      	ldr	r3, [r4, #64]	; 0x40
 8004622:	2b00      	cmp	r3, #0
 8004624:	d032      	beq.n	800468c <HAL_UART_IRQHandler+0xdc>
 8004626:	0690      	lsls	r0, r2, #26
 8004628:	d504      	bpl.n	8004634 <HAL_UART_IRQHandler+0x84>
 800462a:	068a      	lsls	r2, r1, #26
 800462c:	d502      	bpl.n	8004634 <HAL_UART_IRQHandler+0x84>
 800462e:	4620      	mov	r0, r4
 8004630:	f7ff ff62 	bl	80044f8 <UART_Receive_IT>
 8004634:	6823      	ldr	r3, [r4, #0]
 8004636:	695b      	ldr	r3, [r3, #20]
 8004638:	6c25      	ldr	r5, [r4, #64]	; 0x40
 800463a:	f003 0340 	and.w	r3, r3, #64	; 0x40
 800463e:	f005 0508 	and.w	r5, r5, #8
 8004642:	431d      	orrs	r5, r3
 8004644:	4620      	mov	r0, r4
 8004646:	d023      	beq.n	8004690 <HAL_UART_IRQHandler+0xe0>
 8004648:	f7ff fe06 	bl	8004258 <UART_EndRxTransfer>
 800464c:	6822      	ldr	r2, [r4, #0]
 800464e:	6953      	ldr	r3, [r2, #20]
 8004650:	065b      	lsls	r3, r3, #25
 8004652:	d518      	bpl.n	8004686 <HAL_UART_IRQHandler+0xd6>
 8004654:	f102 0314 	add.w	r3, r2, #20
 8004658:	e853 3f00 	ldrex	r3, [r3]
 800465c:	f023 0340 	bic.w	r3, r3, #64	; 0x40
 8004660:	f102 0014 	add.w	r0, r2, #20
 8004664:	e840 3100 	strex	r1, r3, [r0]
 8004668:	2900      	cmp	r1, #0
 800466a:	d1f3      	bne.n	8004654 <HAL_UART_IRQHandler+0xa4>
 800466c:	6ba0      	ldr	r0, [r4, #56]	; 0x38
 800466e:	b150      	cbz	r0, 8004686 <HAL_UART_IRQHandler+0xd6>
 8004670:	4b72      	ldr	r3, [pc, #456]	; (800483c <HAL_UART_IRQHandler+0x28c>)
 8004672:	6503      	str	r3, [r0, #80]	; 0x50
 8004674:	f7fe fe3a 	bl	80032ec <HAL_DMA_Abort_IT>
 8004678:	b140      	cbz	r0, 800468c <HAL_UART_IRQHandler+0xdc>
 800467a:	6ba0      	ldr	r0, [r4, #56]	; 0x38
 800467c:	6d03      	ldr	r3, [r0, #80]	; 0x50
 800467e:	b003      	add	sp, #12
 8004680:	e8bd 4030 	ldmia.w	sp!, {r4, r5, lr}
 8004684:	4718      	bx	r3
 8004686:	4620      	mov	r0, r4
 8004688:	f7ff ff2c 	bl	80044e4 <HAL_UART_ErrorCallback>
 800468c:	b003      	add	sp, #12
 800468e:	bd30      	pop	{r4, r5, pc}
 8004690:	f7ff ff28 	bl	80044e4 <HAL_UART_ErrorCallback>
 8004694:	6425      	str	r5, [r4, #64]	; 0x40
 8004696:	e7f9      	b.n	800468c <HAL_UART_IRQHandler+0xdc>
 8004698:	6b20      	ldr	r0, [r4, #48]	; 0x30
 800469a:	2801      	cmp	r0, #1
 800469c:	f040 8091 	bne.w	80047c2 <HAL_UART_IRQHandler+0x212>
 80046a0:	06d5      	lsls	r5, r2, #27
 80046a2:	f140 808e 	bpl.w	80047c2 <HAL_UART_IRQHandler+0x212>
 80046a6:	06c8      	lsls	r0, r1, #27
 80046a8:	f140 808b 	bpl.w	80047c2 <HAL_UART_IRQHandler+0x212>
 80046ac:	2200      	movs	r2, #0
 80046ae:	9201      	str	r2, [sp, #4]
 80046b0:	681a      	ldr	r2, [r3, #0]
 80046b2:	9201      	str	r2, [sp, #4]
 80046b4:	685a      	ldr	r2, [r3, #4]
 80046b6:	9201      	str	r2, [sp, #4]
 80046b8:	9a01      	ldr	r2, [sp, #4]
 80046ba:	695a      	ldr	r2, [r3, #20]
 80046bc:	0655      	lsls	r5, r2, #25
 80046be:	d54c      	bpl.n	800475a <HAL_UART_IRQHandler+0x1aa>
 80046c0:	6ba1      	ldr	r1, [r4, #56]	; 0x38
 80046c2:	680a      	ldr	r2, [r1, #0]
 80046c4:	6852      	ldr	r2, [r2, #4]
 80046c6:	b292      	uxth	r2, r2
 80046c8:	2a00      	cmp	r2, #0
 80046ca:	d0df      	beq.n	800468c <HAL_UART_IRQHandler+0xdc>
 80046cc:	8da0      	ldrh	r0, [r4, #44]	; 0x2c
 80046ce:	4290      	cmp	r0, r2
 80046d0:	d9dc      	bls.n	800468c <HAL_UART_IRQHandler+0xdc>
 80046d2:	85e2      	strh	r2, [r4, #46]	; 0x2e
 80046d4:	69ca      	ldr	r2, [r1, #28]
 80046d6:	f5b2 7f80 	cmp.w	r2, #256	; 0x100
 80046da:	d036      	beq.n	800474a <HAL_UART_IRQHandler+0x19a>
 80046dc:	f103 020c 	add.w	r2, r3, #12
 80046e0:	e852 2f00 	ldrex	r2, [r2]
 80046e4:	f422 7280 	bic.w	r2, r2, #256	; 0x100
 80046e8:	f103 000c 	add.w	r0, r3, #12
 80046ec:	e840 2100 	strex	r1, r2, [r0]
 80046f0:	2900      	cmp	r1, #0
 80046f2:	d1f3      	bne.n	80046dc <HAL_UART_IRQHandler+0x12c>
 80046f4:	f103 0214 	add.w	r2, r3, #20
 80046f8:	e852 2f00 	ldrex	r2, [r2]
 80046fc:	f022 0201 	bic.w	r2, r2, #1
 8004700:	f103 0014 	add.w	r0, r3, #20
 8004704:	e840 2100 	strex	r1, r2, [r0]
 8004708:	2900      	cmp	r1, #0
 800470a:	d1f3      	bne.n	80046f4 <HAL_UART_IRQHandler+0x144>
 800470c:	f103 0214 	add.w	r2, r3, #20
 8004710:	e852 2f00 	ldrex	r2, [r2]
 8004714:	f022 0240 	bic.w	r2, r2, #64	; 0x40
 8004718:	f103 0014 	add.w	r0, r3, #20
 800471c:	e840 2100 	strex	r1, r2, [r0]
 8004720:	2900      	cmp	r1, #0
 8004722:	d1f3      	bne.n	800470c <HAL_UART_IRQHandler+0x15c>
 8004724:	2220      	movs	r2, #32
 8004726:	f884 203e 	strb.w	r2, [r4, #62]	; 0x3e
 800472a:	6321      	str	r1, [r4, #48]	; 0x30
 800472c:	f103 020c 	add.w	r2, r3, #12
 8004730:	e852 2f00 	ldrex	r2, [r2]
 8004734:	f022 0210 	bic.w	r2, r2, #16
 8004738:	f103 000c 	add.w	r0, r3, #12
 800473c:	e840 2100 	strex	r1, r2, [r0]
 8004740:	2900      	cmp	r1, #0
 8004742:	d1f3      	bne.n	800472c <HAL_UART_IRQHandler+0x17c>
 8004744:	6ba0      	ldr	r0, [r4, #56]	; 0x38
 8004746:	f7fe fd8d 	bl	8003264 <HAL_DMA_Abort>
 800474a:	8de3      	ldrh	r3, [r4, #46]	; 0x2e
 800474c:	8da1      	ldrh	r1, [r4, #44]	; 0x2c
 800474e:	1ac9      	subs	r1, r1, r3
 8004750:	b289      	uxth	r1, r1
 8004752:	4620      	mov	r0, r4
 8004754:	f7ff fecf 	bl	80044f6 <HAL_UARTEx_RxEventCallback>
 8004758:	e798      	b.n	800468c <HAL_UART_IRQHandler+0xdc>
 800475a:	8de1      	ldrh	r1, [r4, #46]	; 0x2e
 800475c:	b28a      	uxth	r2, r1
 800475e:	8de1      	ldrh	r1, [r4, #46]	; 0x2e
 8004760:	b289      	uxth	r1, r1
 8004762:	2900      	cmp	r1, #0
 8004764:	d092      	beq.n	800468c <HAL_UART_IRQHandler+0xdc>
 8004766:	8da1      	ldrh	r1, [r4, #44]	; 0x2c
 8004768:	1a89      	subs	r1, r1, r2
 800476a:	b289      	uxth	r1, r1
 800476c:	2900      	cmp	r1, #0
 800476e:	d08d      	beq.n	800468c <HAL_UART_IRQHandler+0xdc>
 8004770:	f103 020c 	add.w	r2, r3, #12
 8004774:	e852 2f00 	ldrex	r2, [r2]
 8004778:	f422 7290 	bic.w	r2, r2, #288	; 0x120
 800477c:	f103 050c 	add.w	r5, r3, #12
 8004780:	e845 2000 	strex	r0, r2, [r5]
 8004784:	2800      	cmp	r0, #0
 8004786:	d1f3      	bne.n	8004770 <HAL_UART_IRQHandler+0x1c0>
 8004788:	f103 0214 	add.w	r2, r3, #20
 800478c:	e852 2f00 	ldrex	r2, [r2]
 8004790:	f022 0201 	bic.w	r2, r2, #1
 8004794:	f103 0514 	add.w	r5, r3, #20
 8004798:	e845 2000 	strex	r0, r2, [r5]
 800479c:	2800      	cmp	r0, #0
 800479e:	d1f3      	bne.n	8004788 <HAL_UART_IRQHandler+0x1d8>
 80047a0:	2220      	movs	r2, #32
 80047a2:	f884 203e 	strb.w	r2, [r4, #62]	; 0x3e
 80047a6:	6320      	str	r0, [r4, #48]	; 0x30
 80047a8:	f103 020c 	add.w	r2, r3, #12
 80047ac:	e852 2f00 	ldrex	r2, [r2]
 80047b0:	f022 0210 	bic.w	r2, r2, #16
 80047b4:	f103 050c 	add.w	r5, r3, #12
 80047b8:	e845 2000 	strex	r0, r2, [r5]
 80047bc:	2800      	cmp	r0, #0
 80047be:	d1f3      	bne.n	80047a8 <HAL_UART_IRQHandler+0x1f8>
 80047c0:	e7c7      	b.n	8004752 <HAL_UART_IRQHandler+0x1a2>
 80047c2:	0610      	lsls	r0, r2, #24
 80047c4:	d528      	bpl.n	8004818 <HAL_UART_IRQHandler+0x268>
 80047c6:	060d      	lsls	r5, r1, #24
 80047c8:	d526      	bpl.n	8004818 <HAL_UART_IRQHandler+0x268>
 80047ca:	f894 203d 	ldrb.w	r2, [r4, #61]	; 0x3d
 80047ce:	2a21      	cmp	r2, #33	; 0x21
 80047d0:	f47f af5c 	bne.w	800468c <HAL_UART_IRQHandler+0xdc>
 80047d4:	68a1      	ldr	r1, [r4, #8]
 80047d6:	6a22      	ldr	r2, [r4, #32]
 80047d8:	f5b1 5f80 	cmp.w	r1, #4096	; 0x1000
 80047dc:	d117      	bne.n	800480e <HAL_UART_IRQHandler+0x25e>
 80047de:	6921      	ldr	r1, [r4, #16]
 80047e0:	b9a9      	cbnz	r1, 800480e <HAL_UART_IRQHandler+0x25e>
 80047e2:	f832 1b02 	ldrh.w	r1, [r2], #2
 80047e6:	f3c1 0108 	ubfx	r1, r1, #0, #9
 80047ea:	6059      	str	r1, [r3, #4]
 80047ec:	6222      	str	r2, [r4, #32]
 80047ee:	8ce2      	ldrh	r2, [r4, #38]	; 0x26
 80047f0:	3a01      	subs	r2, #1
 80047f2:	b292      	uxth	r2, r2
 80047f4:	84e2      	strh	r2, [r4, #38]	; 0x26
 80047f6:	2a00      	cmp	r2, #0
 80047f8:	f47f af48 	bne.w	800468c <HAL_UART_IRQHandler+0xdc>
 80047fc:	68da      	ldr	r2, [r3, #12]
 80047fe:	f022 0280 	bic.w	r2, r2, #128	; 0x80
 8004802:	60da      	str	r2, [r3, #12]
 8004804:	68da      	ldr	r2, [r3, #12]
 8004806:	f042 0240 	orr.w	r2, r2, #64	; 0x40
 800480a:	60da      	str	r2, [r3, #12]
 800480c:	e73e      	b.n	800468c <HAL_UART_IRQHandler+0xdc>
 800480e:	1c51      	adds	r1, r2, #1
 8004810:	6221      	str	r1, [r4, #32]
 8004812:	7812      	ldrb	r2, [r2, #0]
 8004814:	605a      	str	r2, [r3, #4]
 8004816:	e7ea      	b.n	80047ee <HAL_UART_IRQHandler+0x23e>
 8004818:	0650      	lsls	r0, r2, #25
 800481a:	f57f af37 	bpl.w	800468c <HAL_UART_IRQHandler+0xdc>
 800481e:	064a      	lsls	r2, r1, #25
 8004820:	f57f af34 	bpl.w	800468c <HAL_UART_IRQHandler+0xdc>
 8004824:	68da      	ldr	r2, [r3, #12]
 8004826:	f022 0240 	bic.w	r2, r2, #64	; 0x40
 800482a:	60da      	str	r2, [r3, #12]
 800482c:	2320      	movs	r3, #32
 800482e:	f884 303d 	strb.w	r3, [r4, #61]	; 0x3d
 8004832:	4620      	mov	r0, r4
 8004834:	f7ff fe55 	bl	80044e2 <HAL_UART_TxCpltCallback>
 8004838:	e728      	b.n	800468c <HAL_UART_IRQHandler+0xdc>
 800483a:	bf00      	nop
 800483c:	080044e7 	.word	0x080044e7

08004840 <UART_Start_Receive_IT>:
 8004840:	85c2      	strh	r2, [r0, #46]	; 0x2e
 8004842:	8582      	strh	r2, [r0, #44]	; 0x2c
 8004844:	2322      	movs	r3, #34	; 0x22
 8004846:	2200      	movs	r2, #0
 8004848:	6402      	str	r2, [r0, #64]	; 0x40
 800484a:	f880 303e 	strb.w	r3, [r0, #62]	; 0x3e
 800484e:	6803      	ldr	r3, [r0, #0]
 8004850:	f880 203c 	strb.w	r2, [r0, #60]	; 0x3c
 8004854:	6281      	str	r1, [r0, #40]	; 0x28
 8004856:	68d9      	ldr	r1, [r3, #12]
 8004858:	f441 7180 	orr.w	r1, r1, #256	; 0x100
 800485c:	60d9      	str	r1, [r3, #12]
 800485e:	6959      	ldr	r1, [r3, #20]
 8004860:	f041 0101 	orr.w	r1, r1, #1
 8004864:	6159      	str	r1, [r3, #20]
 8004866:	68d9      	ldr	r1, [r3, #12]
 8004868:	f041 0120 	orr.w	r1, r1, #32
 800486c:	60d9      	str	r1, [r3, #12]
 800486e:	4610      	mov	r0, r2
 8004870:	4770      	bx	lr

08004872 <HAL_UART_Receive_IT>:
 8004872:	b470      	push	{r4, r5, r6}
 8004874:	f890 603e 	ldrb.w	r6, [r0, #62]	; 0x3e
 8004878:	2e20      	cmp	r6, #32
 800487a:	d110      	bne.n	800489e <HAL_UART_Receive_IT+0x2c>
 800487c:	b161      	cbz	r1, 8004898 <HAL_UART_Receive_IT+0x26>
 800487e:	b15a      	cbz	r2, 8004898 <HAL_UART_Receive_IT+0x26>
 8004880:	f890 403c 	ldrb.w	r4, [r0, #60]	; 0x3c
 8004884:	2c01      	cmp	r4, #1
 8004886:	d00a      	beq.n	800489e <HAL_UART_Receive_IT+0x2c>
 8004888:	2401      	movs	r4, #1
 800488a:	f880 403c 	strb.w	r4, [r0, #60]	; 0x3c
 800488e:	2400      	movs	r4, #0
 8004890:	6304      	str	r4, [r0, #48]	; 0x30
 8004892:	bc70      	pop	{r4, r5, r6}
 8004894:	f7ff bfd4 	b.w	8004840 <UART_Start_Receive_IT>
 8004898:	2001      	movs	r0, #1
 800489a:	bc70      	pop	{r4, r5, r6}
 800489c:	4770      	bx	lr
 800489e:	2002      	movs	r0, #2
 80048a0:	e7fb      	b.n	800489a <HAL_UART_Receive_IT+0x28>

080048a2 <LL_GPIO_Init>:
 80048a2:	e92d 4ff0 	stmdb	sp!, {r4, r5, r6, r7, r8, r9, sl, fp, lr}
 80048a6:	4602      	mov	r2, r0
 80048a8:	680d      	ldr	r5, [r1, #0]
 80048aa:	fa95 f4a5 	rbit	r4, r5
 80048ae:	f04f 0e01 	mov.w	lr, #1
 80048b2:	fab4 f484 	clz	r4, r4
 80048b6:	2603      	movs	r6, #3
 80048b8:	f04f 0c0f 	mov.w	ip, #15
 80048bc:	fa35 f004 	lsrs.w	r0, r5, r4
 80048c0:	d101      	bne.n	80048c6 <LL_GPIO_Init+0x24>
 80048c2:	e8bd 8ff0 	ldmia.w	sp!, {r4, r5, r6, r7, r8, r9, sl, fp, pc}
 80048c6:	fa0e f304 	lsl.w	r3, lr, r4
 80048ca:	402b      	ands	r3, r5
 80048cc:	d06d      	beq.n	80049aa <LL_GPIO_Init+0x108>
 80048ce:	6848      	ldr	r0, [r1, #4]
 80048d0:	1e47      	subs	r7, r0, #1
 80048d2:	2f01      	cmp	r7, #1
 80048d4:	d81e      	bhi.n	8004914 <LL_GPIO_Init+0x72>
 80048d6:	6897      	ldr	r7, [r2, #8]
 80048d8:	fa93 f8a3 	rbit	r8, r3
 80048dc:	fab8 f888 	clz	r8, r8
 80048e0:	fa93 f9a3 	rbit	r9, r3
 80048e4:	ea4f 0848 	mov.w	r8, r8, lsl #1
 80048e8:	fa06 f808 	lsl.w	r8, r6, r8
 80048ec:	ea27 0808 	bic.w	r8, r7, r8
 80048f0:	fab9 f989 	clz	r9, r9
 80048f4:	688f      	ldr	r7, [r1, #8]
 80048f6:	ea4f 0949 	mov.w	r9, r9, lsl #1
 80048fa:	fa07 f709 	lsl.w	r7, r7, r9
 80048fe:	ea48 0707 	orr.w	r7, r8, r7
 8004902:	6097      	str	r7, [r2, #8]
 8004904:	6857      	ldr	r7, [r2, #4]
 8004906:	ea27 0803 	bic.w	r8, r7, r3
 800490a:	68cf      	ldr	r7, [r1, #12]
 800490c:	435f      	muls	r7, r3
 800490e:	ea48 0707 	orr.w	r7, r8, r7
 8004912:	6057      	str	r7, [r2, #4]
 8004914:	68d7      	ldr	r7, [r2, #12]
 8004916:	fa93 f8a3 	rbit	r8, r3
 800491a:	fab8 f888 	clz	r8, r8
 800491e:	fa93 f9a3 	rbit	r9, r3
 8004922:	ea4f 0848 	mov.w	r8, r8, lsl #1
 8004926:	fa06 f808 	lsl.w	r8, r6, r8
 800492a:	ea27 0808 	bic.w	r8, r7, r8
 800492e:	fab9 f989 	clz	r9, r9
 8004932:	690f      	ldr	r7, [r1, #16]
 8004934:	ea4f 0949 	mov.w	r9, r9, lsl #1
 8004938:	fa07 f709 	lsl.w	r7, r7, r9
 800493c:	ea48 0707 	orr.w	r7, r8, r7
 8004940:	2802      	cmp	r0, #2
 8004942:	60d7      	str	r7, [r2, #12]
 8004944:	d11d      	bne.n	8004982 <LL_GPIO_Init+0xe0>
 8004946:	fa93 f7a3 	rbit	r7, r3
 800494a:	fab7 f787 	clz	r7, r7
 800494e:	2f07      	cmp	r7, #7
 8004950:	f8d1 a014 	ldr.w	sl, [r1, #20]
 8004954:	dc2b      	bgt.n	80049ae <LL_GPIO_Init+0x10c>
 8004956:	6a17      	ldr	r7, [r2, #32]
 8004958:	fa93 f9a3 	rbit	r9, r3
 800495c:	fab9 f989 	clz	r9, r9
 8004960:	fa93 f8a3 	rbit	r8, r3
 8004964:	fab8 f888 	clz	r8, r8
 8004968:	ea4f 0989 	mov.w	r9, r9, lsl #2
 800496c:	fa0c f909 	lsl.w	r9, ip, r9
 8004970:	ea4f 0888 	mov.w	r8, r8, lsl #2
 8004974:	ea27 0709 	bic.w	r7, r7, r9
 8004978:	fa0a fa08 	lsl.w	sl, sl, r8
 800497c:	ea47 070a 	orr.w	r7, r7, sl
 8004980:	6217      	str	r7, [r2, #32]
 8004982:	f8d2 8000 	ldr.w	r8, [r2]
 8004986:	fa93 f7a3 	rbit	r7, r3
 800498a:	fab7 f787 	clz	r7, r7
 800498e:	fa93 f3a3 	rbit	r3, r3
 8004992:	fab3 f383 	clz	r3, r3
 8004996:	007f      	lsls	r7, r7, #1
 8004998:	fa06 f707 	lsl.w	r7, r6, r7
 800499c:	005b      	lsls	r3, r3, #1
 800499e:	ea28 0707 	bic.w	r7, r8, r7
 80049a2:	fa00 f303 	lsl.w	r3, r0, r3
 80049a6:	433b      	orrs	r3, r7
 80049a8:	6013      	str	r3, [r2, #0]
 80049aa:	3401      	adds	r4, #1
 80049ac:	e786      	b.n	80048bc <LL_GPIO_Init+0x1a>
 80049ae:	f8d2 b024 	ldr.w	fp, [r2, #36]	; 0x24
 80049b2:	0a1f      	lsrs	r7, r3, #8
 80049b4:	fa97 f8a7 	rbit	r8, r7
 80049b8:	fab8 f888 	clz	r8, r8
 80049bc:	fa97 f7a7 	rbit	r7, r7
 80049c0:	fab7 f787 	clz	r7, r7
 80049c4:	ea4f 0888 	mov.w	r8, r8, lsl #2
 80049c8:	fa0c f808 	lsl.w	r8, ip, r8
 80049cc:	00bf      	lsls	r7, r7, #2
 80049ce:	ea2b 0b08 	bic.w	fp, fp, r8
 80049d2:	fa0a f707 	lsl.w	r7, sl, r7
 80049d6:	ea4b 0707 	orr.w	r7, fp, r7
 80049da:	6257      	str	r7, [r2, #36]	; 0x24
 80049dc:	e7d1      	b.n	8004982 <LL_GPIO_Init+0xe0>
	...

080049e0 <LL_I2C_Init>:
 80049e0:	b5f0      	push	{r4, r5, r6, r7, lr}
 80049e2:	6803      	ldr	r3, [r0, #0]
 80049e4:	4f33      	ldr	r7, [pc, #204]	; (8004ab4 <LL_I2C_Init+0xd4>)
 80049e6:	4604      	mov	r4, r0
 80049e8:	b085      	sub	sp, #20
 80049ea:	f023 0301 	bic.w	r3, r3, #1
 80049ee:	6003      	str	r3, [r0, #0]
 80049f0:	4668      	mov	r0, sp
 80049f2:	460d      	mov	r5, r1
 80049f4:	f000 f8be 	bl	8004b74 <LL_RCC_GetSystemClocksFreq>
 80049f8:	6861      	ldr	r1, [r4, #4]
 80049fa:	9b02      	ldr	r3, [sp, #8]
 80049fc:	fbb3 f7f7 	udiv	r7, r3, r7
 8004a00:	f021 013f 	bic.w	r1, r1, #63	; 0x3f
 8004a04:	e9d5 2601 	ldrd	r2, r6, [r5, #4]
 8004a08:	4339      	orrs	r1, r7
 8004a0a:	6061      	str	r1, [r4, #4]
 8004a0c:	492a      	ldr	r1, [pc, #168]	; (8004ab8 <LL_I2C_Init+0xd8>)
 8004a0e:	6a20      	ldr	r0, [r4, #32]
 8004a10:	428a      	cmp	r2, r1
 8004a12:	468c      	mov	ip, r1
 8004a14:	bf85      	ittet	hi
 8004a16:	f44f 7196 	movhi.w	r1, #300	; 0x12c
 8004a1a:	4379      	mulhi	r1, r7
 8004a1c:	1c79      	addls	r1, r7, #1
 8004a1e:	f44f 777a 	movhi.w	r7, #1000	; 0x3e8
 8004a22:	f020 003f 	bic.w	r0, r0, #63	; 0x3f
 8004a26:	bf84      	itt	hi
 8004a28:	fbb1 f1f7 	udivhi	r1, r1, r7
 8004a2c:	3101      	addhi	r1, #1
 8004a2e:	4301      	orrs	r1, r0
 8004a30:	4562      	cmp	r2, ip
 8004a32:	6221      	str	r1, [r4, #32]
 8004a34:	d934      	bls.n	8004aa0 <LL_I2C_Init+0xc0>
 8004a36:	bb6e      	cbnz	r6, 8004a94 <LL_I2C_Init+0xb4>
 8004a38:	eb02 0242 	add.w	r2, r2, r2, lsl #1
 8004a3c:	fbb3 f3f2 	udiv	r3, r3, r2
 8004a40:	f3c3 020b 	ubfx	r2, r3, #0, #12
 8004a44:	b34a      	cbz	r2, 8004a9a <LL_I2C_Init+0xba>
 8004a46:	f443 4300 	orr.w	r3, r3, #32768	; 0x8000
 8004a4a:	4333      	orrs	r3, r6
 8004a4c:	69e2      	ldr	r2, [r4, #28]
 8004a4e:	6969      	ldr	r1, [r5, #20]
 8004a50:	f422 424f 	bic.w	r2, r2, #52992	; 0xcf00
 8004a54:	f022 02ff 	bic.w	r2, r2, #255	; 0xff
 8004a58:	4313      	orrs	r3, r2
 8004a5a:	61e3      	str	r3, [r4, #28]
 8004a5c:	68a2      	ldr	r2, [r4, #8]
 8004a5e:	68eb      	ldr	r3, [r5, #12]
 8004a60:	f422 4203 	bic.w	r2, r2, #33536	; 0x8300
 8004a64:	430b      	orrs	r3, r1
 8004a66:	f022 02ff 	bic.w	r2, r2, #255	; 0xff
 8004a6a:	4313      	orrs	r3, r2
 8004a6c:	60a3      	str	r3, [r4, #8]
 8004a6e:	6823      	ldr	r3, [r4, #0]
 8004a70:	682a      	ldr	r2, [r5, #0]
 8004a72:	f023 031a 	bic.w	r3, r3, #26
 8004a76:	4313      	orrs	r3, r2
 8004a78:	6023      	str	r3, [r4, #0]
 8004a7a:	6823      	ldr	r3, [r4, #0]
 8004a7c:	692a      	ldr	r2, [r5, #16]
 8004a7e:	f043 0301 	orr.w	r3, r3, #1
 8004a82:	6023      	str	r3, [r4, #0]
 8004a84:	6823      	ldr	r3, [r4, #0]
 8004a86:	f423 6380 	bic.w	r3, r3, #1024	; 0x400
 8004a8a:	4313      	orrs	r3, r2
 8004a8c:	2000      	movs	r0, #0
 8004a8e:	6023      	str	r3, [r4, #0]
 8004a90:	b005      	add	sp, #20
 8004a92:	bdf0      	pop	{r4, r5, r6, r7, pc}
 8004a94:	2119      	movs	r1, #25
 8004a96:	434a      	muls	r2, r1
 8004a98:	e7d0      	b.n	8004a3c <LL_I2C_Init+0x5c>
 8004a9a:	f248 0301 	movw	r3, #32769	; 0x8001
 8004a9e:	e7d4      	b.n	8004a4a <LL_I2C_Init+0x6a>
 8004aa0:	0052      	lsls	r2, r2, #1
 8004aa2:	fbb3 f3f2 	udiv	r3, r3, r2
 8004aa6:	f640 72fc 	movw	r2, #4092	; 0xffc
 8004aaa:	4213      	tst	r3, r2
 8004aac:	bf08      	it	eq
 8004aae:	2304      	moveq	r3, #4
 8004ab0:	e7cc      	b.n	8004a4c <LL_I2C_Init+0x6c>
 8004ab2:	bf00      	nop
 8004ab4:	000f4240 	.word	0x000f4240
 8004ab8:	000186a0 	.word	0x000186a0

08004abc <RCC_GetHCLKClockFreq>:
 8004abc:	4b03      	ldr	r3, [pc, #12]	; (8004acc <RCC_GetHCLKClockFreq+0x10>)
 8004abe:	4a04      	ldr	r2, [pc, #16]	; (8004ad0 <RCC_GetHCLKClockFreq+0x14>)
 8004ac0:	689b      	ldr	r3, [r3, #8]
 8004ac2:	f3c3 1303 	ubfx	r3, r3, #4, #4
 8004ac6:	5cd3      	ldrb	r3, [r2, r3]
 8004ac8:	40d8      	lsrs	r0, r3
 8004aca:	4770      	bx	lr
 8004acc:	40023800 	.word	0x40023800
 8004ad0:	0800ac5c 	.word	0x0800ac5c

08004ad4 <RCC_GetPCLK1ClockFreq>:
 8004ad4:	4b03      	ldr	r3, [pc, #12]	; (8004ae4 <RCC_GetPCLK1ClockFreq+0x10>)
 8004ad6:	4a04      	ldr	r2, [pc, #16]	; (8004ae8 <RCC_GetPCLK1ClockFreq+0x14>)
 8004ad8:	689b      	ldr	r3, [r3, #8]
 8004ada:	f3c3 2382 	ubfx	r3, r3, #10, #3
 8004ade:	5cd3      	ldrb	r3, [r2, r3]
 8004ae0:	40d8      	lsrs	r0, r3
 8004ae2:	4770      	bx	lr
 8004ae4:	40023800 	.word	0x40023800
 8004ae8:	0800ac6c 	.word	0x0800ac6c

08004aec <RCC_GetPCLK2ClockFreq>:
 8004aec:	4b03      	ldr	r3, [pc, #12]	; (8004afc <RCC_GetPCLK2ClockFreq+0x10>)
 8004aee:	4a04      	ldr	r2, [pc, #16]	; (8004b00 <RCC_GetPCLK2ClockFreq+0x14>)
 8004af0:	689b      	ldr	r3, [r3, #8]
 8004af2:	f3c3 3342 	ubfx	r3, r3, #13, #3
 8004af6:	5cd3      	ldrb	r3, [r2, r3]
 8004af8:	40d8      	lsrs	r0, r3
 8004afa:	4770      	bx	lr
 8004afc:	40023800 	.word	0x40023800
 8004b00:	0800ac6c 	.word	0x0800ac6c

08004b04 <RCC_PLL_GetFreqDomain_SYS>:
 8004b04:	4b0e      	ldr	r3, [pc, #56]	; (8004b40 <RCC_PLL_GetFreqDomain_SYS+0x3c>)
 8004b06:	490f      	ldr	r1, [pc, #60]	; (8004b44 <RCC_PLL_GetFreqDomain_SYS+0x40>)
 8004b08:	685a      	ldr	r2, [r3, #4]
 8004b0a:	f412 0f80 	tst.w	r2, #4194304	; 0x400000
 8004b0e:	4a0e      	ldr	r2, [pc, #56]	; (8004b48 <RCC_PLL_GetFreqDomain_SYS+0x44>)
 8004b10:	bf18      	it	ne
 8004b12:	460a      	movne	r2, r1
 8004b14:	2808      	cmp	r0, #8
 8004b16:	d110      	bne.n	8004b3a <RCC_PLL_GetFreqDomain_SYS+0x36>
 8004b18:	6859      	ldr	r1, [r3, #4]
 8004b1a:	6858      	ldr	r0, [r3, #4]
 8004b1c:	685b      	ldr	r3, [r3, #4]
 8004b1e:	f3c3 4301 	ubfx	r3, r3, #16, #2
 8004b22:	f3c0 1088 	ubfx	r0, r0, #6, #9
 8004b26:	3301      	adds	r3, #1
 8004b28:	f001 013f 	and.w	r1, r1, #63	; 0x3f
 8004b2c:	005b      	lsls	r3, r3, #1
 8004b2e:	fbb2 f2f1 	udiv	r2, r2, r1
 8004b32:	4350      	muls	r0, r2
 8004b34:	fbb0 f0f3 	udiv	r0, r0, r3
 8004b38:	4770      	bx	lr
 8004b3a:	2000      	movs	r0, #0
 8004b3c:	4770      	bx	lr
 8004b3e:	bf00      	nop
 8004b40:	40023800 	.word	0x40023800
 8004b44:	017d7840 	.word	0x017d7840
 8004b48:	00f42400 	.word	0x00f42400

08004b4c <RCC_GetSystemClockFreq>:
 8004b4c:	4b06      	ldr	r3, [pc, #24]	; (8004b68 <RCC_GetSystemClockFreq+0x1c>)
 8004b4e:	6898      	ldr	r0, [r3, #8]
 8004b50:	f000 000c 	and.w	r0, r0, #12
 8004b54:	2804      	cmp	r0, #4
 8004b56:	d003      	beq.n	8004b60 <RCC_GetSystemClockFreq+0x14>
 8004b58:	2808      	cmp	r0, #8
 8004b5a:	d103      	bne.n	8004b64 <RCC_GetSystemClockFreq+0x18>
 8004b5c:	f7ff bfd2 	b.w	8004b04 <RCC_PLL_GetFreqDomain_SYS>
 8004b60:	4802      	ldr	r0, [pc, #8]	; (8004b6c <RCC_GetSystemClockFreq+0x20>)
 8004b62:	4770      	bx	lr
 8004b64:	4802      	ldr	r0, [pc, #8]	; (8004b70 <RCC_GetSystemClockFreq+0x24>)
 8004b66:	4770      	bx	lr
 8004b68:	40023800 	.word	0x40023800
 8004b6c:	017d7840 	.word	0x017d7840
 8004b70:	00f42400 	.word	0x00f42400

08004b74 <LL_RCC_GetSystemClocksFreq>:
 8004b74:	b510      	push	{r4, lr}
 8004b76:	4604      	mov	r4, r0
 8004b78:	f7ff ffe8 	bl	8004b4c <RCC_GetSystemClockFreq>
 8004b7c:	6020      	str	r0, [r4, #0]
 8004b7e:	f7ff ff9d 	bl	8004abc <RCC_GetHCLKClockFreq>
 8004b82:	6060      	str	r0, [r4, #4]
 8004b84:	f7ff ffa6 	bl	8004ad4 <RCC_GetPCLK1ClockFreq>
 8004b88:	60a0      	str	r0, [r4, #8]
 8004b8a:	6860      	ldr	r0, [r4, #4]
 8004b8c:	f7ff ffae 	bl	8004aec <RCC_GetPCLK2ClockFreq>
 8004b90:	60e0      	str	r0, [r4, #12]
 8004b92:	bd10      	pop	{r4, pc}

08004b94 <LL_mDelay>:
 8004b94:	4b08      	ldr	r3, [pc, #32]	; (8004bb8 <LL_mDelay+0x24>)
 8004b96:	b082      	sub	sp, #8
 8004b98:	681b      	ldr	r3, [r3, #0]
 8004b9a:	9301      	str	r3, [sp, #4]
 8004b9c:	9b01      	ldr	r3, [sp, #4]
 8004b9e:	4b06      	ldr	r3, [pc, #24]	; (8004bb8 <LL_mDelay+0x24>)
 8004ba0:	1c41      	adds	r1, r0, #1
 8004ba2:	bf18      	it	ne
 8004ba4:	3001      	addne	r0, #1
 8004ba6:	b908      	cbnz	r0, 8004bac <LL_mDelay+0x18>
 8004ba8:	b002      	add	sp, #8
 8004baa:	4770      	bx	lr
 8004bac:	681a      	ldr	r2, [r3, #0]
 8004bae:	03d2      	lsls	r2, r2, #15
 8004bb0:	bf48      	it	mi
 8004bb2:	f100 30ff 	addmi.w	r0, r0, #4294967295
 8004bb6:	e7f6      	b.n	8004ba6 <LL_mDelay+0x12>
 8004bb8:	e000e010 	.word	0xe000e010

08004bbc <osKernelInitialize>:
 8004bbc:	f3ef 8305 	mrs	r3, IPSR
 8004bc0:	b92b      	cbnz	r3, 8004bce <osKernelInitialize+0x12>
 8004bc2:	4b06      	ldr	r3, [pc, #24]	; (8004bdc <osKernelInitialize+0x20>)
 8004bc4:	6818      	ldr	r0, [r3, #0]
 8004bc6:	b928      	cbnz	r0, 8004bd4 <osKernelInitialize+0x18>
 8004bc8:	2201      	movs	r2, #1
 8004bca:	601a      	str	r2, [r3, #0]
 8004bcc:	4770      	bx	lr
 8004bce:	f06f 0005 	mvn.w	r0, #5
 8004bd2:	4770      	bx	lr
 8004bd4:	f04f 30ff 	mov.w	r0, #4294967295
 8004bd8:	4770      	bx	lr
 8004bda:	bf00      	nop
 8004bdc:	20000470 	.word	0x20000470

08004be0 <osKernelStart>:
 8004be0:	b510      	push	{r4, lr}
 8004be2:	f3ef 8405 	mrs	r4, IPSR
 8004be6:	b95c      	cbnz	r4, 8004c00 <osKernelStart+0x20>
 8004be8:	4b08      	ldr	r3, [pc, #32]	; (8004c0c <osKernelStart+0x2c>)
 8004bea:	681a      	ldr	r2, [r3, #0]
 8004bec:	2a01      	cmp	r2, #1
 8004bee:	d10a      	bne.n	8004c06 <osKernelStart+0x26>
 8004bf0:	4a07      	ldr	r2, [pc, #28]	; (8004c10 <osKernelStart+0x30>)
 8004bf2:	77d4      	strb	r4, [r2, #31]
 8004bf4:	2202      	movs	r2, #2
 8004bf6:	601a      	str	r2, [r3, #0]
 8004bf8:	f000 fe72 	bl	80058e0 <vTaskStartScheduler>
 8004bfc:	4620      	mov	r0, r4
 8004bfe:	bd10      	pop	{r4, pc}
 8004c00:	f06f 0005 	mvn.w	r0, #5
 8004c04:	e7fb      	b.n	8004bfe <osKernelStart+0x1e>
 8004c06:	f04f 30ff 	mov.w	r0, #4294967295
 8004c0a:	e7f8      	b.n	8004bfe <osKernelStart+0x1e>
 8004c0c:	20000470 	.word	0x20000470
 8004c10:	e000ed00 	.word	0xe000ed00

08004c14 <osThreadNew>:
 8004c14:	b5f0      	push	{r4, r5, r6, r7, lr}
 8004c16:	b087      	sub	sp, #28
 8004c18:	4614      	mov	r4, r2
 8004c1a:	2200      	movs	r2, #0
 8004c1c:	460b      	mov	r3, r1
 8004c1e:	9205      	str	r2, [sp, #20]
 8004c20:	f3ef 8205 	mrs	r2, IPSR
 8004c24:	b9d2      	cbnz	r2, 8004c5c <osThreadNew+0x48>
 8004c26:	b1c8      	cbz	r0, 8004c5c <osThreadNew+0x48>
 8004c28:	2c00      	cmp	r4, #0
 8004c2a:	d02f      	beq.n	8004c8c <osThreadNew+0x78>
 8004c2c:	69a5      	ldr	r5, [r4, #24]
 8004c2e:	2d00      	cmp	r5, #0
 8004c30:	bf08      	it	eq
 8004c32:	2518      	moveq	r5, #24
 8004c34:	1e69      	subs	r1, r5, #1
 8004c36:	2937      	cmp	r1, #55	; 0x37
 8004c38:	46ac      	mov	ip, r5
 8004c3a:	d82b      	bhi.n	8004c94 <osThreadNew+0x80>
 8004c3c:	6861      	ldr	r1, [r4, #4]
 8004c3e:	07c9      	lsls	r1, r1, #31
 8004c40:	d428      	bmi.n	8004c94 <osThreadNew+0x80>
 8004c42:	6966      	ldr	r6, [r4, #20]
 8004c44:	b16e      	cbz	r6, 8004c62 <osThreadNew+0x4e>
 8004c46:	08b2      	lsrs	r2, r6, #2
 8004c48:	e9d4 7e02 	ldrd	r7, lr, [r4, #8]
 8004c4c:	6821      	ldr	r1, [r4, #0]
 8004c4e:	b157      	cbz	r7, 8004c66 <osThreadNew+0x52>
 8004c50:	f1be 0f5b 	cmp.w	lr, #91	; 0x5b
 8004c54:	d902      	bls.n	8004c5c <osThreadNew+0x48>
 8004c56:	6924      	ldr	r4, [r4, #16]
 8004c58:	b104      	cbz	r4, 8004c5c <osThreadNew+0x48>
 8004c5a:	b9ee      	cbnz	r6, 8004c98 <osThreadNew+0x84>
 8004c5c:	9805      	ldr	r0, [sp, #20]
 8004c5e:	b007      	add	sp, #28
 8004c60:	bdf0      	pop	{r4, r5, r6, r7, pc}
 8004c62:	2280      	movs	r2, #128	; 0x80
 8004c64:	e7f0      	b.n	8004c48 <osThreadNew+0x34>
 8004c66:	f1be 0f00 	cmp.w	lr, #0
 8004c6a:	d1f7      	bne.n	8004c5c <osThreadNew+0x48>
 8004c6c:	6924      	ldr	r4, [r4, #16]
 8004c6e:	2c00      	cmp	r4, #0
 8004c70:	d1f4      	bne.n	8004c5c <osThreadNew+0x48>
 8004c72:	460c      	mov	r4, r1
 8004c74:	a905      	add	r1, sp, #20
 8004c76:	e9cd c100 	strd	ip, r1, [sp]
 8004c7a:	b292      	uxth	r2, r2
 8004c7c:	4621      	mov	r1, r4
 8004c7e:	f000 fe01 	bl	8005884 <xTaskCreate>
 8004c82:	2801      	cmp	r0, #1
 8004c84:	bf1c      	itt	ne
 8004c86:	2300      	movne	r3, #0
 8004c88:	9305      	strne	r3, [sp, #20]
 8004c8a:	e7e7      	b.n	8004c5c <osThreadNew+0x48>
 8004c8c:	f04f 0c18 	mov.w	ip, #24
 8004c90:	2280      	movs	r2, #128	; 0x80
 8004c92:	e7ef      	b.n	8004c74 <osThreadNew+0x60>
 8004c94:	4610      	mov	r0, r2
 8004c96:	e7e2      	b.n	8004c5e <osThreadNew+0x4a>
 8004c98:	e9cd 4701 	strd	r4, r7, [sp, #4]
 8004c9c:	9500      	str	r5, [sp, #0]
 8004c9e:	f000 fdb9 	bl	8005814 <xTaskCreateStatic>
 8004ca2:	9005      	str	r0, [sp, #20]
 8004ca4:	e7da      	b.n	8004c5c <osThreadNew+0x48>

08004ca6 <osDelay>:
 8004ca6:	b510      	push	{r4, lr}
 8004ca8:	f3ef 8405 	mrs	r4, IPSR
 8004cac:	b924      	cbnz	r4, 8004cb8 <osDelay+0x12>
 8004cae:	b110      	cbz	r0, 8004cb6 <osDelay+0x10>
 8004cb0:	f000 ff72 	bl	8005b98 <vTaskDelay>
 8004cb4:	4620      	mov	r0, r4
 8004cb6:	bd10      	pop	{r4, pc}
 8004cb8:	f06f 0005 	mvn.w	r0, #5
 8004cbc:	e7fb      	b.n	8004cb6 <osDelay+0x10>
	...

08004cc0 <vApplicationGetIdleTaskMemory>:
 8004cc0:	4b03      	ldr	r3, [pc, #12]	; (8004cd0 <vApplicationGetIdleTaskMemory+0x10>)
 8004cc2:	6003      	str	r3, [r0, #0]
 8004cc4:	4b03      	ldr	r3, [pc, #12]	; (8004cd4 <vApplicationGetIdleTaskMemory+0x14>)
 8004cc6:	600b      	str	r3, [r1, #0]
 8004cc8:	2380      	movs	r3, #128	; 0x80
 8004cca:	6013      	str	r3, [r2, #0]
 8004ccc:	4770      	bx	lr
 8004cce:	bf00      	nop
 8004cd0:	20000414 	.word	0x20000414
 8004cd4:	20000214 	.word	0x20000214

08004cd8 <vApplicationGetTimerTaskMemory>:
 8004cd8:	4b03      	ldr	r3, [pc, #12]	; (8004ce8 <vApplicationGetTimerTaskMemory+0x10>)
 8004cda:	6003      	str	r3, [r0, #0]
 8004cdc:	4b03      	ldr	r3, [pc, #12]	; (8004cec <vApplicationGetTimerTaskMemory+0x14>)
 8004cde:	600b      	str	r3, [r1, #0]
 8004ce0:	f44f 7380 	mov.w	r3, #256	; 0x100
 8004ce4:	6013      	str	r3, [r2, #0]
 8004ce6:	4770      	bx	lr
 8004ce8:	20000874 	.word	0x20000874
 8004cec:	20000474 	.word	0x20000474

08004cf0 <vListInitialise>:
 8004cf0:	f100 0308 	add.w	r3, r0, #8
 8004cf4:	f04f 32ff 	mov.w	r2, #4294967295
 8004cf8:	e9c0 2302 	strd	r2, r3, [r0, #8]
 8004cfc:	6043      	str	r3, [r0, #4]
 8004cfe:	6103      	str	r3, [r0, #16]
 8004d00:	2300      	movs	r3, #0
 8004d02:	6003      	str	r3, [r0, #0]
 8004d04:	4770      	bx	lr

08004d06 <vListInitialiseItem>:
 8004d06:	2300      	movs	r3, #0
 8004d08:	6103      	str	r3, [r0, #16]
 8004d0a:	4770      	bx	lr

08004d0c <vListInsertEnd>:
 8004d0c:	6843      	ldr	r3, [r0, #4]
 8004d0e:	604b      	str	r3, [r1, #4]
 8004d10:	689a      	ldr	r2, [r3, #8]
 8004d12:	608a      	str	r2, [r1, #8]
 8004d14:	689a      	ldr	r2, [r3, #8]
 8004d16:	6051      	str	r1, [r2, #4]
 8004d18:	6099      	str	r1, [r3, #8]
 8004d1a:	6803      	ldr	r3, [r0, #0]
 8004d1c:	6108      	str	r0, [r1, #16]
 8004d1e:	3301      	adds	r3, #1
 8004d20:	6003      	str	r3, [r0, #0]
 8004d22:	4770      	bx	lr

08004d24 <vListInsert>:
 8004d24:	b530      	push	{r4, r5, lr}
 8004d26:	680c      	ldr	r4, [r1, #0]
 8004d28:	1c63      	adds	r3, r4, #1
 8004d2a:	d10a      	bne.n	8004d42 <vListInsert+0x1e>
 8004d2c:	6903      	ldr	r3, [r0, #16]
 8004d2e:	685a      	ldr	r2, [r3, #4]
 8004d30:	604a      	str	r2, [r1, #4]
 8004d32:	6091      	str	r1, [r2, #8]
 8004d34:	608b      	str	r3, [r1, #8]
 8004d36:	6059      	str	r1, [r3, #4]
 8004d38:	6803      	ldr	r3, [r0, #0]
 8004d3a:	6108      	str	r0, [r1, #16]
 8004d3c:	3301      	adds	r3, #1
 8004d3e:	6003      	str	r3, [r0, #0]
 8004d40:	bd30      	pop	{r4, r5, pc}
 8004d42:	f100 0208 	add.w	r2, r0, #8
 8004d46:	4613      	mov	r3, r2
 8004d48:	6852      	ldr	r2, [r2, #4]
 8004d4a:	6815      	ldr	r5, [r2, #0]
 8004d4c:	42a5      	cmp	r5, r4
 8004d4e:	d9fa      	bls.n	8004d46 <vListInsert+0x22>
 8004d50:	e7ed      	b.n	8004d2e <vListInsert+0xa>

08004d52 <uxListRemove>:
 8004d52:	e9d0 1201 	ldrd	r1, r2, [r0, #4]
 8004d56:	6903      	ldr	r3, [r0, #16]
 8004d58:	608a      	str	r2, [r1, #8]
 8004d5a:	6051      	str	r1, [r2, #4]
 8004d5c:	6859      	ldr	r1, [r3, #4]
 8004d5e:	4281      	cmp	r1, r0
 8004d60:	bf08      	it	eq
 8004d62:	605a      	streq	r2, [r3, #4]
 8004d64:	2200      	movs	r2, #0
 8004d66:	6102      	str	r2, [r0, #16]
 8004d68:	681a      	ldr	r2, [r3, #0]
 8004d6a:	3a01      	subs	r2, #1
 8004d6c:	601a      	str	r2, [r3, #0]
 8004d6e:	6818      	ldr	r0, [r3, #0]
 8004d70:	4770      	bx	lr

08004d72 <prvIsQueueEmpty>:
 8004d72:	b510      	push	{r4, lr}
 8004d74:	4604      	mov	r4, r0
 8004d76:	f001 fb7d 	bl	8006474 <vPortEnterCritical>
 8004d7a:	6ba4      	ldr	r4, [r4, #56]	; 0x38
 8004d7c:	f001 fb9c 	bl	80064b8 <vPortExitCritical>
 8004d80:	fab4 f084 	clz	r0, r4
 8004d84:	0940      	lsrs	r0, r0, #5
 8004d86:	bd10      	pop	{r4, pc}

08004d88 <prvCopyDataToQueue>:
 8004d88:	b5f8      	push	{r3, r4, r5, r6, r7, lr}
 8004d8a:	4615      	mov	r5, r2
 8004d8c:	6c02      	ldr	r2, [r0, #64]	; 0x40
 8004d8e:	6b86      	ldr	r6, [r0, #56]	; 0x38
 8004d90:	4604      	mov	r4, r0
 8004d92:	b952      	cbnz	r2, 8004daa <prvCopyDataToQueue+0x22>
 8004d94:	6807      	ldr	r7, [r0, #0]
 8004d96:	bb47      	cbnz	r7, 8004dea <prvCopyDataToQueue+0x62>
 8004d98:	6880      	ldr	r0, [r0, #8]
 8004d9a:	f001 f879 	bl	8005e90 <xTaskPriorityDisinherit>
 8004d9e:	60a7      	str	r7, [r4, #8]
 8004da0:	4605      	mov	r5, r0
 8004da2:	3601      	adds	r6, #1
 8004da4:	63a6      	str	r6, [r4, #56]	; 0x38
 8004da6:	4628      	mov	r0, r5
 8004da8:	bdf8      	pop	{r3, r4, r5, r6, r7, pc}
 8004daa:	b965      	cbnz	r5, 8004dc6 <prvCopyDataToQueue+0x3e>
 8004dac:	6840      	ldr	r0, [r0, #4]
 8004dae:	f001 fdc9 	bl	8006944 <memcpy>
 8004db2:	6863      	ldr	r3, [r4, #4]
 8004db4:	6c22      	ldr	r2, [r4, #64]	; 0x40
 8004db6:	4413      	add	r3, r2
 8004db8:	68a2      	ldr	r2, [r4, #8]
 8004dba:	6063      	str	r3, [r4, #4]
 8004dbc:	4293      	cmp	r3, r2
 8004dbe:	d3f0      	bcc.n	8004da2 <prvCopyDataToQueue+0x1a>
 8004dc0:	6823      	ldr	r3, [r4, #0]
 8004dc2:	6063      	str	r3, [r4, #4]
 8004dc4:	e7ed      	b.n	8004da2 <prvCopyDataToQueue+0x1a>
 8004dc6:	68c0      	ldr	r0, [r0, #12]
 8004dc8:	f001 fdbc 	bl	8006944 <memcpy>
 8004dcc:	6c22      	ldr	r2, [r4, #64]	; 0x40
 8004dce:	68e3      	ldr	r3, [r4, #12]
 8004dd0:	4251      	negs	r1, r2
 8004dd2:	1a9b      	subs	r3, r3, r2
 8004dd4:	6822      	ldr	r2, [r4, #0]
 8004dd6:	60e3      	str	r3, [r4, #12]
 8004dd8:	4293      	cmp	r3, r2
 8004dda:	bf3e      	ittt	cc
 8004ddc:	68a3      	ldrcc	r3, [r4, #8]
 8004dde:	185b      	addcc	r3, r3, r1
 8004de0:	60e3      	strcc	r3, [r4, #12]
 8004de2:	2d02      	cmp	r5, #2
 8004de4:	d101      	bne.n	8004dea <prvCopyDataToQueue+0x62>
 8004de6:	b116      	cbz	r6, 8004dee <prvCopyDataToQueue+0x66>
 8004de8:	3e01      	subs	r6, #1
 8004dea:	2500      	movs	r5, #0
 8004dec:	e7d9      	b.n	8004da2 <prvCopyDataToQueue+0x1a>
 8004dee:	4635      	mov	r5, r6
 8004df0:	e7d7      	b.n	8004da2 <prvCopyDataToQueue+0x1a>

08004df2 <prvCopyDataFromQueue>:
 8004df2:	4603      	mov	r3, r0
 8004df4:	b410      	push	{r4}
 8004df6:	6c1a      	ldr	r2, [r3, #64]	; 0x40
 8004df8:	4608      	mov	r0, r1
 8004dfa:	b16a      	cbz	r2, 8004e18 <prvCopyDataFromQueue+0x26>
 8004dfc:	68dc      	ldr	r4, [r3, #12]
 8004dfe:	6899      	ldr	r1, [r3, #8]
 8004e00:	4414      	add	r4, r2
 8004e02:	428c      	cmp	r4, r1
 8004e04:	bf28      	it	cs
 8004e06:	6819      	ldrcs	r1, [r3, #0]
 8004e08:	60dc      	str	r4, [r3, #12]
 8004e0a:	bf28      	it	cs
 8004e0c:	60d9      	strcs	r1, [r3, #12]
 8004e0e:	68d9      	ldr	r1, [r3, #12]
 8004e10:	f85d 4b04 	ldr.w	r4, [sp], #4
 8004e14:	f001 bd96 	b.w	8006944 <memcpy>
 8004e18:	f85d 4b04 	ldr.w	r4, [sp], #4
 8004e1c:	4770      	bx	lr

08004e1e <prvUnlockQueue>:
 8004e1e:	b570      	push	{r4, r5, r6, lr}
 8004e20:	4604      	mov	r4, r0
 8004e22:	f001 fb27 	bl	8006474 <vPortEnterCritical>
 8004e26:	f894 5045 	ldrb.w	r5, [r4, #69]	; 0x45
 8004e2a:	f104 0624 	add.w	r6, r4, #36	; 0x24
 8004e2e:	b26d      	sxtb	r5, r5
 8004e30:	2d00      	cmp	r5, #0
 8004e32:	dc14      	bgt.n	8004e5e <prvUnlockQueue+0x40>
 8004e34:	23ff      	movs	r3, #255	; 0xff
 8004e36:	f884 3045 	strb.w	r3, [r4, #69]	; 0x45
 8004e3a:	f001 fb3d 	bl	80064b8 <vPortExitCritical>
 8004e3e:	f001 fb19 	bl	8006474 <vPortEnterCritical>
 8004e42:	f894 5044 	ldrb.w	r5, [r4, #68]	; 0x44
 8004e46:	f104 0610 	add.w	r6, r4, #16
 8004e4a:	b26d      	sxtb	r5, r5
 8004e4c:	2d00      	cmp	r5, #0
 8004e4e:	dc12      	bgt.n	8004e76 <prvUnlockQueue+0x58>
 8004e50:	23ff      	movs	r3, #255	; 0xff
 8004e52:	f884 3044 	strb.w	r3, [r4, #68]	; 0x44
 8004e56:	e8bd 4070 	ldmia.w	sp!, {r4, r5, r6, lr}
 8004e5a:	f001 bb2d 	b.w	80064b8 <vPortExitCritical>
 8004e5e:	6a63      	ldr	r3, [r4, #36]	; 0x24
 8004e60:	2b00      	cmp	r3, #0
 8004e62:	d0e7      	beq.n	8004e34 <prvUnlockQueue+0x16>
 8004e64:	4630      	mov	r0, r6
 8004e66:	f000 ff2f 	bl	8005cc8 <xTaskRemoveFromEventList>
 8004e6a:	b108      	cbz	r0, 8004e70 <prvUnlockQueue+0x52>
 8004e6c:	f000 ffb8 	bl	8005de0 <vTaskMissedYield>
 8004e70:	3d01      	subs	r5, #1
 8004e72:	b26d      	sxtb	r5, r5
 8004e74:	e7dc      	b.n	8004e30 <prvUnlockQueue+0x12>
 8004e76:	6923      	ldr	r3, [r4, #16]
 8004e78:	2b00      	cmp	r3, #0
 8004e7a:	d0e9      	beq.n	8004e50 <prvUnlockQueue+0x32>
 8004e7c:	4630      	mov	r0, r6
 8004e7e:	f000 ff23 	bl	8005cc8 <xTaskRemoveFromEventList>
 8004e82:	b108      	cbz	r0, 8004e88 <prvUnlockQueue+0x6a>
 8004e84:	f000 ffac 	bl	8005de0 <vTaskMissedYield>
 8004e88:	3d01      	subs	r5, #1
 8004e8a:	b26d      	sxtb	r5, r5
 8004e8c:	e7de      	b.n	8004e4c <prvUnlockQueue+0x2e>
	...

08004e90 <xQueueGenericReset>:
 8004e90:	b538      	push	{r3, r4, r5, lr}
 8004e92:	460d      	mov	r5, r1
 8004e94:	4604      	mov	r4, r0
 8004e96:	b940      	cbnz	r0, 8004eaa <xQueueGenericReset+0x1a>
 8004e98:	f04f 0350 	mov.w	r3, #80	; 0x50
 8004e9c:	f383 8811 	msr	BASEPRI, r3
 8004ea0:	f3bf 8f6f 	isb	sy
 8004ea4:	f3bf 8f4f 	dsb	sy
 8004ea8:	e7fe      	b.n	8004ea8 <xQueueGenericReset+0x18>
 8004eaa:	f001 fae3 	bl	8006474 <vPortEnterCritical>
 8004eae:	e9d4 310f 	ldrd	r3, r1, [r4, #60]	; 0x3c
 8004eb2:	6822      	ldr	r2, [r4, #0]
 8004eb4:	6062      	str	r2, [r4, #4]
 8004eb6:	434b      	muls	r3, r1
 8004eb8:	18d0      	adds	r0, r2, r3
 8004eba:	1a5b      	subs	r3, r3, r1
 8004ebc:	4413      	add	r3, r2
 8004ebe:	60a0      	str	r0, [r4, #8]
 8004ec0:	60e3      	str	r3, [r4, #12]
 8004ec2:	2000      	movs	r0, #0
 8004ec4:	23ff      	movs	r3, #255	; 0xff
 8004ec6:	63a0      	str	r0, [r4, #56]	; 0x38
 8004ec8:	f884 3044 	strb.w	r3, [r4, #68]	; 0x44
 8004ecc:	f884 3045 	strb.w	r3, [r4, #69]	; 0x45
 8004ed0:	b995      	cbnz	r5, 8004ef8 <xQueueGenericReset+0x68>
 8004ed2:	6923      	ldr	r3, [r4, #16]
 8004ed4:	b163      	cbz	r3, 8004ef0 <xQueueGenericReset+0x60>
 8004ed6:	f104 0010 	add.w	r0, r4, #16
 8004eda:	f000 fef5 	bl	8005cc8 <xTaskRemoveFromEventList>
 8004ede:	b138      	cbz	r0, 8004ef0 <xQueueGenericReset+0x60>
 8004ee0:	4b0a      	ldr	r3, [pc, #40]	; (8004f0c <xQueueGenericReset+0x7c>)
 8004ee2:	f04f 5280 	mov.w	r2, #268435456	; 0x10000000
 8004ee6:	601a      	str	r2, [r3, #0]
 8004ee8:	f3bf 8f4f 	dsb	sy
 8004eec:	f3bf 8f6f 	isb	sy
 8004ef0:	f001 fae2 	bl	80064b8 <vPortExitCritical>
 8004ef4:	2001      	movs	r0, #1
 8004ef6:	bd38      	pop	{r3, r4, r5, pc}
 8004ef8:	f104 0010 	add.w	r0, r4, #16
 8004efc:	f7ff fef8 	bl	8004cf0 <vListInitialise>
 8004f00:	f104 0024 	add.w	r0, r4, #36	; 0x24
 8004f04:	f7ff fef4 	bl	8004cf0 <vListInitialise>
 8004f08:	e7f2      	b.n	8004ef0 <xQueueGenericReset+0x60>
 8004f0a:	bf00      	nop
 8004f0c:	e000ed04 	.word	0xe000ed04

08004f10 <xQueueGenericCreateStatic>:
 8004f10:	b513      	push	{r0, r1, r4, lr}
 8004f12:	461c      	mov	r4, r3
 8004f14:	b940      	cbnz	r0, 8004f28 <xQueueGenericCreateStatic+0x18>
 8004f16:	f04f 0350 	mov.w	r3, #80	; 0x50
 8004f1a:	f383 8811 	msr	BASEPRI, r3
 8004f1e:	f3bf 8f6f 	isb	sy
 8004f22:	f3bf 8f4f 	dsb	sy
 8004f26:	e7fe      	b.n	8004f26 <xQueueGenericCreateStatic+0x16>
 8004f28:	b943      	cbnz	r3, 8004f3c <xQueueGenericCreateStatic+0x2c>
 8004f2a:	f04f 0350 	mov.w	r3, #80	; 0x50
 8004f2e:	f383 8811 	msr	BASEPRI, r3
 8004f32:	f3bf 8f6f 	isb	sy
 8004f36:	f3bf 8f4f 	dsb	sy
 8004f3a:	e7fe      	b.n	8004f3a <xQueueGenericCreateStatic+0x2a>
 8004f3c:	b14a      	cbz	r2, 8004f52 <xQueueGenericCreateStatic+0x42>
 8004f3e:	b991      	cbnz	r1, 8004f66 <xQueueGenericCreateStatic+0x56>
 8004f40:	f04f 0350 	mov.w	r3, #80	; 0x50
 8004f44:	f383 8811 	msr	BASEPRI, r3
 8004f48:	f3bf 8f6f 	isb	sy
 8004f4c:	f3bf 8f4f 	dsb	sy
 8004f50:	e7fe      	b.n	8004f50 <xQueueGenericCreateStatic+0x40>
 8004f52:	b141      	cbz	r1, 8004f66 <xQueueGenericCreateStatic+0x56>
 8004f54:	f04f 0350 	mov.w	r3, #80	; 0x50
 8004f58:	f383 8811 	msr	BASEPRI, r3
 8004f5c:	f3bf 8f6f 	isb	sy
 8004f60:	f3bf 8f4f 	dsb	sy
 8004f64:	e7fe      	b.n	8004f64 <xQueueGenericCreateStatic+0x54>
 8004f66:	2350      	movs	r3, #80	; 0x50
 8004f68:	9301      	str	r3, [sp, #4]
 8004f6a:	9b01      	ldr	r3, [sp, #4]
 8004f6c:	2b50      	cmp	r3, #80	; 0x50
 8004f6e:	d008      	beq.n	8004f82 <xQueueGenericCreateStatic+0x72>
 8004f70:	f04f 0350 	mov.w	r3, #80	; 0x50
 8004f74:	f383 8811 	msr	BASEPRI, r3
 8004f78:	f3bf 8f6f 	isb	sy
 8004f7c:	f3bf 8f4f 	dsb	sy
 8004f80:	e7fe      	b.n	8004f80 <xQueueGenericCreateStatic+0x70>
 8004f82:	2900      	cmp	r1, #0
 8004f84:	bf08      	it	eq
 8004f86:	4622      	moveq	r2, r4
 8004f88:	9b01      	ldr	r3, [sp, #4]
 8004f8a:	6022      	str	r2, [r4, #0]
 8004f8c:	2301      	movs	r3, #1
 8004f8e:	e9c4 010f 	strd	r0, r1, [r4, #60]	; 0x3c
 8004f92:	f884 3046 	strb.w	r3, [r4, #70]	; 0x46
 8004f96:	4619      	mov	r1, r3
 8004f98:	4620      	mov	r0, r4
 8004f9a:	f7ff ff79 	bl	8004e90 <xQueueGenericReset>
 8004f9e:	f89d 3010 	ldrb.w	r3, [sp, #16]
 8004fa2:	f884 304c 	strb.w	r3, [r4, #76]	; 0x4c
 8004fa6:	4620      	mov	r0, r4
 8004fa8:	b002      	add	sp, #8
 8004faa:	bd10      	pop	{r4, pc}

08004fac <xQueueGenericSend>:
 8004fac:	e92d 47ff 	stmdb	sp!, {r0, r1, r2, r3, r4, r5, r6, r7, r8, r9, sl, lr}
 8004fb0:	4688      	mov	r8, r1
 8004fb2:	9201      	str	r2, [sp, #4]
 8004fb4:	461f      	mov	r7, r3
 8004fb6:	4604      	mov	r4, r0
 8004fb8:	b940      	cbnz	r0, 8004fcc <xQueueGenericSend+0x20>
 8004fba:	f04f 0350 	mov.w	r3, #80	; 0x50
 8004fbe:	f383 8811 	msr	BASEPRI, r3
 8004fc2:	f3bf 8f6f 	isb	sy
 8004fc6:	f3bf 8f4f 	dsb	sy
 8004fca:	e7fe      	b.n	8004fca <xQueueGenericSend+0x1e>
 8004fcc:	b951      	cbnz	r1, 8004fe4 <xQueueGenericSend+0x38>
 8004fce:	6c03      	ldr	r3, [r0, #64]	; 0x40
 8004fd0:	b143      	cbz	r3, 8004fe4 <xQueueGenericSend+0x38>
 8004fd2:	f04f 0350 	mov.w	r3, #80	; 0x50
 8004fd6:	f383 8811 	msr	BASEPRI, r3
 8004fda:	f3bf 8f6f 	isb	sy
 8004fde:	f3bf 8f4f 	dsb	sy
 8004fe2:	e7fe      	b.n	8004fe2 <xQueueGenericSend+0x36>
 8004fe4:	2f02      	cmp	r7, #2
 8004fe6:	d10b      	bne.n	8005000 <xQueueGenericSend+0x54>
 8004fe8:	6be3      	ldr	r3, [r4, #60]	; 0x3c
 8004fea:	2b01      	cmp	r3, #1
 8004fec:	d008      	beq.n	8005000 <xQueueGenericSend+0x54>
 8004fee:	f04f 0350 	mov.w	r3, #80	; 0x50
 8004ff2:	f383 8811 	msr	BASEPRI, r3
 8004ff6:	f3bf 8f6f 	isb	sy
 8004ffa:	f3bf 8f4f 	dsb	sy
 8004ffe:	e7fe      	b.n	8004ffe <xQueueGenericSend+0x52>
 8005000:	f000 fef4 	bl	8005dec <xTaskGetSchedulerState>
 8005004:	4606      	mov	r6, r0
 8005006:	b950      	cbnz	r0, 800501e <xQueueGenericSend+0x72>
 8005008:	9b01      	ldr	r3, [sp, #4]
 800500a:	b14b      	cbz	r3, 8005020 <xQueueGenericSend+0x74>
 800500c:	f04f 0350 	mov.w	r3, #80	; 0x50
 8005010:	f383 8811 	msr	BASEPRI, r3
 8005014:	f3bf 8f6f 	isb	sy
 8005018:	f3bf 8f4f 	dsb	sy
 800501c:	e7fe      	b.n	800501c <xQueueGenericSend+0x70>
 800501e:	2600      	movs	r6, #0
 8005020:	f8df a0e8 	ldr.w	sl, [pc, #232]	; 800510c <xQueueGenericSend+0x160>
 8005024:	f04f 0900 	mov.w	r9, #0
 8005028:	e037      	b.n	800509a <xQueueGenericSend+0xee>
 800502a:	9d01      	ldr	r5, [sp, #4]
 800502c:	b91d      	cbnz	r5, 8005036 <xQueueGenericSend+0x8a>
 800502e:	f001 fa43 	bl	80064b8 <vPortExitCritical>
 8005032:	2000      	movs	r0, #0
 8005034:	e050      	b.n	80050d8 <xQueueGenericSend+0x12c>
 8005036:	b916      	cbnz	r6, 800503e <xQueueGenericSend+0x92>
 8005038:	a802      	add	r0, sp, #8
 800503a:	f000 fe89 	bl	8005d50 <vTaskInternalSetTimeOutState>
 800503e:	f001 fa3b 	bl	80064b8 <vPortExitCritical>
 8005042:	f000 fc91 	bl	8005968 <vTaskSuspendAll>
 8005046:	f001 fa15 	bl	8006474 <vPortEnterCritical>
 800504a:	f894 3044 	ldrb.w	r3, [r4, #68]	; 0x44
 800504e:	2bff      	cmp	r3, #255	; 0xff
 8005050:	bf08      	it	eq
 8005052:	f884 9044 	strbeq.w	r9, [r4, #68]	; 0x44
 8005056:	f894 3045 	ldrb.w	r3, [r4, #69]	; 0x45
 800505a:	2bff      	cmp	r3, #255	; 0xff
 800505c:	bf08      	it	eq
 800505e:	f884 9045 	strbeq.w	r9, [r4, #69]	; 0x45
 8005062:	f001 fa29 	bl	80064b8 <vPortExitCritical>
 8005066:	a901      	add	r1, sp, #4
 8005068:	a802      	add	r0, sp, #8
 800506a:	f000 fe7d 	bl	8005d68 <xTaskCheckForTimeOut>
 800506e:	2800      	cmp	r0, #0
 8005070:	d146      	bne.n	8005100 <xQueueGenericSend+0x154>
 8005072:	f001 f9ff 	bl	8006474 <vPortEnterCritical>
 8005076:	6ba2      	ldr	r2, [r4, #56]	; 0x38
 8005078:	6be3      	ldr	r3, [r4, #60]	; 0x3c
 800507a:	429a      	cmp	r2, r3
 800507c:	d12f      	bne.n	80050de <xQueueGenericSend+0x132>
 800507e:	f001 fa1b 	bl	80064b8 <vPortExitCritical>
 8005082:	9901      	ldr	r1, [sp, #4]
 8005084:	f104 0010 	add.w	r0, r4, #16
 8005088:	f000 fde6 	bl	8005c58 <vTaskPlaceOnEventList>
 800508c:	4620      	mov	r0, r4
 800508e:	f7ff fec6 	bl	8004e1e <prvUnlockQueue>
 8005092:	f000 fd0d 	bl	8005ab0 <xTaskResumeAll>
 8005096:	b350      	cbz	r0, 80050ee <xQueueGenericSend+0x142>
 8005098:	2601      	movs	r6, #1
 800509a:	f001 f9eb 	bl	8006474 <vPortEnterCritical>
 800509e:	6ba2      	ldr	r2, [r4, #56]	; 0x38
 80050a0:	6be3      	ldr	r3, [r4, #60]	; 0x3c
 80050a2:	429a      	cmp	r2, r3
 80050a4:	d301      	bcc.n	80050aa <xQueueGenericSend+0xfe>
 80050a6:	2f02      	cmp	r7, #2
 80050a8:	d1bf      	bne.n	800502a <xQueueGenericSend+0x7e>
 80050aa:	463a      	mov	r2, r7
 80050ac:	4641      	mov	r1, r8
 80050ae:	4620      	mov	r0, r4
 80050b0:	f7ff fe6a 	bl	8004d88 <prvCopyDataToQueue>
 80050b4:	6a63      	ldr	r3, [r4, #36]	; 0x24
 80050b6:	b11b      	cbz	r3, 80050c0 <xQueueGenericSend+0x114>
 80050b8:	f104 0024 	add.w	r0, r4, #36	; 0x24
 80050bc:	f000 fe04 	bl	8005cc8 <xTaskRemoveFromEventList>
 80050c0:	b138      	cbz	r0, 80050d2 <xQueueGenericSend+0x126>
 80050c2:	4b12      	ldr	r3, [pc, #72]	; (800510c <xQueueGenericSend+0x160>)
 80050c4:	f04f 5280 	mov.w	r2, #268435456	; 0x10000000
 80050c8:	601a      	str	r2, [r3, #0]
 80050ca:	f3bf 8f4f 	dsb	sy
 80050ce:	f3bf 8f6f 	isb	sy
 80050d2:	f001 f9f1 	bl	80064b8 <vPortExitCritical>
 80050d6:	2001      	movs	r0, #1
 80050d8:	b004      	add	sp, #16
 80050da:	e8bd 87f0 	ldmia.w	sp!, {r4, r5, r6, r7, r8, r9, sl, pc}
 80050de:	f001 f9eb 	bl	80064b8 <vPortExitCritical>
 80050e2:	4620      	mov	r0, r4
 80050e4:	f7ff fe9b 	bl	8004e1e <prvUnlockQueue>
 80050e8:	f000 fce2 	bl	8005ab0 <xTaskResumeAll>
 80050ec:	e7d4      	b.n	8005098 <xQueueGenericSend+0xec>
 80050ee:	f04f 5380 	mov.w	r3, #268435456	; 0x10000000
 80050f2:	f8ca 3000 	str.w	r3, [sl]
 80050f6:	f3bf 8f4f 	dsb	sy
 80050fa:	f3bf 8f6f 	isb	sy
 80050fe:	e7cb      	b.n	8005098 <xQueueGenericSend+0xec>
 8005100:	4620      	mov	r0, r4
 8005102:	f7ff fe8c 	bl	8004e1e <prvUnlockQueue>
 8005106:	f000 fcd3 	bl	8005ab0 <xTaskResumeAll>
 800510a:	e792      	b.n	8005032 <xQueueGenericSend+0x86>
 800510c:	e000ed04 	.word	0xe000ed04

08005110 <xQueueCreateMutex>:
 8005110:	b570      	push	{r4, r5, r6, lr}
 8005112:	4606      	mov	r6, r0
 8005114:	2050      	movs	r0, #80	; 0x50
 8005116:	f001 fb1b 	bl	8006750 <pvPortMalloc>
 800511a:	4604      	mov	r4, r0
 800511c:	b198      	cbz	r0, 8005146 <xQueueCreateMutex+0x36>
 800511e:	2500      	movs	r5, #0
 8005120:	2101      	movs	r1, #1
 8005122:	e9c0 150f 	strd	r1, r5, [r0, #60]	; 0x3c
 8005126:	f880 5046 	strb.w	r5, [r0, #70]	; 0x46
 800512a:	6000      	str	r0, [r0, #0]
 800512c:	f7ff feb0 	bl	8004e90 <xQueueGenericReset>
 8005130:	f884 604c 	strb.w	r6, [r4, #76]	; 0x4c
 8005134:	60a5      	str	r5, [r4, #8]
 8005136:	6025      	str	r5, [r4, #0]
 8005138:	60e5      	str	r5, [r4, #12]
 800513a:	462b      	mov	r3, r5
 800513c:	462a      	mov	r2, r5
 800513e:	4629      	mov	r1, r5
 8005140:	4620      	mov	r0, r4
 8005142:	f7ff ff33 	bl	8004fac <xQueueGenericSend>
 8005146:	4620      	mov	r0, r4
 8005148:	bd70      	pop	{r4, r5, r6, pc}

0800514a <xQueueGenericSendFromISR>:
 800514a:	e92d 43f8 	stmdb	sp!, {r3, r4, r5, r6, r7, r8, r9, lr}
 800514e:	4689      	mov	r9, r1
 8005150:	4690      	mov	r8, r2
 8005152:	461f      	mov	r7, r3
 8005154:	4604      	mov	r4, r0
 8005156:	b940      	cbnz	r0, 800516a <xQueueGenericSendFromISR+0x20>
 8005158:	f04f 0350 	mov.w	r3, #80	; 0x50
 800515c:	f383 8811 	msr	BASEPRI, r3
 8005160:	f3bf 8f6f 	isb	sy
 8005164:	f3bf 8f4f 	dsb	sy
 8005168:	e7fe      	b.n	8005168 <xQueueGenericSendFromISR+0x1e>
 800516a:	b951      	cbnz	r1, 8005182 <xQueueGenericSendFromISR+0x38>
 800516c:	6c03      	ldr	r3, [r0, #64]	; 0x40
 800516e:	b143      	cbz	r3, 8005182 <xQueueGenericSendFromISR+0x38>
 8005170:	f04f 0350 	mov.w	r3, #80	; 0x50
 8005174:	f383 8811 	msr	BASEPRI, r3
 8005178:	f3bf 8f6f 	isb	sy
 800517c:	f3bf 8f4f 	dsb	sy
 8005180:	e7fe      	b.n	8005180 <xQueueGenericSendFromISR+0x36>
 8005182:	2f02      	cmp	r7, #2
 8005184:	d10b      	bne.n	800519e <xQueueGenericSendFromISR+0x54>
 8005186:	6be3      	ldr	r3, [r4, #60]	; 0x3c
 8005188:	2b01      	cmp	r3, #1
 800518a:	d008      	beq.n	800519e <xQueueGenericSendFromISR+0x54>
 800518c:	f04f 0350 	mov.w	r3, #80	; 0x50
 8005190:	f383 8811 	msr	BASEPRI, r3
 8005194:	f3bf 8f6f 	isb	sy
 8005198:	f3bf 8f4f 	dsb	sy
 800519c:	e7fe      	b.n	800519c <xQueueGenericSendFromISR+0x52>
 800519e:	f001 fa85 	bl	80066ac <vPortValidateInterruptPriority>
 80051a2:	f3ef 8611 	mrs	r6, BASEPRI
 80051a6:	f04f 0350 	mov.w	r3, #80	; 0x50
 80051aa:	f383 8811 	msr	BASEPRI, r3
 80051ae:	f3bf 8f6f 	isb	sy
 80051b2:	f3bf 8f4f 	dsb	sy
 80051b6:	6ba2      	ldr	r2, [r4, #56]	; 0x38
 80051b8:	6be3      	ldr	r3, [r4, #60]	; 0x3c
 80051ba:	429a      	cmp	r2, r3
 80051bc:	d301      	bcc.n	80051c2 <xQueueGenericSendFromISR+0x78>
 80051be:	2f02      	cmp	r7, #2
 80051c0:	d123      	bne.n	800520a <xQueueGenericSendFromISR+0xc0>
 80051c2:	f894 5045 	ldrb.w	r5, [r4, #69]	; 0x45
 80051c6:	6ba3      	ldr	r3, [r4, #56]	; 0x38
 80051c8:	b26d      	sxtb	r5, r5
 80051ca:	463a      	mov	r2, r7
 80051cc:	4649      	mov	r1, r9
 80051ce:	4620      	mov	r0, r4
 80051d0:	f7ff fdda 	bl	8004d88 <prvCopyDataToQueue>
 80051d4:	1c6b      	adds	r3, r5, #1
 80051d6:	d113      	bne.n	8005200 <xQueueGenericSendFromISR+0xb6>
 80051d8:	6a63      	ldr	r3, [r4, #36]	; 0x24
 80051da:	b90b      	cbnz	r3, 80051e0 <xQueueGenericSendFromISR+0x96>
 80051dc:	2001      	movs	r0, #1
 80051de:	e00b      	b.n	80051f8 <xQueueGenericSendFromISR+0xae>
 80051e0:	f104 0024 	add.w	r0, r4, #36	; 0x24
 80051e4:	f000 fd70 	bl	8005cc8 <xTaskRemoveFromEventList>
 80051e8:	2800      	cmp	r0, #0
 80051ea:	d0f7      	beq.n	80051dc <xQueueGenericSendFromISR+0x92>
 80051ec:	f1b8 0f00 	cmp.w	r8, #0
 80051f0:	d0f4      	beq.n	80051dc <xQueueGenericSendFromISR+0x92>
 80051f2:	2001      	movs	r0, #1
 80051f4:	f8c8 0000 	str.w	r0, [r8]
 80051f8:	f386 8811 	msr	BASEPRI, r6
 80051fc:	e8bd 83f8 	ldmia.w	sp!, {r3, r4, r5, r6, r7, r8, r9, pc}
 8005200:	3501      	adds	r5, #1
 8005202:	b26d      	sxtb	r5, r5
 8005204:	f884 5045 	strb.w	r5, [r4, #69]	; 0x45
 8005208:	e7e8      	b.n	80051dc <xQueueGenericSendFromISR+0x92>
 800520a:	2000      	movs	r0, #0
 800520c:	e7f4      	b.n	80051f8 <xQueueGenericSendFromISR+0xae>
	...

08005210 <xQueueReceive>:
 8005210:	e92d 43f0 	stmdb	sp!, {r4, r5, r6, r7, r8, r9, lr}
 8005214:	b085      	sub	sp, #20
 8005216:	460f      	mov	r7, r1
 8005218:	9201      	str	r2, [sp, #4]
 800521a:	4604      	mov	r4, r0
 800521c:	b940      	cbnz	r0, 8005230 <xQueueReceive+0x20>
 800521e:	f04f 0350 	mov.w	r3, #80	; 0x50
 8005222:	f383 8811 	msr	BASEPRI, r3
 8005226:	f3bf 8f6f 	isb	sy
 800522a:	f3bf 8f4f 	dsb	sy
 800522e:	e7fe      	b.n	800522e <xQueueReceive+0x1e>
 8005230:	b951      	cbnz	r1, 8005248 <xQueueReceive+0x38>
 8005232:	6c03      	ldr	r3, [r0, #64]	; 0x40
 8005234:	b143      	cbz	r3, 8005248 <xQueueReceive+0x38>
 8005236:	f04f 0350 	mov.w	r3, #80	; 0x50
 800523a:	f383 8811 	msr	BASEPRI, r3
 800523e:	f3bf 8f6f 	isb	sy
 8005242:	f3bf 8f4f 	dsb	sy
 8005246:	e7fe      	b.n	8005246 <xQueueReceive+0x36>
 8005248:	f000 fdd0 	bl	8005dec <xTaskGetSchedulerState>
 800524c:	4606      	mov	r6, r0
 800524e:	b950      	cbnz	r0, 8005266 <xQueueReceive+0x56>
 8005250:	9b01      	ldr	r3, [sp, #4]
 8005252:	b14b      	cbz	r3, 8005268 <xQueueReceive+0x58>
 8005254:	f04f 0350 	mov.w	r3, #80	; 0x50
 8005258:	f383 8811 	msr	BASEPRI, r3
 800525c:	f3bf 8f6f 	isb	sy
 8005260:	f3bf 8f4f 	dsb	sy
 8005264:	e7fe      	b.n	8005264 <xQueueReceive+0x54>
 8005266:	2600      	movs	r6, #0
 8005268:	f8df 90e0 	ldr.w	r9, [pc, #224]	; 800534c <xQueueReceive+0x13c>
 800526c:	f04f 0800 	mov.w	r8, #0
 8005270:	e03b      	b.n	80052ea <xQueueReceive+0xda>
 8005272:	9d01      	ldr	r5, [sp, #4]
 8005274:	b91d      	cbnz	r5, 800527e <xQueueReceive+0x6e>
 8005276:	f001 f91f 	bl	80064b8 <vPortExitCritical>
 800527a:	2000      	movs	r0, #0
 800527c:	e052      	b.n	8005324 <xQueueReceive+0x114>
 800527e:	b916      	cbnz	r6, 8005286 <xQueueReceive+0x76>
 8005280:	a802      	add	r0, sp, #8
 8005282:	f000 fd65 	bl	8005d50 <vTaskInternalSetTimeOutState>
 8005286:	f001 f917 	bl	80064b8 <vPortExitCritical>
 800528a:	f000 fb6d 	bl	8005968 <vTaskSuspendAll>
 800528e:	f001 f8f1 	bl	8006474 <vPortEnterCritical>
 8005292:	f894 3044 	ldrb.w	r3, [r4, #68]	; 0x44
 8005296:	2bff      	cmp	r3, #255	; 0xff
 8005298:	bf08      	it	eq
 800529a:	f884 8044 	strbeq.w	r8, [r4, #68]	; 0x44
 800529e:	f894 3045 	ldrb.w	r3, [r4, #69]	; 0x45
 80052a2:	2bff      	cmp	r3, #255	; 0xff
 80052a4:	bf08      	it	eq
 80052a6:	f884 8045 	strbeq.w	r8, [r4, #69]	; 0x45
 80052aa:	f001 f905 	bl	80064b8 <vPortExitCritical>
 80052ae:	a901      	add	r1, sp, #4
 80052b0:	a802      	add	r0, sp, #8
 80052b2:	f000 fd59 	bl	8005d68 <xTaskCheckForTimeOut>
 80052b6:	2800      	cmp	r0, #0
 80052b8:	d13d      	bne.n	8005336 <xQueueReceive+0x126>
 80052ba:	4620      	mov	r0, r4
 80052bc:	f7ff fd59 	bl	8004d72 <prvIsQueueEmpty>
 80052c0:	b398      	cbz	r0, 800532a <xQueueReceive+0x11a>
 80052c2:	9901      	ldr	r1, [sp, #4]
 80052c4:	f104 0024 	add.w	r0, r4, #36	; 0x24
 80052c8:	f000 fcc6 	bl	8005c58 <vTaskPlaceOnEventList>
 80052cc:	4620      	mov	r0, r4
 80052ce:	f7ff fda6 	bl	8004e1e <prvUnlockQueue>
 80052d2:	f000 fbed 	bl	8005ab0 <xTaskResumeAll>
 80052d6:	b938      	cbnz	r0, 80052e8 <xQueueReceive+0xd8>
 80052d8:	f04f 5380 	mov.w	r3, #268435456	; 0x10000000
 80052dc:	f8c9 3000 	str.w	r3, [r9]
 80052e0:	f3bf 8f4f 	dsb	sy
 80052e4:	f3bf 8f6f 	isb	sy
 80052e8:	2601      	movs	r6, #1
 80052ea:	f001 f8c3 	bl	8006474 <vPortEnterCritical>
 80052ee:	6ba5      	ldr	r5, [r4, #56]	; 0x38
 80052f0:	2d00      	cmp	r5, #0
 80052f2:	d0be      	beq.n	8005272 <xQueueReceive+0x62>
 80052f4:	4639      	mov	r1, r7
 80052f6:	4620      	mov	r0, r4
 80052f8:	3d01      	subs	r5, #1
 80052fa:	f7ff fd7a 	bl	8004df2 <prvCopyDataFromQueue>
 80052fe:	63a5      	str	r5, [r4, #56]	; 0x38
 8005300:	6923      	ldr	r3, [r4, #16]
 8005302:	b163      	cbz	r3, 800531e <xQueueReceive+0x10e>
 8005304:	f104 0010 	add.w	r0, r4, #16
 8005308:	f000 fcde 	bl	8005cc8 <xTaskRemoveFromEventList>
 800530c:	b138      	cbz	r0, 800531e <xQueueReceive+0x10e>
 800530e:	4b0f      	ldr	r3, [pc, #60]	; (800534c <xQueueReceive+0x13c>)
 8005310:	f04f 5280 	mov.w	r2, #268435456	; 0x10000000
 8005314:	601a      	str	r2, [r3, #0]
 8005316:	f3bf 8f4f 	dsb	sy
 800531a:	f3bf 8f6f 	isb	sy
 800531e:	f001 f8cb 	bl	80064b8 <vPortExitCritical>
 8005322:	2001      	movs	r0, #1
 8005324:	b005      	add	sp, #20
 8005326:	e8bd 83f0 	ldmia.w	sp!, {r4, r5, r6, r7, r8, r9, pc}
 800532a:	4620      	mov	r0, r4
 800532c:	f7ff fd77 	bl	8004e1e <prvUnlockQueue>
 8005330:	f000 fbbe 	bl	8005ab0 <xTaskResumeAll>
 8005334:	e7d8      	b.n	80052e8 <xQueueReceive+0xd8>
 8005336:	4620      	mov	r0, r4
 8005338:	f7ff fd71 	bl	8004e1e <prvUnlockQueue>
 800533c:	f000 fbb8 	bl	8005ab0 <xTaskResumeAll>
 8005340:	4620      	mov	r0, r4
 8005342:	f7ff fd16 	bl	8004d72 <prvIsQueueEmpty>
 8005346:	2800      	cmp	r0, #0
 8005348:	d0ce      	beq.n	80052e8 <xQueueReceive+0xd8>
 800534a:	e796      	b.n	800527a <xQueueReceive+0x6a>
 800534c:	e000ed04 	.word	0xe000ed04

08005350 <xQueueSemaphoreTake>:
 8005350:	e92d 41ff 	stmdb	sp!, {r0, r1, r2, r3, r4, r5, r6, r7, r8, lr}
 8005354:	4604      	mov	r4, r0
 8005356:	9101      	str	r1, [sp, #4]
 8005358:	b940      	cbnz	r0, 800536c <xQueueSemaphoreTake+0x1c>
 800535a:	f04f 0350 	mov.w	r3, #80	; 0x50
 800535e:	f383 8811 	msr	BASEPRI, r3
 8005362:	f3bf 8f6f 	isb	sy
 8005366:	f3bf 8f4f 	dsb	sy
 800536a:	e7fe      	b.n	800536a <xQueueSemaphoreTake+0x1a>
 800536c:	6c05      	ldr	r5, [r0, #64]	; 0x40
 800536e:	b145      	cbz	r5, 8005382 <xQueueSemaphoreTake+0x32>
 8005370:	f04f 0350 	mov.w	r3, #80	; 0x50
 8005374:	f383 8811 	msr	BASEPRI, r3
 8005378:	f3bf 8f6f 	isb	sy
 800537c:	f3bf 8f4f 	dsb	sy
 8005380:	e7fe      	b.n	8005380 <xQueueSemaphoreTake+0x30>
 8005382:	f000 fd33 	bl	8005dec <xTaskGetSchedulerState>
 8005386:	4606      	mov	r6, r0
 8005388:	b950      	cbnz	r0, 80053a0 <xQueueSemaphoreTake+0x50>
 800538a:	9b01      	ldr	r3, [sp, #4]
 800538c:	b16b      	cbz	r3, 80053aa <xQueueSemaphoreTake+0x5a>
 800538e:	f04f 0350 	mov.w	r3, #80	; 0x50
 8005392:	f383 8811 	msr	BASEPRI, r3
 8005396:	f3bf 8f6f 	isb	sy
 800539a:	f3bf 8f4f 	dsb	sy
 800539e:	e7fe      	b.n	800539e <xQueueSemaphoreTake+0x4e>
 80053a0:	462e      	mov	r6, r5
 80053a2:	f8df 8130 	ldr.w	r8, [pc, #304]	; 80054d4 <xQueueSemaphoreTake+0x184>
 80053a6:	2700      	movs	r7, #0
 80053a8:	e051      	b.n	800544e <xQueueSemaphoreTake+0xfe>
 80053aa:	4605      	mov	r5, r0
 80053ac:	e7f9      	b.n	80053a2 <xQueueSemaphoreTake+0x52>
 80053ae:	9b01      	ldr	r3, [sp, #4]
 80053b0:	b963      	cbnz	r3, 80053cc <xQueueSemaphoreTake+0x7c>
 80053b2:	b145      	cbz	r5, 80053c6 <xQueueSemaphoreTake+0x76>
 80053b4:	f04f 0350 	mov.w	r3, #80	; 0x50
 80053b8:	f383 8811 	msr	BASEPRI, r3
 80053bc:	f3bf 8f6f 	isb	sy
 80053c0:	f3bf 8f4f 	dsb	sy
 80053c4:	e7fe      	b.n	80053c4 <xQueueSemaphoreTake+0x74>
 80053c6:	f001 f877 	bl	80064b8 <vPortExitCritical>
 80053ca:	e05e      	b.n	800548a <xQueueSemaphoreTake+0x13a>
 80053cc:	b916      	cbnz	r6, 80053d4 <xQueueSemaphoreTake+0x84>
 80053ce:	a802      	add	r0, sp, #8
 80053d0:	f000 fcbe 	bl	8005d50 <vTaskInternalSetTimeOutState>
 80053d4:	f001 f870 	bl	80064b8 <vPortExitCritical>
 80053d8:	f000 fac6 	bl	8005968 <vTaskSuspendAll>
 80053dc:	f001 f84a 	bl	8006474 <vPortEnterCritical>
 80053e0:	f894 3044 	ldrb.w	r3, [r4, #68]	; 0x44
 80053e4:	2bff      	cmp	r3, #255	; 0xff
 80053e6:	bf08      	it	eq
 80053e8:	f884 7044 	strbeq.w	r7, [r4, #68]	; 0x44
 80053ec:	f894 3045 	ldrb.w	r3, [r4, #69]	; 0x45
 80053f0:	2bff      	cmp	r3, #255	; 0xff
 80053f2:	bf08      	it	eq
 80053f4:	f884 7045 	strbeq.w	r7, [r4, #69]	; 0x45
 80053f8:	f001 f85e 	bl	80064b8 <vPortExitCritical>
 80053fc:	a901      	add	r1, sp, #4
 80053fe:	a802      	add	r0, sp, #8
 8005400:	f000 fcb2 	bl	8005d68 <xTaskCheckForTimeOut>
 8005404:	2800      	cmp	r0, #0
 8005406:	d14a      	bne.n	800549e <xQueueSemaphoreTake+0x14e>
 8005408:	4620      	mov	r0, r4
 800540a:	f7ff fcb2 	bl	8004d72 <prvIsQueueEmpty>
 800540e:	2800      	cmp	r0, #0
 8005410:	d03f      	beq.n	8005492 <xQueueSemaphoreTake+0x142>
 8005412:	6823      	ldr	r3, [r4, #0]
 8005414:	b93b      	cbnz	r3, 8005426 <xQueueSemaphoreTake+0xd6>
 8005416:	f001 f82d 	bl	8006474 <vPortEnterCritical>
 800541a:	68a0      	ldr	r0, [r4, #8]
 800541c:	f000 fcf6 	bl	8005e0c <xTaskPriorityInherit>
 8005420:	4605      	mov	r5, r0
 8005422:	f001 f849 	bl	80064b8 <vPortExitCritical>
 8005426:	9901      	ldr	r1, [sp, #4]
 8005428:	f104 0024 	add.w	r0, r4, #36	; 0x24
 800542c:	f000 fc14 	bl	8005c58 <vTaskPlaceOnEventList>
 8005430:	4620      	mov	r0, r4
 8005432:	f7ff fcf4 	bl	8004e1e <prvUnlockQueue>
 8005436:	f000 fb3b 	bl	8005ab0 <xTaskResumeAll>
 800543a:	b938      	cbnz	r0, 800544c <xQueueSemaphoreTake+0xfc>
 800543c:	f04f 5380 	mov.w	r3, #268435456	; 0x10000000
 8005440:	f8c8 3000 	str.w	r3, [r8]
 8005444:	f3bf 8f4f 	dsb	sy
 8005448:	f3bf 8f6f 	isb	sy
 800544c:	2601      	movs	r6, #1
 800544e:	f001 f811 	bl	8006474 <vPortEnterCritical>
 8005452:	6ba3      	ldr	r3, [r4, #56]	; 0x38
 8005454:	2b00      	cmp	r3, #0
 8005456:	d0aa      	beq.n	80053ae <xQueueSemaphoreTake+0x5e>
 8005458:	3b01      	subs	r3, #1
 800545a:	63a3      	str	r3, [r4, #56]	; 0x38
 800545c:	6823      	ldr	r3, [r4, #0]
 800545e:	b913      	cbnz	r3, 8005466 <xQueueSemaphoreTake+0x116>
 8005460:	f000 fdac 	bl	8005fbc <pvTaskIncrementMutexHeldCount>
 8005464:	60a0      	str	r0, [r4, #8]
 8005466:	6923      	ldr	r3, [r4, #16]
 8005468:	b163      	cbz	r3, 8005484 <xQueueSemaphoreTake+0x134>
 800546a:	f104 0010 	add.w	r0, r4, #16
 800546e:	f000 fc2b 	bl	8005cc8 <xTaskRemoveFromEventList>
 8005472:	b138      	cbz	r0, 8005484 <xQueueSemaphoreTake+0x134>
 8005474:	4b17      	ldr	r3, [pc, #92]	; (80054d4 <xQueueSemaphoreTake+0x184>)
 8005476:	f04f 5280 	mov.w	r2, #268435456	; 0x10000000
 800547a:	601a      	str	r2, [r3, #0]
 800547c:	f3bf 8f4f 	dsb	sy
 8005480:	f3bf 8f6f 	isb	sy
 8005484:	f001 f818 	bl	80064b8 <vPortExitCritical>
 8005488:	2501      	movs	r5, #1
 800548a:	4628      	mov	r0, r5
 800548c:	b004      	add	sp, #16
 800548e:	e8bd 81f0 	ldmia.w	sp!, {r4, r5, r6, r7, r8, pc}
 8005492:	4620      	mov	r0, r4
 8005494:	f7ff fcc3 	bl	8004e1e <prvUnlockQueue>
 8005498:	f000 fb0a 	bl	8005ab0 <xTaskResumeAll>
 800549c:	e7d6      	b.n	800544c <xQueueSemaphoreTake+0xfc>
 800549e:	4620      	mov	r0, r4
 80054a0:	f7ff fcbd 	bl	8004e1e <prvUnlockQueue>
 80054a4:	f000 fb04 	bl	8005ab0 <xTaskResumeAll>
 80054a8:	4620      	mov	r0, r4
 80054aa:	f7ff fc62 	bl	8004d72 <prvIsQueueEmpty>
 80054ae:	2800      	cmp	r0, #0
 80054b0:	d0cc      	beq.n	800544c <xQueueSemaphoreTake+0xfc>
 80054b2:	2d00      	cmp	r5, #0
 80054b4:	d0e9      	beq.n	800548a <xQueueSemaphoreTake+0x13a>
 80054b6:	f000 ffdd 	bl	8006474 <vPortEnterCritical>
 80054ba:	6a61      	ldr	r1, [r4, #36]	; 0x24
 80054bc:	b119      	cbz	r1, 80054c6 <xQueueSemaphoreTake+0x176>
 80054be:	6b23      	ldr	r3, [r4, #48]	; 0x30
 80054c0:	6819      	ldr	r1, [r3, #0]
 80054c2:	f1c1 0138 	rsb	r1, r1, #56	; 0x38
 80054c6:	68a0      	ldr	r0, [r4, #8]
 80054c8:	f000 fd26 	bl	8005f18 <vTaskPriorityDisinheritAfterTimeout>
 80054cc:	2500      	movs	r5, #0
 80054ce:	f000 fff3 	bl	80064b8 <vPortExitCritical>
 80054d2:	e7da      	b.n	800548a <xQueueSemaphoreTake+0x13a>
 80054d4:	e000ed04 	.word	0xe000ed04

080054d8 <vQueueAddToRegistry>:
 80054d8:	b530      	push	{r4, r5, lr}
 80054da:	4a07      	ldr	r2, [pc, #28]	; (80054f8 <vQueueAddToRegistry+0x20>)
 80054dc:	2300      	movs	r3, #0
 80054de:	f852 5033 	ldr.w	r5, [r2, r3, lsl #3]
 80054e2:	eb02 04c3 	add.w	r4, r2, r3, lsl #3
 80054e6:	b91d      	cbnz	r5, 80054f0 <vQueueAddToRegistry+0x18>
 80054e8:	f842 1033 	str.w	r1, [r2, r3, lsl #3]
 80054ec:	6060      	str	r0, [r4, #4]
 80054ee:	bd30      	pop	{r4, r5, pc}
 80054f0:	3301      	adds	r3, #1
 80054f2:	2b08      	cmp	r3, #8
 80054f4:	d1f3      	bne.n	80054de <vQueueAddToRegistry+0x6>
 80054f6:	e7fa      	b.n	80054ee <vQueueAddToRegistry+0x16>
 80054f8:	20005100 	.word	0x20005100

080054fc <vQueueWaitForMessageRestricted>:
 80054fc:	b570      	push	{r4, r5, r6, lr}
 80054fe:	4604      	mov	r4, r0
 8005500:	460d      	mov	r5, r1
 8005502:	4616      	mov	r6, r2
 8005504:	f000 ffb6 	bl	8006474 <vPortEnterCritical>
 8005508:	f894 3044 	ldrb.w	r3, [r4, #68]	; 0x44
 800550c:	2bff      	cmp	r3, #255	; 0xff
 800550e:	bf04      	itt	eq
 8005510:	2300      	moveq	r3, #0
 8005512:	f884 3044 	strbeq.w	r3, [r4, #68]	; 0x44
 8005516:	f894 3045 	ldrb.w	r3, [r4, #69]	; 0x45
 800551a:	2bff      	cmp	r3, #255	; 0xff
 800551c:	bf04      	itt	eq
 800551e:	2300      	moveq	r3, #0
 8005520:	f884 3045 	strbeq.w	r3, [r4, #69]	; 0x45
 8005524:	f000 ffc8 	bl	80064b8 <vPortExitCritical>
 8005528:	6ba3      	ldr	r3, [r4, #56]	; 0x38
 800552a:	b92b      	cbnz	r3, 8005538 <vQueueWaitForMessageRestricted+0x3c>
 800552c:	4632      	mov	r2, r6
 800552e:	4629      	mov	r1, r5
 8005530:	f104 0024 	add.w	r0, r4, #36	; 0x24
 8005534:	f000 fbaa 	bl	8005c8c <vTaskPlaceOnEventListRestricted>
 8005538:	4620      	mov	r0, r4
 800553a:	e8bd 4070 	ldmia.w	sp!, {r4, r5, r6, lr}
 800553e:	f7ff bc6e 	b.w	8004e1e <prvUnlockQueue>
	...

08005544 <prvAddNewTaskToReadyList>:
 8005544:	e92d 41f0 	stmdb	sp!, {r4, r5, r6, r7, r8, lr}
 8005548:	4604      	mov	r4, r0
 800554a:	f000 ff93 	bl	8006474 <vPortEnterCritical>
 800554e:	4b2f      	ldr	r3, [pc, #188]	; (800560c <prvAddNewTaskToReadyList+0xc8>)
 8005550:	4d2f      	ldr	r5, [pc, #188]	; (8005610 <prvAddNewTaskToReadyList+0xcc>)
 8005552:	681a      	ldr	r2, [r3, #0]
 8005554:	4f2f      	ldr	r7, [pc, #188]	; (8005614 <prvAddNewTaskToReadyList+0xd0>)
 8005556:	3201      	adds	r2, #1
 8005558:	601a      	str	r2, [r3, #0]
 800555a:	682e      	ldr	r6, [r5, #0]
 800555c:	2e00      	cmp	r6, #0
 800555e:	d149      	bne.n	80055f4 <prvAddNewTaskToReadyList+0xb0>
 8005560:	602c      	str	r4, [r5, #0]
 8005562:	681b      	ldr	r3, [r3, #0]
 8005564:	2b01      	cmp	r3, #1
 8005566:	d11f      	bne.n	80055a8 <prvAddNewTaskToReadyList+0x64>
 8005568:	46b8      	mov	r8, r7
 800556a:	4640      	mov	r0, r8
 800556c:	3601      	adds	r6, #1
 800556e:	f7ff fbbf 	bl	8004cf0 <vListInitialise>
 8005572:	2e38      	cmp	r6, #56	; 0x38
 8005574:	f108 0814 	add.w	r8, r8, #20
 8005578:	d1f7      	bne.n	800556a <prvAddNewTaskToReadyList+0x26>
 800557a:	f8df 80c4 	ldr.w	r8, [pc, #196]	; 8005640 <prvAddNewTaskToReadyList+0xfc>
 800557e:	4e26      	ldr	r6, [pc, #152]	; (8005618 <prvAddNewTaskToReadyList+0xd4>)
 8005580:	4640      	mov	r0, r8
 8005582:	f7ff fbb5 	bl	8004cf0 <vListInitialise>
 8005586:	4630      	mov	r0, r6
 8005588:	f7ff fbb2 	bl	8004cf0 <vListInitialise>
 800558c:	4823      	ldr	r0, [pc, #140]	; (800561c <prvAddNewTaskToReadyList+0xd8>)
 800558e:	f7ff fbaf 	bl	8004cf0 <vListInitialise>
 8005592:	4823      	ldr	r0, [pc, #140]	; (8005620 <prvAddNewTaskToReadyList+0xdc>)
 8005594:	f7ff fbac 	bl	8004cf0 <vListInitialise>
 8005598:	4822      	ldr	r0, [pc, #136]	; (8005624 <prvAddNewTaskToReadyList+0xe0>)
 800559a:	f7ff fba9 	bl	8004cf0 <vListInitialise>
 800559e:	4b22      	ldr	r3, [pc, #136]	; (8005628 <prvAddNewTaskToReadyList+0xe4>)
 80055a0:	f8c3 8000 	str.w	r8, [r3]
 80055a4:	4b21      	ldr	r3, [pc, #132]	; (800562c <prvAddNewTaskToReadyList+0xe8>)
 80055a6:	601e      	str	r6, [r3, #0]
 80055a8:	4a21      	ldr	r2, [pc, #132]	; (8005630 <prvAddNewTaskToReadyList+0xec>)
 80055aa:	6813      	ldr	r3, [r2, #0]
 80055ac:	3301      	adds	r3, #1
 80055ae:	6013      	str	r3, [r2, #0]
 80055b0:	4a20      	ldr	r2, [pc, #128]	; (8005634 <prvAddNewTaskToReadyList+0xf0>)
 80055b2:	6463      	str	r3, [r4, #68]	; 0x44
 80055b4:	6811      	ldr	r1, [r2, #0]
 80055b6:	6ae3      	ldr	r3, [r4, #44]	; 0x2c
 80055b8:	2014      	movs	r0, #20
 80055ba:	428b      	cmp	r3, r1
 80055bc:	fb00 7003 	mla	r0, r0, r3, r7
 80055c0:	f104 0104 	add.w	r1, r4, #4
 80055c4:	bf88      	it	hi
 80055c6:	6013      	strhi	r3, [r2, #0]
 80055c8:	f7ff fba0 	bl	8004d0c <vListInsertEnd>
 80055cc:	f000 ff74 	bl	80064b8 <vPortExitCritical>
 80055d0:	4b19      	ldr	r3, [pc, #100]	; (8005638 <prvAddNewTaskToReadyList+0xf4>)
 80055d2:	681b      	ldr	r3, [r3, #0]
 80055d4:	b163      	cbz	r3, 80055f0 <prvAddNewTaskToReadyList+0xac>
 80055d6:	682b      	ldr	r3, [r5, #0]
 80055d8:	6ada      	ldr	r2, [r3, #44]	; 0x2c
 80055da:	6ae3      	ldr	r3, [r4, #44]	; 0x2c
 80055dc:	429a      	cmp	r2, r3
 80055de:	d207      	bcs.n	80055f0 <prvAddNewTaskToReadyList+0xac>
 80055e0:	4b16      	ldr	r3, [pc, #88]	; (800563c <prvAddNewTaskToReadyList+0xf8>)
 80055e2:	f04f 5280 	mov.w	r2, #268435456	; 0x10000000
 80055e6:	601a      	str	r2, [r3, #0]
 80055e8:	f3bf 8f4f 	dsb	sy
 80055ec:	f3bf 8f6f 	isb	sy
 80055f0:	e8bd 81f0 	ldmia.w	sp!, {r4, r5, r6, r7, r8, pc}
 80055f4:	4b10      	ldr	r3, [pc, #64]	; (8005638 <prvAddNewTaskToReadyList+0xf4>)
 80055f6:	681b      	ldr	r3, [r3, #0]
 80055f8:	2b00      	cmp	r3, #0
 80055fa:	d1d5      	bne.n	80055a8 <prvAddNewTaskToReadyList+0x64>
 80055fc:	682b      	ldr	r3, [r5, #0]
 80055fe:	6ada      	ldr	r2, [r3, #44]	; 0x2c
 8005600:	6ae3      	ldr	r3, [r4, #44]	; 0x2c
 8005602:	429a      	cmp	r2, r3
 8005604:	bf98      	it	ls
 8005606:	602c      	strls	r4, [r5, #0]
 8005608:	e7ce      	b.n	80055a8 <prvAddNewTaskToReadyList+0x64>
 800560a:	bf00      	nop
 800560c:	20000d3c 	.word	0x20000d3c
 8005610:	200008d0 	.word	0x200008d0
 8005614:	200008dc 	.word	0x200008dc
 8005618:	20000d64 	.word	0x20000d64
 800561c:	20000d84 	.word	0x20000d84
 8005620:	20000db0 	.word	0x20000db0
 8005624:	20000d9c 	.word	0x20000d9c
 8005628:	200008d4 	.word	0x200008d4
 800562c:	200008d8 	.word	0x200008d8
 8005630:	20000d48 	.word	0x20000d48
 8005634:	20000d4c 	.word	0x20000d4c
 8005638:	20000d98 	.word	0x20000d98
 800563c:	e000ed04 	.word	0xe000ed04
 8005640:	20000d50 	.word	0x20000d50

08005644 <prvResetNextTaskUnblockTime>:
 8005644:	4a06      	ldr	r2, [pc, #24]	; (8005660 <prvResetNextTaskUnblockTime+0x1c>)
 8005646:	6813      	ldr	r3, [r2, #0]
 8005648:	6819      	ldr	r1, [r3, #0]
 800564a:	4b06      	ldr	r3, [pc, #24]	; (8005664 <prvResetNextTaskUnblockTime+0x20>)
 800564c:	b919      	cbnz	r1, 8005656 <prvResetNextTaskUnblockTime+0x12>
 800564e:	f04f 32ff 	mov.w	r2, #4294967295
 8005652:	601a      	str	r2, [r3, #0]
 8005654:	4770      	bx	lr
 8005656:	6812      	ldr	r2, [r2, #0]
 8005658:	68d2      	ldr	r2, [r2, #12]
 800565a:	68d2      	ldr	r2, [r2, #12]
 800565c:	6852      	ldr	r2, [r2, #4]
 800565e:	e7f8      	b.n	8005652 <prvResetNextTaskUnblockTime+0xe>
 8005660:	200008d4 	.word	0x200008d4
 8005664:	20000d78 	.word	0x20000d78

08005668 <prvInitialiseNewTask.isra.0>:
 8005668:	e92d 47f0 	stmdb	sp!, {r4, r5, r6, r7, r8, r9, sl, lr}
 800566c:	e9dd 8409 	ldrd	r8, r4, [sp, #36]	; 0x24
 8005670:	ea4f 0982 	mov.w	r9, r2, lsl #2
 8005674:	464a      	mov	r2, r9
 8005676:	4606      	mov	r6, r0
 8005678:	460d      	mov	r5, r1
 800567a:	6b20      	ldr	r0, [r4, #48]	; 0x30
 800567c:	21a5      	movs	r1, #165	; 0xa5
 800567e:	461f      	mov	r7, r3
 8005680:	f001 f988 	bl	8006994 <memset>
 8005684:	6b22      	ldr	r2, [r4, #48]	; 0x30
 8005686:	f1a9 0904 	sub.w	r9, r9, #4
 800568a:	4491      	add	r9, r2
 800568c:	f029 0907 	bic.w	r9, r9, #7
 8005690:	b3ad      	cbz	r5, 80056fe <prvInitialiseNewTask.isra.0+0x96>
 8005692:	1e6b      	subs	r3, r5, #1
 8005694:	f104 0234 	add.w	r2, r4, #52	; 0x34
 8005698:	350f      	adds	r5, #15
 800569a:	f813 1f01 	ldrb.w	r1, [r3, #1]!
 800569e:	f802 1b01 	strb.w	r1, [r2], #1
 80056a2:	7819      	ldrb	r1, [r3, #0]
 80056a4:	b109      	cbz	r1, 80056aa <prvInitialiseNewTask.isra.0+0x42>
 80056a6:	42ab      	cmp	r3, r5
 80056a8:	d1f7      	bne.n	800569a <prvInitialiseNewTask.isra.0+0x32>
 80056aa:	2300      	movs	r3, #0
 80056ac:	f884 3043 	strb.w	r3, [r4, #67]	; 0x43
 80056b0:	9d08      	ldr	r5, [sp, #32]
 80056b2:	2d37      	cmp	r5, #55	; 0x37
 80056b4:	bf28      	it	cs
 80056b6:	2537      	movcs	r5, #55	; 0x37
 80056b8:	f04f 0a00 	mov.w	sl, #0
 80056bc:	62e5      	str	r5, [r4, #44]	; 0x2c
 80056be:	64e5      	str	r5, [r4, #76]	; 0x4c
 80056c0:	1d20      	adds	r0, r4, #4
 80056c2:	f8c4 a050 	str.w	sl, [r4, #80]	; 0x50
 80056c6:	f7ff fb1e 	bl	8004d06 <vListInitialiseItem>
 80056ca:	f1c5 0538 	rsb	r5, r5, #56	; 0x38
 80056ce:	f104 0018 	add.w	r0, r4, #24
 80056d2:	f7ff fb18 	bl	8004d06 <vListInitialiseItem>
 80056d6:	f8c4 a054 	str.w	sl, [r4, #84]	; 0x54
 80056da:	6124      	str	r4, [r4, #16]
 80056dc:	61a5      	str	r5, [r4, #24]
 80056de:	6264      	str	r4, [r4, #36]	; 0x24
 80056e0:	f884 a058 	strb.w	sl, [r4, #88]	; 0x58
 80056e4:	463a      	mov	r2, r7
 80056e6:	4631      	mov	r1, r6
 80056e8:	4648      	mov	r0, r9
 80056ea:	f000 fe9b 	bl	8006424 <pxPortInitialiseStack>
 80056ee:	6020      	str	r0, [r4, #0]
 80056f0:	f1b8 0f00 	cmp.w	r8, #0
 80056f4:	d001      	beq.n	80056fa <prvInitialiseNewTask.isra.0+0x92>
 80056f6:	f8c8 4000 	str.w	r4, [r8]
 80056fa:	e8bd 87f0 	ldmia.w	sp!, {r4, r5, r6, r7, r8, r9, sl, pc}
 80056fe:	f884 5034 	strb.w	r5, [r4, #52]	; 0x34
 8005702:	e7d5      	b.n	80056b0 <prvInitialiseNewTask.isra.0+0x48>

08005704 <prvDeleteTCB>:
 8005704:	b510      	push	{r4, lr}
 8005706:	f890 3059 	ldrb.w	r3, [r0, #89]	; 0x59
 800570a:	4604      	mov	r4, r0
 800570c:	b93b      	cbnz	r3, 800571e <prvDeleteTCB+0x1a>
 800570e:	6b00      	ldr	r0, [r0, #48]	; 0x30
 8005710:	f001 f8b0 	bl	8006874 <vPortFree>
 8005714:	4620      	mov	r0, r4
 8005716:	e8bd 4010 	ldmia.w	sp!, {r4, lr}
 800571a:	f001 b8ab 	b.w	8006874 <vPortFree>
 800571e:	2b01      	cmp	r3, #1
 8005720:	d0f9      	beq.n	8005716 <prvDeleteTCB+0x12>
 8005722:	2b02      	cmp	r3, #2
 8005724:	d008      	beq.n	8005738 <prvDeleteTCB+0x34>
 8005726:	f04f 0350 	mov.w	r3, #80	; 0x50
 800572a:	f383 8811 	msr	BASEPRI, r3
 800572e:	f3bf 8f6f 	isb	sy
 8005732:	f3bf 8f4f 	dsb	sy
 8005736:	e7fe      	b.n	8005736 <prvDeleteTCB+0x32>
 8005738:	bd10      	pop	{r4, pc}
	...

0800573c <prvIdleTask>:
 800573c:	b580      	push	{r7, lr}
 800573e:	f8df 805c 	ldr.w	r8, [pc, #92]	; 800579c <prvIdleTask+0x60>
 8005742:	4f12      	ldr	r7, [pc, #72]	; (800578c <prvIdleTask+0x50>)
 8005744:	4c12      	ldr	r4, [pc, #72]	; (8005790 <prvIdleTask+0x54>)
 8005746:	4d13      	ldr	r5, [pc, #76]	; (8005794 <prvIdleTask+0x58>)
 8005748:	6823      	ldr	r3, [r4, #0]
 800574a:	b963      	cbnz	r3, 8005766 <prvIdleTask+0x2a>
 800574c:	4b12      	ldr	r3, [pc, #72]	; (8005798 <prvIdleTask+0x5c>)
 800574e:	681b      	ldr	r3, [r3, #0]
 8005750:	2b01      	cmp	r3, #1
 8005752:	d9f8      	bls.n	8005746 <prvIdleTask+0xa>
 8005754:	f04f 5380 	mov.w	r3, #268435456	; 0x10000000
 8005758:	f8c8 3000 	str.w	r3, [r8]
 800575c:	f3bf 8f4f 	dsb	sy
 8005760:	f3bf 8f6f 	isb	sy
 8005764:	e7ee      	b.n	8005744 <prvIdleTask+0x8>
 8005766:	f000 fe85 	bl	8006474 <vPortEnterCritical>
 800576a:	68fb      	ldr	r3, [r7, #12]
 800576c:	68de      	ldr	r6, [r3, #12]
 800576e:	1d30      	adds	r0, r6, #4
 8005770:	f7ff faef 	bl	8004d52 <uxListRemove>
 8005774:	682b      	ldr	r3, [r5, #0]
 8005776:	3b01      	subs	r3, #1
 8005778:	602b      	str	r3, [r5, #0]
 800577a:	6823      	ldr	r3, [r4, #0]
 800577c:	3b01      	subs	r3, #1
 800577e:	6023      	str	r3, [r4, #0]
 8005780:	f000 fe9a 	bl	80064b8 <vPortExitCritical>
 8005784:	4630      	mov	r0, r6
 8005786:	f7ff ffbd 	bl	8005704 <prvDeleteTCB>
 800578a:	e7dd      	b.n	8005748 <prvIdleTask+0xc>
 800578c:	20000db0 	.word	0x20000db0
 8005790:	20000d40 	.word	0x20000d40
 8005794:	20000d3c 	.word	0x20000d3c
 8005798:	200008dc 	.word	0x200008dc
 800579c:	e000ed04 	.word	0xe000ed04

080057a0 <prvAddCurrentTaskToDelayedList>:
 80057a0:	b5f8      	push	{r3, r4, r5, r6, r7, lr}
 80057a2:	4b16      	ldr	r3, [pc, #88]	; (80057fc <prvAddCurrentTaskToDelayedList+0x5c>)
 80057a4:	4e16      	ldr	r6, [pc, #88]	; (8005800 <prvAddCurrentTaskToDelayedList+0x60>)
 80057a6:	681d      	ldr	r5, [r3, #0]
 80057a8:	4604      	mov	r4, r0
 80057aa:	6830      	ldr	r0, [r6, #0]
 80057ac:	3004      	adds	r0, #4
 80057ae:	460f      	mov	r7, r1
 80057b0:	f7ff facf 	bl	8004d52 <uxListRemove>
 80057b4:	1c63      	adds	r3, r4, #1
 80057b6:	4633      	mov	r3, r6
 80057b8:	d107      	bne.n	80057ca <prvAddCurrentTaskToDelayedList+0x2a>
 80057ba:	b137      	cbz	r7, 80057ca <prvAddCurrentTaskToDelayedList+0x2a>
 80057bc:	6831      	ldr	r1, [r6, #0]
 80057be:	4811      	ldr	r0, [pc, #68]	; (8005804 <prvAddCurrentTaskToDelayedList+0x64>)
 80057c0:	e8bd 40f8 	ldmia.w	sp!, {r3, r4, r5, r6, r7, lr}
 80057c4:	3104      	adds	r1, #4
 80057c6:	f7ff baa1 	b.w	8004d0c <vListInsertEnd>
 80057ca:	681a      	ldr	r2, [r3, #0]
 80057cc:	192c      	adds	r4, r5, r4
 80057ce:	6054      	str	r4, [r2, #4]
 80057d0:	d307      	bcc.n	80057e2 <prvAddCurrentTaskToDelayedList+0x42>
 80057d2:	4a0d      	ldr	r2, [pc, #52]	; (8005808 <prvAddCurrentTaskToDelayedList+0x68>)
 80057d4:	6810      	ldr	r0, [r2, #0]
 80057d6:	6819      	ldr	r1, [r3, #0]
 80057d8:	e8bd 40f8 	ldmia.w	sp!, {r3, r4, r5, r6, r7, lr}
 80057dc:	3104      	adds	r1, #4
 80057de:	f7ff baa1 	b.w	8004d24 <vListInsert>
 80057e2:	4a0a      	ldr	r2, [pc, #40]	; (800580c <prvAddCurrentTaskToDelayedList+0x6c>)
 80057e4:	6810      	ldr	r0, [r2, #0]
 80057e6:	6819      	ldr	r1, [r3, #0]
 80057e8:	3104      	adds	r1, #4
 80057ea:	f7ff fa9b 	bl	8004d24 <vListInsert>
 80057ee:	4b08      	ldr	r3, [pc, #32]	; (8005810 <prvAddCurrentTaskToDelayedList+0x70>)
 80057f0:	681a      	ldr	r2, [r3, #0]
 80057f2:	42a2      	cmp	r2, r4
 80057f4:	bf88      	it	hi
 80057f6:	601c      	strhi	r4, [r3, #0]
 80057f8:	bdf8      	pop	{r3, r4, r5, r6, r7, pc}
 80057fa:	bf00      	nop
 80057fc:	20000dc4 	.word	0x20000dc4
 8005800:	200008d0 	.word	0x200008d0
 8005804:	20000d9c 	.word	0x20000d9c
 8005808:	200008d8 	.word	0x200008d8
 800580c:	200008d4 	.word	0x200008d4
 8005810:	20000d78 	.word	0x20000d78

08005814 <xTaskCreateStatic>:
 8005814:	b570      	push	{r4, r5, r6, lr}
 8005816:	b086      	sub	sp, #24
 8005818:	e9dd 540b 	ldrd	r5, r4, [sp, #44]	; 0x2c
 800581c:	b945      	cbnz	r5, 8005830 <xTaskCreateStatic+0x1c>
 800581e:	f04f 0350 	mov.w	r3, #80	; 0x50
 8005822:	f383 8811 	msr	BASEPRI, r3
 8005826:	f3bf 8f6f 	isb	sy
 800582a:	f3bf 8f4f 	dsb	sy
 800582e:	e7fe      	b.n	800582e <xTaskCreateStatic+0x1a>
 8005830:	b944      	cbnz	r4, 8005844 <xTaskCreateStatic+0x30>
 8005832:	f04f 0350 	mov.w	r3, #80	; 0x50
 8005836:	f383 8811 	msr	BASEPRI, r3
 800583a:	f3bf 8f6f 	isb	sy
 800583e:	f3bf 8f4f 	dsb	sy
 8005842:	e7fe      	b.n	8005842 <xTaskCreateStatic+0x2e>
 8005844:	265c      	movs	r6, #92	; 0x5c
 8005846:	9605      	str	r6, [sp, #20]
 8005848:	9e05      	ldr	r6, [sp, #20]
 800584a:	2e5c      	cmp	r6, #92	; 0x5c
 800584c:	d008      	beq.n	8005860 <xTaskCreateStatic+0x4c>
 800584e:	f04f 0350 	mov.w	r3, #80	; 0x50
 8005852:	f383 8811 	msr	BASEPRI, r3
 8005856:	f3bf 8f6f 	isb	sy
 800585a:	f3bf 8f4f 	dsb	sy
 800585e:	e7fe      	b.n	800585e <xTaskCreateStatic+0x4a>
 8005860:	6325      	str	r5, [r4, #48]	; 0x30
 8005862:	2502      	movs	r5, #2
 8005864:	f884 5059 	strb.w	r5, [r4, #89]	; 0x59
 8005868:	ad04      	add	r5, sp, #16
 800586a:	9501      	str	r5, [sp, #4]
 800586c:	9d0a      	ldr	r5, [sp, #40]	; 0x28
 800586e:	9402      	str	r4, [sp, #8]
 8005870:	9500      	str	r5, [sp, #0]
 8005872:	9e05      	ldr	r6, [sp, #20]
 8005874:	f7ff fef8 	bl	8005668 <prvInitialiseNewTask.isra.0>
 8005878:	4620      	mov	r0, r4
 800587a:	f7ff fe63 	bl	8005544 <prvAddNewTaskToReadyList>
 800587e:	9804      	ldr	r0, [sp, #16]
 8005880:	b006      	add	sp, #24
 8005882:	bd70      	pop	{r4, r5, r6, pc}

08005884 <xTaskCreate>:
 8005884:	e92d 43f0 	stmdb	sp!, {r4, r5, r6, r7, r8, r9, lr}
 8005888:	4607      	mov	r7, r0
 800588a:	b085      	sub	sp, #20
 800588c:	0090      	lsls	r0, r2, #2
 800588e:	4688      	mov	r8, r1
 8005890:	4616      	mov	r6, r2
 8005892:	4699      	mov	r9, r3
 8005894:	f000 ff5c 	bl	8006750 <pvPortMalloc>
 8005898:	4605      	mov	r5, r0
 800589a:	b1e8      	cbz	r0, 80058d8 <xTaskCreate+0x54>
 800589c:	205c      	movs	r0, #92	; 0x5c
 800589e:	f000 ff57 	bl	8006750 <pvPortMalloc>
 80058a2:	4604      	mov	r4, r0
 80058a4:	b1a8      	cbz	r0, 80058d2 <xTaskCreate+0x4e>
 80058a6:	2300      	movs	r3, #0
 80058a8:	f880 3059 	strb.w	r3, [r0, #89]	; 0x59
 80058ac:	9b0d      	ldr	r3, [sp, #52]	; 0x34
 80058ae:	6305      	str	r5, [r0, #48]	; 0x30
 80058b0:	9301      	str	r3, [sp, #4]
 80058b2:	9b0c      	ldr	r3, [sp, #48]	; 0x30
 80058b4:	9002      	str	r0, [sp, #8]
 80058b6:	9300      	str	r3, [sp, #0]
 80058b8:	4632      	mov	r2, r6
 80058ba:	464b      	mov	r3, r9
 80058bc:	4641      	mov	r1, r8
 80058be:	4638      	mov	r0, r7
 80058c0:	f7ff fed2 	bl	8005668 <prvInitialiseNewTask.isra.0>
 80058c4:	4620      	mov	r0, r4
 80058c6:	f7ff fe3d 	bl	8005544 <prvAddNewTaskToReadyList>
 80058ca:	2001      	movs	r0, #1
 80058cc:	b005      	add	sp, #20
 80058ce:	e8bd 83f0 	ldmia.w	sp!, {r4, r5, r6, r7, r8, r9, pc}
 80058d2:	4628      	mov	r0, r5
 80058d4:	f000 ffce 	bl	8006874 <vPortFree>
 80058d8:	f04f 30ff 	mov.w	r0, #4294967295
 80058dc:	e7f6      	b.n	80058cc <xTaskCreate+0x48>
	...

080058e0 <vTaskStartScheduler>:
 80058e0:	b510      	push	{r4, lr}
 80058e2:	b088      	sub	sp, #32
 80058e4:	2400      	movs	r4, #0
 80058e6:	aa07      	add	r2, sp, #28
 80058e8:	a906      	add	r1, sp, #24
 80058ea:	a805      	add	r0, sp, #20
 80058ec:	e9cd 4405 	strd	r4, r4, [sp, #20]
 80058f0:	f7ff f9e6 	bl	8004cc0 <vApplicationGetIdleTaskMemory>
 80058f4:	9b05      	ldr	r3, [sp, #20]
 80058f6:	9302      	str	r3, [sp, #8]
 80058f8:	9b06      	ldr	r3, [sp, #24]
 80058fa:	9a07      	ldr	r2, [sp, #28]
 80058fc:	4915      	ldr	r1, [pc, #84]	; (8005954 <vTaskStartScheduler+0x74>)
 80058fe:	4816      	ldr	r0, [pc, #88]	; (8005958 <vTaskStartScheduler+0x78>)
 8005900:	e9cd 4300 	strd	r4, r3, [sp]
 8005904:	4623      	mov	r3, r4
 8005906:	f7ff ff85 	bl	8005814 <xTaskCreateStatic>
 800590a:	b1a8      	cbz	r0, 8005938 <vTaskStartScheduler+0x58>
 800590c:	f000 fbb4 	bl	8006078 <xTimerCreateTimerTask>
 8005910:	2801      	cmp	r0, #1
 8005912:	d113      	bne.n	800593c <vTaskStartScheduler+0x5c>
 8005914:	f04f 0350 	mov.w	r3, #80	; 0x50
 8005918:	f383 8811 	msr	BASEPRI, r3
 800591c:	f3bf 8f6f 	isb	sy
 8005920:	f3bf 8f4f 	dsb	sy
 8005924:	4b0d      	ldr	r3, [pc, #52]	; (800595c <vTaskStartScheduler+0x7c>)
 8005926:	f04f 32ff 	mov.w	r2, #4294967295
 800592a:	601a      	str	r2, [r3, #0]
 800592c:	4b0c      	ldr	r3, [pc, #48]	; (8005960 <vTaskStartScheduler+0x80>)
 800592e:	6018      	str	r0, [r3, #0]
 8005930:	4b0c      	ldr	r3, [pc, #48]	; (8005964 <vTaskStartScheduler+0x84>)
 8005932:	601c      	str	r4, [r3, #0]
 8005934:	f000 fe36 	bl	80065a4 <xPortStartScheduler>
 8005938:	b008      	add	sp, #32
 800593a:	bd10      	pop	{r4, pc}
 800593c:	3001      	adds	r0, #1
 800593e:	d1fb      	bne.n	8005938 <vTaskStartScheduler+0x58>
 8005940:	f04f 0350 	mov.w	r3, #80	; 0x50
 8005944:	f383 8811 	msr	BASEPRI, r3
 8005948:	f3bf 8f6f 	isb	sy
 800594c:	f3bf 8f4f 	dsb	sy
 8005950:	e7fe      	b.n	8005950 <vTaskStartScheduler+0x70>
 8005952:	bf00      	nop
 8005954:	0800ac74 	.word	0x0800ac74
 8005958:	0800573d 	.word	0x0800573d
 800595c:	20000d78 	.word	0x20000d78
 8005960:	20000d98 	.word	0x20000d98
 8005964:	20000dc4 	.word	0x20000dc4

08005968 <vTaskSuspendAll>:
 8005968:	4a02      	ldr	r2, [pc, #8]	; (8005974 <vTaskSuspendAll+0xc>)
 800596a:	6813      	ldr	r3, [r2, #0]
 800596c:	3301      	adds	r3, #1
 800596e:	6013      	str	r3, [r2, #0]
 8005970:	4770      	bx	lr
 8005972:	bf00      	nop
 8005974:	20000d44 	.word	0x20000d44

08005978 <xTaskGetTickCount>:
 8005978:	4b01      	ldr	r3, [pc, #4]	; (8005980 <xTaskGetTickCount+0x8>)
 800597a:	6818      	ldr	r0, [r3, #0]
 800597c:	4770      	bx	lr
 800597e:	bf00      	nop
 8005980:	20000dc4 	.word	0x20000dc4

08005984 <xTaskIncrementTick>:
 8005984:	4b3f      	ldr	r3, [pc, #252]	; (8005a84 <xTaskIncrementTick+0x100>)
 8005986:	681b      	ldr	r3, [r3, #0]
 8005988:	e92d 4ff7 	stmdb	sp!, {r0, r1, r2, r4, r5, r6, r7, r8, r9, sl, fp, lr}
 800598c:	2b00      	cmp	r3, #0
 800598e:	d173      	bne.n	8005a78 <xTaskIncrementTick+0xf4>
 8005990:	4b3d      	ldr	r3, [pc, #244]	; (8005a88 <xTaskIncrementTick+0x104>)
 8005992:	681d      	ldr	r5, [r3, #0]
 8005994:	3501      	adds	r5, #1
 8005996:	601d      	str	r5, [r3, #0]
 8005998:	b9bd      	cbnz	r5, 80059ca <xTaskIncrementTick+0x46>
 800599a:	4b3c      	ldr	r3, [pc, #240]	; (8005a8c <xTaskIncrementTick+0x108>)
 800599c:	681a      	ldr	r2, [r3, #0]
 800599e:	6812      	ldr	r2, [r2, #0]
 80059a0:	b142      	cbz	r2, 80059b4 <xTaskIncrementTick+0x30>
 80059a2:	f04f 0350 	mov.w	r3, #80	; 0x50
 80059a6:	f383 8811 	msr	BASEPRI, r3
 80059aa:	f3bf 8f6f 	isb	sy
 80059ae:	f3bf 8f4f 	dsb	sy
 80059b2:	e7fe      	b.n	80059b2 <xTaskIncrementTick+0x2e>
 80059b4:	4a36      	ldr	r2, [pc, #216]	; (8005a90 <xTaskIncrementTick+0x10c>)
 80059b6:	6819      	ldr	r1, [r3, #0]
 80059b8:	6810      	ldr	r0, [r2, #0]
 80059ba:	6018      	str	r0, [r3, #0]
 80059bc:	6011      	str	r1, [r2, #0]
 80059be:	4a35      	ldr	r2, [pc, #212]	; (8005a94 <xTaskIncrementTick+0x110>)
 80059c0:	6813      	ldr	r3, [r2, #0]
 80059c2:	3301      	adds	r3, #1
 80059c4:	6013      	str	r3, [r2, #0]
 80059c6:	f7ff fe3d 	bl	8005644 <prvResetNextTaskUnblockTime>
 80059ca:	4e33      	ldr	r6, [pc, #204]	; (8005a98 <xTaskIncrementTick+0x114>)
 80059cc:	4f33      	ldr	r7, [pc, #204]	; (8005a9c <xTaskIncrementTick+0x118>)
 80059ce:	6833      	ldr	r3, [r6, #0]
 80059d0:	f8df 80d4 	ldr.w	r8, [pc, #212]	; 8005aa8 <xTaskIncrementTick+0x124>
 80059d4:	429d      	cmp	r5, r3
 80059d6:	f04f 0400 	mov.w	r4, #0
 80059da:	d211      	bcs.n	8005a00 <xTaskIncrementTick+0x7c>
 80059dc:	f8d8 3000 	ldr.w	r3, [r8]
 80059e0:	6ada      	ldr	r2, [r3, #44]	; 0x2c
 80059e2:	2314      	movs	r3, #20
 80059e4:	4353      	muls	r3, r2
 80059e6:	58fb      	ldr	r3, [r7, r3]
 80059e8:	2b02      	cmp	r3, #2
 80059ea:	4b2d      	ldr	r3, [pc, #180]	; (8005aa0 <xTaskIncrementTick+0x11c>)
 80059ec:	681b      	ldr	r3, [r3, #0]
 80059ee:	bf28      	it	cs
 80059f0:	2401      	movcs	r4, #1
 80059f2:	2b00      	cmp	r3, #0
 80059f4:	bf18      	it	ne
 80059f6:	2401      	movne	r4, #1
 80059f8:	4620      	mov	r0, r4
 80059fa:	b003      	add	sp, #12
 80059fc:	e8bd 8ff0 	ldmia.w	sp!, {r4, r5, r6, r7, r8, r9, sl, fp, pc}
 8005a00:	f8df 9088 	ldr.w	r9, [pc, #136]	; 8005a8c <xTaskIncrementTick+0x108>
 8005a04:	f8df a0a4 	ldr.w	sl, [pc, #164]	; 8005aac <xTaskIncrementTick+0x128>
 8005a08:	f8d9 3000 	ldr.w	r3, [r9]
 8005a0c:	681b      	ldr	r3, [r3, #0]
 8005a0e:	b91b      	cbnz	r3, 8005a18 <xTaskIncrementTick+0x94>
 8005a10:	f04f 33ff 	mov.w	r3, #4294967295
 8005a14:	6033      	str	r3, [r6, #0]
 8005a16:	e7e1      	b.n	80059dc <xTaskIncrementTick+0x58>
 8005a18:	f8d9 3000 	ldr.w	r3, [r9]
 8005a1c:	68db      	ldr	r3, [r3, #12]
 8005a1e:	f8d3 b00c 	ldr.w	fp, [r3, #12]
 8005a22:	f8db 2004 	ldr.w	r2, [fp, #4]
 8005a26:	4295      	cmp	r5, r2
 8005a28:	d201      	bcs.n	8005a2e <xTaskIncrementTick+0xaa>
 8005a2a:	6032      	str	r2, [r6, #0]
 8005a2c:	e7d6      	b.n	80059dc <xTaskIncrementTick+0x58>
 8005a2e:	f10b 0104 	add.w	r1, fp, #4
 8005a32:	4608      	mov	r0, r1
 8005a34:	9101      	str	r1, [sp, #4]
 8005a36:	f7ff f98c 	bl	8004d52 <uxListRemove>
 8005a3a:	f8db 2028 	ldr.w	r2, [fp, #40]	; 0x28
 8005a3e:	9901      	ldr	r1, [sp, #4]
 8005a40:	b122      	cbz	r2, 8005a4c <xTaskIncrementTick+0xc8>
 8005a42:	f10b 0018 	add.w	r0, fp, #24
 8005a46:	f7ff f984 	bl	8004d52 <uxListRemove>
 8005a4a:	9901      	ldr	r1, [sp, #4]
 8005a4c:	f8db 002c 	ldr.w	r0, [fp, #44]	; 0x2c
 8005a50:	f8da 2000 	ldr.w	r2, [sl]
 8005a54:	2314      	movs	r3, #20
 8005a56:	4290      	cmp	r0, r2
 8005a58:	bf88      	it	hi
 8005a5a:	f8ca 0000 	strhi.w	r0, [sl]
 8005a5e:	fb03 7000 	mla	r0, r3, r0, r7
 8005a62:	f7ff f953 	bl	8004d0c <vListInsertEnd>
 8005a66:	f8d8 1000 	ldr.w	r1, [r8]
 8005a6a:	f8db 202c 	ldr.w	r2, [fp, #44]	; 0x2c
 8005a6e:	6acb      	ldr	r3, [r1, #44]	; 0x2c
 8005a70:	429a      	cmp	r2, r3
 8005a72:	bf28      	it	cs
 8005a74:	2401      	movcs	r4, #1
 8005a76:	e7c7      	b.n	8005a08 <xTaskIncrementTick+0x84>
 8005a78:	4a0a      	ldr	r2, [pc, #40]	; (8005aa4 <xTaskIncrementTick+0x120>)
 8005a7a:	6813      	ldr	r3, [r2, #0]
 8005a7c:	3301      	adds	r3, #1
 8005a7e:	6013      	str	r3, [r2, #0]
 8005a80:	2400      	movs	r4, #0
 8005a82:	e7b9      	b.n	80059f8 <xTaskIncrementTick+0x74>
 8005a84:	20000d44 	.word	0x20000d44
 8005a88:	20000dc4 	.word	0x20000dc4
 8005a8c:	200008d4 	.word	0x200008d4
 8005a90:	200008d8 	.word	0x200008d8
 8005a94:	20000d7c 	.word	0x20000d7c
 8005a98:	20000d78 	.word	0x20000d78
 8005a9c:	200008dc 	.word	0x200008dc
 8005aa0:	20000dc8 	.word	0x20000dc8
 8005aa4:	20000d80 	.word	0x20000d80
 8005aa8:	200008d0 	.word	0x200008d0
 8005aac:	20000d4c 	.word	0x20000d4c

08005ab0 <xTaskResumeAll>:
 8005ab0:	b5f7      	push	{r0, r1, r2, r4, r5, r6, r7, lr}
 8005ab2:	4c30      	ldr	r4, [pc, #192]	; (8005b74 <xTaskResumeAll+0xc4>)
 8005ab4:	6823      	ldr	r3, [r4, #0]
 8005ab6:	b943      	cbnz	r3, 8005aca <xTaskResumeAll+0x1a>
 8005ab8:	f04f 0350 	mov.w	r3, #80	; 0x50
 8005abc:	f383 8811 	msr	BASEPRI, r3
 8005ac0:	f3bf 8f6f 	isb	sy
 8005ac4:	f3bf 8f4f 	dsb	sy
 8005ac8:	e7fe      	b.n	8005ac8 <xTaskResumeAll+0x18>
 8005aca:	f000 fcd3 	bl	8006474 <vPortEnterCritical>
 8005ace:	6823      	ldr	r3, [r4, #0]
 8005ad0:	3b01      	subs	r3, #1
 8005ad2:	6023      	str	r3, [r4, #0]
 8005ad4:	6824      	ldr	r4, [r4, #0]
 8005ad6:	b12c      	cbz	r4, 8005ae4 <xTaskResumeAll+0x34>
 8005ad8:	2400      	movs	r4, #0
 8005ada:	f000 fced 	bl	80064b8 <vPortExitCritical>
 8005ade:	4620      	mov	r0, r4
 8005ae0:	b003      	add	sp, #12
 8005ae2:	bdf0      	pop	{r4, r5, r6, r7, pc}
 8005ae4:	4b24      	ldr	r3, [pc, #144]	; (8005b78 <xTaskResumeAll+0xc8>)
 8005ae6:	681b      	ldr	r3, [r3, #0]
 8005ae8:	2b00      	cmp	r3, #0
 8005aea:	d0f5      	beq.n	8005ad8 <xTaskResumeAll+0x28>
 8005aec:	4d23      	ldr	r5, [pc, #140]	; (8005b7c <xTaskResumeAll+0xcc>)
 8005aee:	4e24      	ldr	r6, [pc, #144]	; (8005b80 <xTaskResumeAll+0xd0>)
 8005af0:	4f24      	ldr	r7, [pc, #144]	; (8005b84 <xTaskResumeAll+0xd4>)
 8005af2:	e01e      	b.n	8005b32 <xTaskResumeAll+0x82>
 8005af4:	68eb      	ldr	r3, [r5, #12]
 8005af6:	68dc      	ldr	r4, [r3, #12]
 8005af8:	f104 0018 	add.w	r0, r4, #24
 8005afc:	f7ff f929 	bl	8004d52 <uxListRemove>
 8005b00:	1d21      	adds	r1, r4, #4
 8005b02:	4608      	mov	r0, r1
 8005b04:	9101      	str	r1, [sp, #4]
 8005b06:	f7ff f924 	bl	8004d52 <uxListRemove>
 8005b0a:	6ae3      	ldr	r3, [r4, #44]	; 0x2c
 8005b0c:	6832      	ldr	r2, [r6, #0]
 8005b0e:	9901      	ldr	r1, [sp, #4]
 8005b10:	2014      	movs	r0, #20
 8005b12:	4293      	cmp	r3, r2
 8005b14:	fb00 7003 	mla	r0, r0, r3, r7
 8005b18:	bf88      	it	hi
 8005b1a:	6033      	strhi	r3, [r6, #0]
 8005b1c:	f7ff f8f6 	bl	8004d0c <vListInsertEnd>
 8005b20:	4b19      	ldr	r3, [pc, #100]	; (8005b88 <xTaskResumeAll+0xd8>)
 8005b22:	6ae2      	ldr	r2, [r4, #44]	; 0x2c
 8005b24:	681b      	ldr	r3, [r3, #0]
 8005b26:	6adb      	ldr	r3, [r3, #44]	; 0x2c
 8005b28:	429a      	cmp	r2, r3
 8005b2a:	d302      	bcc.n	8005b32 <xTaskResumeAll+0x82>
 8005b2c:	4b17      	ldr	r3, [pc, #92]	; (8005b8c <xTaskResumeAll+0xdc>)
 8005b2e:	2201      	movs	r2, #1
 8005b30:	601a      	str	r2, [r3, #0]
 8005b32:	682b      	ldr	r3, [r5, #0]
 8005b34:	2b00      	cmp	r3, #0
 8005b36:	d1dd      	bne.n	8005af4 <xTaskResumeAll+0x44>
 8005b38:	b10c      	cbz	r4, 8005b3e <xTaskResumeAll+0x8e>
 8005b3a:	f7ff fd83 	bl	8005644 <prvResetNextTaskUnblockTime>
 8005b3e:	4d14      	ldr	r5, [pc, #80]	; (8005b90 <xTaskResumeAll+0xe0>)
 8005b40:	682c      	ldr	r4, [r5, #0]
 8005b42:	b144      	cbz	r4, 8005b56 <xTaskResumeAll+0xa6>
 8005b44:	4e11      	ldr	r6, [pc, #68]	; (8005b8c <xTaskResumeAll+0xdc>)
 8005b46:	2701      	movs	r7, #1
 8005b48:	f7ff ff1c 	bl	8005984 <xTaskIncrementTick>
 8005b4c:	b100      	cbz	r0, 8005b50 <xTaskResumeAll+0xa0>
 8005b4e:	6037      	str	r7, [r6, #0]
 8005b50:	3c01      	subs	r4, #1
 8005b52:	d1f9      	bne.n	8005b48 <xTaskResumeAll+0x98>
 8005b54:	602c      	str	r4, [r5, #0]
 8005b56:	4b0d      	ldr	r3, [pc, #52]	; (8005b8c <xTaskResumeAll+0xdc>)
 8005b58:	681b      	ldr	r3, [r3, #0]
 8005b5a:	2b00      	cmp	r3, #0
 8005b5c:	d0bc      	beq.n	8005ad8 <xTaskResumeAll+0x28>
 8005b5e:	4b0d      	ldr	r3, [pc, #52]	; (8005b94 <xTaskResumeAll+0xe4>)
 8005b60:	f04f 5280 	mov.w	r2, #268435456	; 0x10000000
 8005b64:	601a      	str	r2, [r3, #0]
 8005b66:	f3bf 8f4f 	dsb	sy
 8005b6a:	f3bf 8f6f 	isb	sy
 8005b6e:	2401      	movs	r4, #1
 8005b70:	e7b3      	b.n	8005ada <xTaskResumeAll+0x2a>
 8005b72:	bf00      	nop
 8005b74:	20000d44 	.word	0x20000d44
 8005b78:	20000d3c 	.word	0x20000d3c
 8005b7c:	20000d84 	.word	0x20000d84
 8005b80:	20000d4c 	.word	0x20000d4c
 8005b84:	200008dc 	.word	0x200008dc
 8005b88:	200008d0 	.word	0x200008d0
 8005b8c:	20000dc8 	.word	0x20000dc8
 8005b90:	20000d80 	.word	0x20000d80
 8005b94:	e000ed04 	.word	0xe000ed04

08005b98 <vTaskDelay>:
 8005b98:	b508      	push	{r3, lr}
 8005b9a:	b940      	cbnz	r0, 8005bae <vTaskDelay+0x16>
 8005b9c:	4b0e      	ldr	r3, [pc, #56]	; (8005bd8 <vTaskDelay+0x40>)
 8005b9e:	f04f 5280 	mov.w	r2, #268435456	; 0x10000000
 8005ba2:	601a      	str	r2, [r3, #0]
 8005ba4:	f3bf 8f4f 	dsb	sy
 8005ba8:	f3bf 8f6f 	isb	sy
 8005bac:	bd08      	pop	{r3, pc}
 8005bae:	4b0b      	ldr	r3, [pc, #44]	; (8005bdc <vTaskDelay+0x44>)
 8005bb0:	6819      	ldr	r1, [r3, #0]
 8005bb2:	b141      	cbz	r1, 8005bc6 <vTaskDelay+0x2e>
 8005bb4:	f04f 0350 	mov.w	r3, #80	; 0x50
 8005bb8:	f383 8811 	msr	BASEPRI, r3
 8005bbc:	f3bf 8f6f 	isb	sy
 8005bc0:	f3bf 8f4f 	dsb	sy
 8005bc4:	e7fe      	b.n	8005bc4 <vTaskDelay+0x2c>
 8005bc6:	f7ff fecf 	bl	8005968 <vTaskSuspendAll>
 8005bca:	f7ff fde9 	bl	80057a0 <prvAddCurrentTaskToDelayedList>
 8005bce:	f7ff ff6f 	bl	8005ab0 <xTaskResumeAll>
 8005bd2:	2800      	cmp	r0, #0
 8005bd4:	d0e2      	beq.n	8005b9c <vTaskDelay+0x4>
 8005bd6:	e7e9      	b.n	8005bac <vTaskDelay+0x14>
 8005bd8:	e000ed04 	.word	0xe000ed04
 8005bdc:	20000d44 	.word	0x20000d44

08005be0 <vTaskSwitchContext>:
 8005be0:	4b18      	ldr	r3, [pc, #96]	; (8005c44 <vTaskSwitchContext+0x64>)
 8005be2:	681a      	ldr	r2, [r3, #0]
 8005be4:	4b18      	ldr	r3, [pc, #96]	; (8005c48 <vTaskSwitchContext+0x68>)
 8005be6:	b5f0      	push	{r4, r5, r6, r7, lr}
 8005be8:	b112      	cbz	r2, 8005bf0 <vTaskSwitchContext+0x10>
 8005bea:	2201      	movs	r2, #1
 8005bec:	601a      	str	r2, [r3, #0]
 8005bee:	bdf0      	pop	{r4, r5, r6, r7, pc}
 8005bf0:	4d16      	ldr	r5, [pc, #88]	; (8005c4c <vTaskSwitchContext+0x6c>)
 8005bf2:	601a      	str	r2, [r3, #0]
 8005bf4:	4a16      	ldr	r2, [pc, #88]	; (8005c50 <vTaskSwitchContext+0x70>)
 8005bf6:	682b      	ldr	r3, [r5, #0]
 8005bf8:	2714      	movs	r7, #20
 8005bfa:	4616      	mov	r6, r2
 8005bfc:	fb07 f103 	mul.w	r1, r7, r3
 8005c00:	1850      	adds	r0, r2, r1
 8005c02:	5854      	ldr	r4, [r2, r1]
 8005c04:	b18c      	cbz	r4, 8005c2a <vTaskSwitchContext+0x4a>
 8005c06:	6844      	ldr	r4, [r0, #4]
 8005c08:	3108      	adds	r1, #8
 8005c0a:	6864      	ldr	r4, [r4, #4]
 8005c0c:	6044      	str	r4, [r0, #4]
 8005c0e:	440a      	add	r2, r1
 8005c10:	4294      	cmp	r4, r2
 8005c12:	bf04      	itt	eq
 8005c14:	6862      	ldreq	r2, [r4, #4]
 8005c16:	6042      	streq	r2, [r0, #4]
 8005c18:	2214      	movs	r2, #20
 8005c1a:	fb02 6203 	mla	r2, r2, r3, r6
 8005c1e:	6852      	ldr	r2, [r2, #4]
 8005c20:	68d1      	ldr	r1, [r2, #12]
 8005c22:	4a0c      	ldr	r2, [pc, #48]	; (8005c54 <vTaskSwitchContext+0x74>)
 8005c24:	6011      	str	r1, [r2, #0]
 8005c26:	602b      	str	r3, [r5, #0]
 8005c28:	e7e1      	b.n	8005bee <vTaskSwitchContext+0xe>
 8005c2a:	b943      	cbnz	r3, 8005c3e <vTaskSwitchContext+0x5e>
 8005c2c:	f04f 0350 	mov.w	r3, #80	; 0x50
 8005c30:	f383 8811 	msr	BASEPRI, r3
 8005c34:	f3bf 8f6f 	isb	sy
 8005c38:	f3bf 8f4f 	dsb	sy
 8005c3c:	e7fe      	b.n	8005c3c <vTaskSwitchContext+0x5c>
 8005c3e:	3b01      	subs	r3, #1
 8005c40:	e7dc      	b.n	8005bfc <vTaskSwitchContext+0x1c>
 8005c42:	bf00      	nop
 8005c44:	20000d44 	.word	0x20000d44
 8005c48:	20000dc8 	.word	0x20000dc8
 8005c4c:	20000d4c 	.word	0x20000d4c
 8005c50:	200008dc 	.word	0x200008dc
 8005c54:	200008d0 	.word	0x200008d0

08005c58 <vTaskPlaceOnEventList>:
 8005c58:	b510      	push	{r4, lr}
 8005c5a:	460c      	mov	r4, r1
 8005c5c:	b940      	cbnz	r0, 8005c70 <vTaskPlaceOnEventList+0x18>
 8005c5e:	f04f 0350 	mov.w	r3, #80	; 0x50
 8005c62:	f383 8811 	msr	BASEPRI, r3
 8005c66:	f3bf 8f6f 	isb	sy
 8005c6a:	f3bf 8f4f 	dsb	sy
 8005c6e:	e7fe      	b.n	8005c6e <vTaskPlaceOnEventList+0x16>
 8005c70:	4b05      	ldr	r3, [pc, #20]	; (8005c88 <vTaskPlaceOnEventList+0x30>)
 8005c72:	6819      	ldr	r1, [r3, #0]
 8005c74:	3118      	adds	r1, #24
 8005c76:	f7ff f855 	bl	8004d24 <vListInsert>
 8005c7a:	4620      	mov	r0, r4
 8005c7c:	2101      	movs	r1, #1
 8005c7e:	e8bd 4010 	ldmia.w	sp!, {r4, lr}
 8005c82:	f7ff bd8d 	b.w	80057a0 <prvAddCurrentTaskToDelayedList>
 8005c86:	bf00      	nop
 8005c88:	200008d0 	.word	0x200008d0

08005c8c <vTaskPlaceOnEventListRestricted>:
 8005c8c:	b538      	push	{r3, r4, r5, lr}
 8005c8e:	460d      	mov	r5, r1
 8005c90:	4614      	mov	r4, r2
 8005c92:	b940      	cbnz	r0, 8005ca6 <vTaskPlaceOnEventListRestricted+0x1a>
 8005c94:	f04f 0350 	mov.w	r3, #80	; 0x50
 8005c98:	f383 8811 	msr	BASEPRI, r3
 8005c9c:	f3bf 8f6f 	isb	sy
 8005ca0:	f3bf 8f4f 	dsb	sy
 8005ca4:	e7fe      	b.n	8005ca4 <vTaskPlaceOnEventListRestricted+0x18>
 8005ca6:	4b07      	ldr	r3, [pc, #28]	; (8005cc4 <vTaskPlaceOnEventListRestricted+0x38>)
 8005ca8:	6819      	ldr	r1, [r3, #0]
 8005caa:	3118      	adds	r1, #24
 8005cac:	f7ff f82e 	bl	8004d0c <vListInsertEnd>
 8005cb0:	2c00      	cmp	r4, #0
 8005cb2:	4621      	mov	r1, r4
 8005cb4:	bf0c      	ite	eq
 8005cb6:	4628      	moveq	r0, r5
 8005cb8:	f04f 30ff 	movne.w	r0, #4294967295
 8005cbc:	e8bd 4038 	ldmia.w	sp!, {r3, r4, r5, lr}
 8005cc0:	f7ff bd6e 	b.w	80057a0 <prvAddCurrentTaskToDelayedList>
 8005cc4:	200008d0 	.word	0x200008d0

08005cc8 <xTaskRemoveFromEventList>:
 8005cc8:	68c3      	ldr	r3, [r0, #12]
 8005cca:	b513      	push	{r0, r1, r4, lr}
 8005ccc:	68dc      	ldr	r4, [r3, #12]
 8005cce:	b944      	cbnz	r4, 8005ce2 <xTaskRemoveFromEventList+0x1a>
 8005cd0:	f04f 0350 	mov.w	r3, #80	; 0x50
 8005cd4:	f383 8811 	msr	BASEPRI, r3
 8005cd8:	f3bf 8f6f 	isb	sy
 8005cdc:	f3bf 8f4f 	dsb	sy
 8005ce0:	e7fe      	b.n	8005ce0 <xTaskRemoveFromEventList+0x18>
 8005ce2:	f104 0118 	add.w	r1, r4, #24
 8005ce6:	4608      	mov	r0, r1
 8005ce8:	9101      	str	r1, [sp, #4]
 8005cea:	f7ff f832 	bl	8004d52 <uxListRemove>
 8005cee:	4b12      	ldr	r3, [pc, #72]	; (8005d38 <xTaskRemoveFromEventList+0x70>)
 8005cf0:	9901      	ldr	r1, [sp, #4]
 8005cf2:	681b      	ldr	r3, [r3, #0]
 8005cf4:	b9eb      	cbnz	r3, 8005d32 <xTaskRemoveFromEventList+0x6a>
 8005cf6:	1d21      	adds	r1, r4, #4
 8005cf8:	4608      	mov	r0, r1
 8005cfa:	9101      	str	r1, [sp, #4]
 8005cfc:	f7ff f829 	bl	8004d52 <uxListRemove>
 8005d00:	4a0e      	ldr	r2, [pc, #56]	; (8005d3c <xTaskRemoveFromEventList+0x74>)
 8005d02:	6ae3      	ldr	r3, [r4, #44]	; 0x2c
 8005d04:	6810      	ldr	r0, [r2, #0]
 8005d06:	9901      	ldr	r1, [sp, #4]
 8005d08:	4283      	cmp	r3, r0
 8005d0a:	bf88      	it	hi
 8005d0c:	6013      	strhi	r3, [r2, #0]
 8005d0e:	4a0c      	ldr	r2, [pc, #48]	; (8005d40 <xTaskRemoveFromEventList+0x78>)
 8005d10:	2014      	movs	r0, #20
 8005d12:	fb00 2003 	mla	r0, r0, r3, r2
 8005d16:	f7fe fff9 	bl	8004d0c <vListInsertEnd>
 8005d1a:	4b0a      	ldr	r3, [pc, #40]	; (8005d44 <xTaskRemoveFromEventList+0x7c>)
 8005d1c:	6ae2      	ldr	r2, [r4, #44]	; 0x2c
 8005d1e:	681b      	ldr	r3, [r3, #0]
 8005d20:	6adb      	ldr	r3, [r3, #44]	; 0x2c
 8005d22:	429a      	cmp	r2, r3
 8005d24:	bf85      	ittet	hi
 8005d26:	4b08      	ldrhi	r3, [pc, #32]	; (8005d48 <xTaskRemoveFromEventList+0x80>)
 8005d28:	2001      	movhi	r0, #1
 8005d2a:	2000      	movls	r0, #0
 8005d2c:	6018      	strhi	r0, [r3, #0]
 8005d2e:	b002      	add	sp, #8
 8005d30:	bd10      	pop	{r4, pc}
 8005d32:	4806      	ldr	r0, [pc, #24]	; (8005d4c <xTaskRemoveFromEventList+0x84>)
 8005d34:	e7ef      	b.n	8005d16 <xTaskRemoveFromEventList+0x4e>
 8005d36:	bf00      	nop
 8005d38:	20000d44 	.word	0x20000d44
 8005d3c:	20000d4c 	.word	0x20000d4c
 8005d40:	200008dc 	.word	0x200008dc
 8005d44:	200008d0 	.word	0x200008d0
 8005d48:	20000dc8 	.word	0x20000dc8
 8005d4c:	20000d84 	.word	0x20000d84

08005d50 <vTaskInternalSetTimeOutState>:
 8005d50:	4b03      	ldr	r3, [pc, #12]	; (8005d60 <vTaskInternalSetTimeOutState+0x10>)
 8005d52:	681b      	ldr	r3, [r3, #0]
 8005d54:	6003      	str	r3, [r0, #0]
 8005d56:	4b03      	ldr	r3, [pc, #12]	; (8005d64 <vTaskInternalSetTimeOutState+0x14>)
 8005d58:	681b      	ldr	r3, [r3, #0]
 8005d5a:	6043      	str	r3, [r0, #4]
 8005d5c:	4770      	bx	lr
 8005d5e:	bf00      	nop
 8005d60:	20000d7c 	.word	0x20000d7c
 8005d64:	20000dc4 	.word	0x20000dc4

08005d68 <xTaskCheckForTimeOut>:
 8005d68:	b570      	push	{r4, r5, r6, lr}
 8005d6a:	460c      	mov	r4, r1
 8005d6c:	4605      	mov	r5, r0
 8005d6e:	b940      	cbnz	r0, 8005d82 <xTaskCheckForTimeOut+0x1a>
 8005d70:	f04f 0350 	mov.w	r3, #80	; 0x50
 8005d74:	f383 8811 	msr	BASEPRI, r3
 8005d78:	f3bf 8f6f 	isb	sy
 8005d7c:	f3bf 8f4f 	dsb	sy
 8005d80:	e7fe      	b.n	8005d80 <xTaskCheckForTimeOut+0x18>
 8005d82:	b941      	cbnz	r1, 8005d96 <xTaskCheckForTimeOut+0x2e>
 8005d84:	f04f 0350 	mov.w	r3, #80	; 0x50
 8005d88:	f383 8811 	msr	BASEPRI, r3
 8005d8c:	f3bf 8f6f 	isb	sy
 8005d90:	f3bf 8f4f 	dsb	sy
 8005d94:	e7fe      	b.n	8005d94 <xTaskCheckForTimeOut+0x2c>
 8005d96:	f000 fb6d 	bl	8006474 <vPortEnterCritical>
 8005d9a:	4b0f      	ldr	r3, [pc, #60]	; (8005dd8 <xTaskCheckForTimeOut+0x70>)
 8005d9c:	6819      	ldr	r1, [r3, #0]
 8005d9e:	6823      	ldr	r3, [r4, #0]
 8005da0:	1c5a      	adds	r2, r3, #1
 8005da2:	d010      	beq.n	8005dc6 <xTaskCheckForTimeOut+0x5e>
 8005da4:	480d      	ldr	r0, [pc, #52]	; (8005ddc <xTaskCheckForTimeOut+0x74>)
 8005da6:	682e      	ldr	r6, [r5, #0]
 8005da8:	6800      	ldr	r0, [r0, #0]
 8005daa:	686a      	ldr	r2, [r5, #4]
 8005dac:	4286      	cmp	r6, r0
 8005dae:	d001      	beq.n	8005db4 <xTaskCheckForTimeOut+0x4c>
 8005db0:	428a      	cmp	r2, r1
 8005db2:	d90f      	bls.n	8005dd4 <xTaskCheckForTimeOut+0x6c>
 8005db4:	1a88      	subs	r0, r1, r2
 8005db6:	4283      	cmp	r3, r0
 8005db8:	d90a      	bls.n	8005dd0 <xTaskCheckForTimeOut+0x68>
 8005dba:	1a5b      	subs	r3, r3, r1
 8005dbc:	4413      	add	r3, r2
 8005dbe:	6023      	str	r3, [r4, #0]
 8005dc0:	4628      	mov	r0, r5
 8005dc2:	f7ff ffc5 	bl	8005d50 <vTaskInternalSetTimeOutState>
 8005dc6:	2400      	movs	r4, #0
 8005dc8:	f000 fb76 	bl	80064b8 <vPortExitCritical>
 8005dcc:	4620      	mov	r0, r4
 8005dce:	bd70      	pop	{r4, r5, r6, pc}
 8005dd0:	2300      	movs	r3, #0
 8005dd2:	6023      	str	r3, [r4, #0]
 8005dd4:	2401      	movs	r4, #1
 8005dd6:	e7f7      	b.n	8005dc8 <xTaskCheckForTimeOut+0x60>
 8005dd8:	20000dc4 	.word	0x20000dc4
 8005ddc:	20000d7c 	.word	0x20000d7c

08005de0 <vTaskMissedYield>:
 8005de0:	4b01      	ldr	r3, [pc, #4]	; (8005de8 <vTaskMissedYield+0x8>)
 8005de2:	2201      	movs	r2, #1
 8005de4:	601a      	str	r2, [r3, #0]
 8005de6:	4770      	bx	lr
 8005de8:	20000dc8 	.word	0x20000dc8

08005dec <xTaskGetSchedulerState>:
 8005dec:	4b05      	ldr	r3, [pc, #20]	; (8005e04 <xTaskGetSchedulerState+0x18>)
 8005dee:	681b      	ldr	r3, [r3, #0]
 8005df0:	b133      	cbz	r3, 8005e00 <xTaskGetSchedulerState+0x14>
 8005df2:	4b05      	ldr	r3, [pc, #20]	; (8005e08 <xTaskGetSchedulerState+0x1c>)
 8005df4:	681b      	ldr	r3, [r3, #0]
 8005df6:	2b00      	cmp	r3, #0
 8005df8:	bf0c      	ite	eq
 8005dfa:	2002      	moveq	r0, #2
 8005dfc:	2000      	movne	r0, #0
 8005dfe:	4770      	bx	lr
 8005e00:	2001      	movs	r0, #1
 8005e02:	4770      	bx	lr
 8005e04:	20000d98 	.word	0x20000d98
 8005e08:	20000d44 	.word	0x20000d44

08005e0c <xTaskPriorityInherit>:
 8005e0c:	b573      	push	{r0, r1, r4, r5, r6, lr}
 8005e0e:	4604      	mov	r4, r0
 8005e10:	b350      	cbz	r0, 8005e68 <xTaskPriorityInherit+0x5c>
 8005e12:	4a1c      	ldr	r2, [pc, #112]	; (8005e84 <xTaskPriorityInherit+0x78>)
 8005e14:	6ac3      	ldr	r3, [r0, #44]	; 0x2c
 8005e16:	6811      	ldr	r1, [r2, #0]
 8005e18:	6ac9      	ldr	r1, [r1, #44]	; 0x2c
 8005e1a:	428b      	cmp	r3, r1
 8005e1c:	4616      	mov	r6, r2
 8005e1e:	d229      	bcs.n	8005e74 <xTaskPriorityInherit+0x68>
 8005e20:	6982      	ldr	r2, [r0, #24]
 8005e22:	4d19      	ldr	r5, [pc, #100]	; (8005e88 <xTaskPriorityInherit+0x7c>)
 8005e24:	2a00      	cmp	r2, #0
 8005e26:	bfa1      	itttt	ge
 8005e28:	6832      	ldrge	r2, [r6, #0]
 8005e2a:	6ad2      	ldrge	r2, [r2, #44]	; 0x2c
 8005e2c:	f1c2 0238 	rsbge	r2, r2, #56	; 0x38
 8005e30:	6182      	strge	r2, [r0, #24]
 8005e32:	2214      	movs	r2, #20
 8005e34:	fb02 5303 	mla	r3, r2, r3, r5
 8005e38:	6942      	ldr	r2, [r0, #20]
 8005e3a:	429a      	cmp	r2, r3
 8005e3c:	d116      	bne.n	8005e6c <xTaskPriorityInherit+0x60>
 8005e3e:	1d01      	adds	r1, r0, #4
 8005e40:	4608      	mov	r0, r1
 8005e42:	9101      	str	r1, [sp, #4]
 8005e44:	f7fe ff85 	bl	8004d52 <uxListRemove>
 8005e48:	6833      	ldr	r3, [r6, #0]
 8005e4a:	4a10      	ldr	r2, [pc, #64]	; (8005e8c <xTaskPriorityInherit+0x80>)
 8005e4c:	6adb      	ldr	r3, [r3, #44]	; 0x2c
 8005e4e:	6810      	ldr	r0, [r2, #0]
 8005e50:	9901      	ldr	r1, [sp, #4]
 8005e52:	62e3      	str	r3, [r4, #44]	; 0x2c
 8005e54:	4283      	cmp	r3, r0
 8005e56:	f04f 0014 	mov.w	r0, #20
 8005e5a:	fb00 5003 	mla	r0, r0, r3, r5
 8005e5e:	bf88      	it	hi
 8005e60:	6013      	strhi	r3, [r2, #0]
 8005e62:	f7fe ff53 	bl	8004d0c <vListInsertEnd>
 8005e66:	2001      	movs	r0, #1
 8005e68:	b002      	add	sp, #8
 8005e6a:	bd70      	pop	{r4, r5, r6, pc}
 8005e6c:	6833      	ldr	r3, [r6, #0]
 8005e6e:	6adb      	ldr	r3, [r3, #44]	; 0x2c
 8005e70:	62c3      	str	r3, [r0, #44]	; 0x2c
 8005e72:	e7f8      	b.n	8005e66 <xTaskPriorityInherit+0x5a>
 8005e74:	6813      	ldr	r3, [r2, #0]
 8005e76:	6cc0      	ldr	r0, [r0, #76]	; 0x4c
 8005e78:	6adc      	ldr	r4, [r3, #44]	; 0x2c
 8005e7a:	42a0      	cmp	r0, r4
 8005e7c:	bf2c      	ite	cs
 8005e7e:	2000      	movcs	r0, #0
 8005e80:	2001      	movcc	r0, #1
 8005e82:	e7f1      	b.n	8005e68 <xTaskPriorityInherit+0x5c>
 8005e84:	200008d0 	.word	0x200008d0
 8005e88:	200008dc 	.word	0x200008dc
 8005e8c:	20000d4c 	.word	0x20000d4c

08005e90 <xTaskPriorityDisinherit>:
 8005e90:	b513      	push	{r0, r1, r4, lr}
 8005e92:	b910      	cbnz	r0, 8005e9a <xTaskPriorityDisinherit+0xa>
 8005e94:	2000      	movs	r0, #0
 8005e96:	b002      	add	sp, #8
 8005e98:	bd10      	pop	{r4, pc}
 8005e9a:	4b1c      	ldr	r3, [pc, #112]	; (8005f0c <xTaskPriorityDisinherit+0x7c>)
 8005e9c:	681c      	ldr	r4, [r3, #0]
 8005e9e:	4284      	cmp	r4, r0
 8005ea0:	d008      	beq.n	8005eb4 <xTaskPriorityDisinherit+0x24>
 8005ea2:	f04f 0350 	mov.w	r3, #80	; 0x50
 8005ea6:	f383 8811 	msr	BASEPRI, r3
 8005eaa:	f3bf 8f6f 	isb	sy
 8005eae:	f3bf 8f4f 	dsb	sy
 8005eb2:	e7fe      	b.n	8005eb2 <xTaskPriorityDisinherit+0x22>
 8005eb4:	6d23      	ldr	r3, [r4, #80]	; 0x50
 8005eb6:	b943      	cbnz	r3, 8005eca <xTaskPriorityDisinherit+0x3a>
 8005eb8:	f04f 0350 	mov.w	r3, #80	; 0x50
 8005ebc:	f383 8811 	msr	BASEPRI, r3
 8005ec0:	f3bf 8f6f 	isb	sy
 8005ec4:	f3bf 8f4f 	dsb	sy
 8005ec8:	e7fe      	b.n	8005ec8 <xTaskPriorityDisinherit+0x38>
 8005eca:	6ae1      	ldr	r1, [r4, #44]	; 0x2c
 8005ecc:	6ce2      	ldr	r2, [r4, #76]	; 0x4c
 8005ece:	3b01      	subs	r3, #1
 8005ed0:	4291      	cmp	r1, r2
 8005ed2:	6523      	str	r3, [r4, #80]	; 0x50
 8005ed4:	d0de      	beq.n	8005e94 <xTaskPriorityDisinherit+0x4>
 8005ed6:	2b00      	cmp	r3, #0
 8005ed8:	d1dc      	bne.n	8005e94 <xTaskPriorityDisinherit+0x4>
 8005eda:	1d21      	adds	r1, r4, #4
 8005edc:	4608      	mov	r0, r1
 8005ede:	9101      	str	r1, [sp, #4]
 8005ee0:	f7fe ff37 	bl	8004d52 <uxListRemove>
 8005ee4:	6ce3      	ldr	r3, [r4, #76]	; 0x4c
 8005ee6:	9901      	ldr	r1, [sp, #4]
 8005ee8:	62e3      	str	r3, [r4, #44]	; 0x2c
 8005eea:	f1c3 0238 	rsb	r2, r3, #56	; 0x38
 8005eee:	61a2      	str	r2, [r4, #24]
 8005ef0:	4a07      	ldr	r2, [pc, #28]	; (8005f10 <xTaskPriorityDisinherit+0x80>)
 8005ef2:	6810      	ldr	r0, [r2, #0]
 8005ef4:	4283      	cmp	r3, r0
 8005ef6:	bf88      	it	hi
 8005ef8:	6013      	strhi	r3, [r2, #0]
 8005efa:	4a06      	ldr	r2, [pc, #24]	; (8005f14 <xTaskPriorityDisinherit+0x84>)
 8005efc:	2014      	movs	r0, #20
 8005efe:	fb00 2003 	mla	r0, r0, r3, r2
 8005f02:	f7fe ff03 	bl	8004d0c <vListInsertEnd>
 8005f06:	2001      	movs	r0, #1
 8005f08:	e7c5      	b.n	8005e96 <xTaskPriorityDisinherit+0x6>
 8005f0a:	bf00      	nop
 8005f0c:	200008d0 	.word	0x200008d0
 8005f10:	20000d4c 	.word	0x20000d4c
 8005f14:	200008dc 	.word	0x200008dc

08005f18 <vTaskPriorityDisinheritAfterTimeout>:
 8005f18:	b537      	push	{r0, r1, r2, r4, r5, lr}
 8005f1a:	4604      	mov	r4, r0
 8005f1c:	2800      	cmp	r0, #0
 8005f1e:	d044      	beq.n	8005faa <vTaskPriorityDisinheritAfterTimeout+0x92>
 8005f20:	6d02      	ldr	r2, [r0, #80]	; 0x50
 8005f22:	b942      	cbnz	r2, 8005f36 <vTaskPriorityDisinheritAfterTimeout+0x1e>
 8005f24:	f04f 0350 	mov.w	r3, #80	; 0x50
 8005f28:	f383 8811 	msr	BASEPRI, r3
 8005f2c:	f3bf 8f6f 	isb	sy
 8005f30:	f3bf 8f4f 	dsb	sy
 8005f34:	e7fe      	b.n	8005f34 <vTaskPriorityDisinheritAfterTimeout+0x1c>
 8005f36:	6cc3      	ldr	r3, [r0, #76]	; 0x4c
 8005f38:	4299      	cmp	r1, r3
 8005f3a:	bf38      	it	cc
 8005f3c:	4619      	movcc	r1, r3
 8005f3e:	6ac3      	ldr	r3, [r0, #44]	; 0x2c
 8005f40:	428b      	cmp	r3, r1
 8005f42:	d032      	beq.n	8005faa <vTaskPriorityDisinheritAfterTimeout+0x92>
 8005f44:	2a01      	cmp	r2, #1
 8005f46:	d130      	bne.n	8005faa <vTaskPriorityDisinheritAfterTimeout+0x92>
 8005f48:	4a19      	ldr	r2, [pc, #100]	; (8005fb0 <vTaskPriorityDisinheritAfterTimeout+0x98>)
 8005f4a:	6812      	ldr	r2, [r2, #0]
 8005f4c:	4282      	cmp	r2, r0
 8005f4e:	d108      	bne.n	8005f62 <vTaskPriorityDisinheritAfterTimeout+0x4a>
 8005f50:	f04f 0350 	mov.w	r3, #80	; 0x50
 8005f54:	f383 8811 	msr	BASEPRI, r3
 8005f58:	f3bf 8f6f 	isb	sy
 8005f5c:	f3bf 8f4f 	dsb	sy
 8005f60:	e7fe      	b.n	8005f60 <vTaskPriorityDisinheritAfterTimeout+0x48>
 8005f62:	6982      	ldr	r2, [r0, #24]
 8005f64:	4d13      	ldr	r5, [pc, #76]	; (8005fb4 <vTaskPriorityDisinheritAfterTimeout+0x9c>)
 8005f66:	62c1      	str	r1, [r0, #44]	; 0x2c
 8005f68:	2a00      	cmp	r2, #0
 8005f6a:	f04f 0214 	mov.w	r2, #20
 8005f6e:	fb02 5303 	mla	r3, r2, r3, r5
 8005f72:	6942      	ldr	r2, [r0, #20]
 8005f74:	bfa4      	itt	ge
 8005f76:	f1c1 0138 	rsbge	r1, r1, #56	; 0x38
 8005f7a:	6181      	strge	r1, [r0, #24]
 8005f7c:	429a      	cmp	r2, r3
 8005f7e:	d114      	bne.n	8005faa <vTaskPriorityDisinheritAfterTimeout+0x92>
 8005f80:	1d01      	adds	r1, r0, #4
 8005f82:	4608      	mov	r0, r1
 8005f84:	9101      	str	r1, [sp, #4]
 8005f86:	f7fe fee4 	bl	8004d52 <uxListRemove>
 8005f8a:	4a0b      	ldr	r2, [pc, #44]	; (8005fb8 <vTaskPriorityDisinheritAfterTimeout+0xa0>)
 8005f8c:	6ae3      	ldr	r3, [r4, #44]	; 0x2c
 8005f8e:	6810      	ldr	r0, [r2, #0]
 8005f90:	9901      	ldr	r1, [sp, #4]
 8005f92:	4283      	cmp	r3, r0
 8005f94:	f04f 0014 	mov.w	r0, #20
 8005f98:	fb00 5003 	mla	r0, r0, r3, r5
 8005f9c:	bf88      	it	hi
 8005f9e:	6013      	strhi	r3, [r2, #0]
 8005fa0:	b003      	add	sp, #12
 8005fa2:	e8bd 4030 	ldmia.w	sp!, {r4, r5, lr}
 8005fa6:	f7fe beb1 	b.w	8004d0c <vListInsertEnd>
 8005faa:	b003      	add	sp, #12
 8005fac:	bd30      	pop	{r4, r5, pc}
 8005fae:	bf00      	nop
 8005fb0:	200008d0 	.word	0x200008d0
 8005fb4:	200008dc 	.word	0x200008dc
 8005fb8:	20000d4c 	.word	0x20000d4c

08005fbc <pvTaskIncrementMutexHeldCount>:
 8005fbc:	4b04      	ldr	r3, [pc, #16]	; (8005fd0 <pvTaskIncrementMutexHeldCount+0x14>)
 8005fbe:	681a      	ldr	r2, [r3, #0]
 8005fc0:	b11a      	cbz	r2, 8005fca <pvTaskIncrementMutexHeldCount+0xe>
 8005fc2:	6819      	ldr	r1, [r3, #0]
 8005fc4:	6d0a      	ldr	r2, [r1, #80]	; 0x50
 8005fc6:	3201      	adds	r2, #1
 8005fc8:	650a      	str	r2, [r1, #80]	; 0x50
 8005fca:	6818      	ldr	r0, [r3, #0]
 8005fcc:	4770      	bx	lr
 8005fce:	bf00      	nop
 8005fd0:	200008d0 	.word	0x200008d0

08005fd4 <prvCheckForValidListAndQueue>:
 8005fd4:	b5f7      	push	{r0, r1, r2, r4, r5, r6, r7, lr}
 8005fd6:	4c11      	ldr	r4, [pc, #68]	; (800601c <prvCheckForValidListAndQueue+0x48>)
 8005fd8:	f000 fa4c 	bl	8006474 <vPortEnterCritical>
 8005fdc:	6825      	ldr	r5, [r4, #0]
 8005fde:	b9bd      	cbnz	r5, 8006010 <prvCheckForValidListAndQueue+0x3c>
 8005fe0:	4f0f      	ldr	r7, [pc, #60]	; (8006020 <prvCheckForValidListAndQueue+0x4c>)
 8005fe2:	4e10      	ldr	r6, [pc, #64]	; (8006024 <prvCheckForValidListAndQueue+0x50>)
 8005fe4:	4638      	mov	r0, r7
 8005fe6:	f7fe fe83 	bl	8004cf0 <vListInitialise>
 8005fea:	4630      	mov	r0, r6
 8005fec:	f7fe fe80 	bl	8004cf0 <vListInitialise>
 8005ff0:	4b0d      	ldr	r3, [pc, #52]	; (8006028 <prvCheckForValidListAndQueue+0x54>)
 8005ff2:	4a0e      	ldr	r2, [pc, #56]	; (800602c <prvCheckForValidListAndQueue+0x58>)
 8005ff4:	601f      	str	r7, [r3, #0]
 8005ff6:	4b0e      	ldr	r3, [pc, #56]	; (8006030 <prvCheckForValidListAndQueue+0x5c>)
 8005ff8:	2110      	movs	r1, #16
 8005ffa:	601e      	str	r6, [r3, #0]
 8005ffc:	200a      	movs	r0, #10
 8005ffe:	4b0d      	ldr	r3, [pc, #52]	; (8006034 <prvCheckForValidListAndQueue+0x60>)
 8006000:	9500      	str	r5, [sp, #0]
 8006002:	f7fe ff85 	bl	8004f10 <xQueueGenericCreateStatic>
 8006006:	6020      	str	r0, [r4, #0]
 8006008:	b110      	cbz	r0, 8006010 <prvCheckForValidListAndQueue+0x3c>
 800600a:	490b      	ldr	r1, [pc, #44]	; (8006038 <prvCheckForValidListAndQueue+0x64>)
 800600c:	f7ff fa64 	bl	80054d8 <vQueueAddToRegistry>
 8006010:	b003      	add	sp, #12
 8006012:	e8bd 40f0 	ldmia.w	sp!, {r4, r5, r6, r7, lr}
 8006016:	f000 ba4f 	b.w	80064b8 <vPortExitCritical>
 800601a:	bf00      	nop
 800601c:	20000ef0 	.word	0x20000ef0
 8006020:	20000e74 	.word	0x20000e74
 8006024:	20000e88 	.word	0x20000e88
 8006028:	20000dcc 	.word	0x20000dcc
 800602c:	20000dd4 	.word	0x20000dd4
 8006030:	20000dd0 	.word	0x20000dd0
 8006034:	20000ea0 	.word	0x20000ea0
 8006038:	0800ac79 	.word	0x0800ac79

0800603c <prvInsertTimerInActiveList>:
 800603c:	4291      	cmp	r1, r2
 800603e:	b508      	push	{r3, lr}
 8006040:	6041      	str	r1, [r0, #4]
 8006042:	6100      	str	r0, [r0, #16]
 8006044:	d80a      	bhi.n	800605c <prvInsertTimerInActiveList+0x20>
 8006046:	1ad2      	subs	r2, r2, r3
 8006048:	6983      	ldr	r3, [r0, #24]
 800604a:	429a      	cmp	r2, r3
 800604c:	d20d      	bcs.n	800606a <prvInsertTimerInActiveList+0x2e>
 800604e:	4b08      	ldr	r3, [pc, #32]	; (8006070 <prvInsertTimerInActiveList+0x34>)
 8006050:	1d01      	adds	r1, r0, #4
 8006052:	6818      	ldr	r0, [r3, #0]
 8006054:	f7fe fe66 	bl	8004d24 <vListInsert>
 8006058:	2000      	movs	r0, #0
 800605a:	bd08      	pop	{r3, pc}
 800605c:	429a      	cmp	r2, r3
 800605e:	d201      	bcs.n	8006064 <prvInsertTimerInActiveList+0x28>
 8006060:	4299      	cmp	r1, r3
 8006062:	d202      	bcs.n	800606a <prvInsertTimerInActiveList+0x2e>
 8006064:	4b03      	ldr	r3, [pc, #12]	; (8006074 <prvInsertTimerInActiveList+0x38>)
 8006066:	1d01      	adds	r1, r0, #4
 8006068:	e7f3      	b.n	8006052 <prvInsertTimerInActiveList+0x16>
 800606a:	2001      	movs	r0, #1
 800606c:	e7f5      	b.n	800605a <prvInsertTimerInActiveList+0x1e>
 800606e:	bf00      	nop
 8006070:	20000dd0 	.word	0x20000dd0
 8006074:	20000dcc 	.word	0x20000dcc

08006078 <xTimerCreateTimerTask>:
 8006078:	b510      	push	{r4, lr}
 800607a:	b088      	sub	sp, #32
 800607c:	f7ff ffaa 	bl	8005fd4 <prvCheckForValidListAndQueue>
 8006080:	4b12      	ldr	r3, [pc, #72]	; (80060cc <xTimerCreateTimerTask+0x54>)
 8006082:	681b      	ldr	r3, [r3, #0]
 8006084:	b1b3      	cbz	r3, 80060b4 <xTimerCreateTimerTask+0x3c>
 8006086:	2400      	movs	r4, #0
 8006088:	aa07      	add	r2, sp, #28
 800608a:	a906      	add	r1, sp, #24
 800608c:	a805      	add	r0, sp, #20
 800608e:	e9cd 4405 	strd	r4, r4, [sp, #20]
 8006092:	f7fe fe21 	bl	8004cd8 <vApplicationGetTimerTaskMemory>
 8006096:	9b05      	ldr	r3, [sp, #20]
 8006098:	9302      	str	r3, [sp, #8]
 800609a:	9b06      	ldr	r3, [sp, #24]
 800609c:	9301      	str	r3, [sp, #4]
 800609e:	2302      	movs	r3, #2
 80060a0:	9300      	str	r3, [sp, #0]
 80060a2:	9a07      	ldr	r2, [sp, #28]
 80060a4:	490a      	ldr	r1, [pc, #40]	; (80060d0 <xTimerCreateTimerTask+0x58>)
 80060a6:	480b      	ldr	r0, [pc, #44]	; (80060d4 <xTimerCreateTimerTask+0x5c>)
 80060a8:	4623      	mov	r3, r4
 80060aa:	f7ff fbb3 	bl	8005814 <xTaskCreateStatic>
 80060ae:	4b0a      	ldr	r3, [pc, #40]	; (80060d8 <xTimerCreateTimerTask+0x60>)
 80060b0:	6018      	str	r0, [r3, #0]
 80060b2:	b940      	cbnz	r0, 80060c6 <xTimerCreateTimerTask+0x4e>
 80060b4:	f04f 0350 	mov.w	r3, #80	; 0x50
 80060b8:	f383 8811 	msr	BASEPRI, r3
 80060bc:	f3bf 8f6f 	isb	sy
 80060c0:	f3bf 8f4f 	dsb	sy
 80060c4:	e7fe      	b.n	80060c4 <xTimerCreateTimerTask+0x4c>
 80060c6:	2001      	movs	r0, #1
 80060c8:	b008      	add	sp, #32
 80060ca:	bd10      	pop	{r4, pc}
 80060cc:	20000ef0 	.word	0x20000ef0
 80060d0:	0800ac7e 	.word	0x0800ac7e
 80060d4:	080061b1 	.word	0x080061b1
 80060d8:	20000ef4 	.word	0x20000ef4

080060dc <xTimerGenericCommand>:
 80060dc:	b57f      	push	{r0, r1, r2, r3, r4, r5, r6, lr}
 80060de:	4616      	mov	r6, r2
 80060e0:	4604      	mov	r4, r0
 80060e2:	461a      	mov	r2, r3
 80060e4:	b940      	cbnz	r0, 80060f8 <xTimerGenericCommand+0x1c>
 80060e6:	f04f 0350 	mov.w	r3, #80	; 0x50
 80060ea:	f383 8811 	msr	BASEPRI, r3
 80060ee:	f3bf 8f6f 	isb	sy
 80060f2:	f3bf 8f4f 	dsb	sy
 80060f6:	e7fe      	b.n	80060f6 <xTimerGenericCommand+0x1a>
 80060f8:	4d0d      	ldr	r5, [pc, #52]	; (8006130 <xTimerGenericCommand+0x54>)
 80060fa:	6828      	ldr	r0, [r5, #0]
 80060fc:	b180      	cbz	r0, 8006120 <xTimerGenericCommand+0x44>
 80060fe:	2905      	cmp	r1, #5
 8006100:	e9cd 1600 	strd	r1, r6, [sp]
 8006104:	9402      	str	r4, [sp, #8]
 8006106:	dc0d      	bgt.n	8006124 <xTimerGenericCommand+0x48>
 8006108:	f7ff fe70 	bl	8005dec <xTaskGetSchedulerState>
 800610c:	2300      	movs	r3, #0
 800610e:	2802      	cmp	r0, #2
 8006110:	bf08      	it	eq
 8006112:	9a08      	ldreq	r2, [sp, #32]
 8006114:	6828      	ldr	r0, [r5, #0]
 8006116:	bf18      	it	ne
 8006118:	461a      	movne	r2, r3
 800611a:	4669      	mov	r1, sp
 800611c:	f7fe ff46 	bl	8004fac <xQueueGenericSend>
 8006120:	b004      	add	sp, #16
 8006122:	bd70      	pop	{r4, r5, r6, pc}
 8006124:	2300      	movs	r3, #0
 8006126:	4669      	mov	r1, sp
 8006128:	f7ff f80f 	bl	800514a <xQueueGenericSendFromISR>
 800612c:	e7f8      	b.n	8006120 <xTimerGenericCommand+0x44>
 800612e:	bf00      	nop
 8006130:	20000ef0 	.word	0x20000ef0

08006134 <prvSwitchTimerLists>:
 8006134:	b5f0      	push	{r4, r5, r6, r7, lr}
 8006136:	4d1c      	ldr	r5, [pc, #112]	; (80061a8 <prvSwitchTimerLists+0x74>)
 8006138:	b085      	sub	sp, #20
 800613a:	2700      	movs	r7, #0
 800613c:	682b      	ldr	r3, [r5, #0]
 800613e:	681a      	ldr	r2, [r3, #0]
 8006140:	b92a      	cbnz	r2, 800614e <prvSwitchTimerLists+0x1a>
 8006142:	4a1a      	ldr	r2, [pc, #104]	; (80061ac <prvSwitchTimerLists+0x78>)
 8006144:	6811      	ldr	r1, [r2, #0]
 8006146:	6029      	str	r1, [r5, #0]
 8006148:	6013      	str	r3, [r2, #0]
 800614a:	b005      	add	sp, #20
 800614c:	bdf0      	pop	{r4, r5, r6, r7, pc}
 800614e:	68db      	ldr	r3, [r3, #12]
 8006150:	68dc      	ldr	r4, [r3, #12]
 8006152:	681e      	ldr	r6, [r3, #0]
 8006154:	1d21      	adds	r1, r4, #4
 8006156:	4608      	mov	r0, r1
 8006158:	9103      	str	r1, [sp, #12]
 800615a:	f7fe fdfa 	bl	8004d52 <uxListRemove>
 800615e:	6a23      	ldr	r3, [r4, #32]
 8006160:	4620      	mov	r0, r4
 8006162:	4798      	blx	r3
 8006164:	f894 3028 	ldrb.w	r3, [r4, #40]	; 0x28
 8006168:	9903      	ldr	r1, [sp, #12]
 800616a:	f013 0f04 	tst.w	r3, #4
 800616e:	d0e5      	beq.n	800613c <prvSwitchTimerLists+0x8>
 8006170:	69a3      	ldr	r3, [r4, #24]
 8006172:	4433      	add	r3, r6
 8006174:	429e      	cmp	r6, r3
 8006176:	d205      	bcs.n	8006184 <prvSwitchTimerLists+0x50>
 8006178:	6828      	ldr	r0, [r5, #0]
 800617a:	6063      	str	r3, [r4, #4]
 800617c:	6124      	str	r4, [r4, #16]
 800617e:	f7fe fdd1 	bl	8004d24 <vListInsert>
 8006182:	e7db      	b.n	800613c <prvSwitchTimerLists+0x8>
 8006184:	2300      	movs	r3, #0
 8006186:	9700      	str	r7, [sp, #0]
 8006188:	4632      	mov	r2, r6
 800618a:	4619      	mov	r1, r3
 800618c:	4620      	mov	r0, r4
 800618e:	f7ff ffa5 	bl	80060dc <xTimerGenericCommand>
 8006192:	2800      	cmp	r0, #0
 8006194:	d1d2      	bne.n	800613c <prvSwitchTimerLists+0x8>
 8006196:	f04f 0350 	mov.w	r3, #80	; 0x50
 800619a:	f383 8811 	msr	BASEPRI, r3
 800619e:	f3bf 8f6f 	isb	sy
 80061a2:	f3bf 8f4f 	dsb	sy
 80061a6:	e7fe      	b.n	80061a6 <prvSwitchTimerLists+0x72>
 80061a8:	20000dcc 	.word	0x20000dcc
 80061ac:	20000dd0 	.word	0x20000dd0

080061b0 <prvTimerTask>:
 80061b0:	e92d 4ff0 	stmdb	sp!, {r4, r5, r6, r7, r8, r9, sl, fp, lr}
 80061b4:	4f77      	ldr	r7, [pc, #476]	; (8006394 <prvTimerTask+0x1e4>)
 80061b6:	f8df a1ec 	ldr.w	sl, [pc, #492]	; 80063a4 <prvTimerTask+0x1f4>
 80061ba:	b087      	sub	sp, #28
 80061bc:	46b9      	mov	r9, r7
 80061be:	683b      	ldr	r3, [r7, #0]
 80061c0:	f8d3 b000 	ldr.w	fp, [r3]
 80061c4:	f1bb 0f00 	cmp.w	fp, #0
 80061c8:	d028      	beq.n	800621c <prvTimerTask+0x6c>
 80061ca:	68db      	ldr	r3, [r3, #12]
 80061cc:	f8d3 b000 	ldr.w	fp, [r3]
 80061d0:	2400      	movs	r4, #0
 80061d2:	4e71      	ldr	r6, [pc, #452]	; (8006398 <prvTimerTask+0x1e8>)
 80061d4:	f7ff fbc8 	bl	8005968 <vTaskSuspendAll>
 80061d8:	f7ff fbce 	bl	8005978 <xTaskGetTickCount>
 80061dc:	6833      	ldr	r3, [r6, #0]
 80061de:	4298      	cmp	r0, r3
 80061e0:	4605      	mov	r5, r0
 80061e2:	46b0      	mov	r8, r6
 80061e4:	d31c      	bcc.n	8006220 <prvTimerTask+0x70>
 80061e6:	6030      	str	r0, [r6, #0]
 80061e8:	b31c      	cbz	r4, 8006232 <prvTimerTask+0x82>
 80061ea:	4b6c      	ldr	r3, [pc, #432]	; (800639c <prvTimerTask+0x1ec>)
 80061ec:	681b      	ldr	r3, [r3, #0]
 80061ee:	681c      	ldr	r4, [r3, #0]
 80061f0:	fab4 f484 	clz	r4, r4
 80061f4:	0964      	lsrs	r4, r4, #5
 80061f6:	4b6a      	ldr	r3, [pc, #424]	; (80063a0 <prvTimerTask+0x1f0>)
 80061f8:	4622      	mov	r2, r4
 80061fa:	6818      	ldr	r0, [r3, #0]
 80061fc:	ebab 0105 	sub.w	r1, fp, r5
 8006200:	f7ff f97c 	bl	80054fc <vQueueWaitForMessageRestricted>
 8006204:	f7ff fc54 	bl	8005ab0 <xTaskResumeAll>
 8006208:	b978      	cbnz	r0, 800622a <prvTimerTask+0x7a>
 800620a:	f04f 5380 	mov.w	r3, #268435456	; 0x10000000
 800620e:	f8ca 3000 	str.w	r3, [sl]
 8006212:	f3bf 8f4f 	dsb	sy
 8006216:	f3bf 8f6f 	isb	sy
 800621a:	e006      	b.n	800622a <prvTimerTask+0x7a>
 800621c:	2401      	movs	r4, #1
 800621e:	e7d8      	b.n	80061d2 <prvTimerTask+0x22>
 8006220:	f7ff ff88 	bl	8006134 <prvSwitchTimerLists>
 8006224:	6035      	str	r5, [r6, #0]
 8006226:	f7ff fc43 	bl	8005ab0 <xTaskResumeAll>
 800622a:	4e5d      	ldr	r6, [pc, #372]	; (80063a0 <prvTimerTask+0x1f0>)
 800622c:	f04f 0b00 	mov.w	fp, #0
 8006230:	e035      	b.n	800629e <prvTimerTask+0xee>
 8006232:	4583      	cmp	fp, r0
 8006234:	d8df      	bhi.n	80061f6 <prvTimerTask+0x46>
 8006236:	f7ff fc3b 	bl	8005ab0 <xTaskResumeAll>
 800623a:	f8d9 3000 	ldr.w	r3, [r9]
 800623e:	68db      	ldr	r3, [r3, #12]
 8006240:	68de      	ldr	r6, [r3, #12]
 8006242:	1d30      	adds	r0, r6, #4
 8006244:	f7fe fd85 	bl	8004d52 <uxListRemove>
 8006248:	f896 3028 	ldrb.w	r3, [r6, #40]	; 0x28
 800624c:	0758      	lsls	r0, r3, #29
 800624e:	d518      	bpl.n	8006282 <prvTimerTask+0xd2>
 8006250:	69b1      	ldr	r1, [r6, #24]
 8006252:	465b      	mov	r3, fp
 8006254:	462a      	mov	r2, r5
 8006256:	4459      	add	r1, fp
 8006258:	4630      	mov	r0, r6
 800625a:	f7ff feef 	bl	800603c <prvInsertTimerInActiveList>
 800625e:	b1a0      	cbz	r0, 800628a <prvTimerTask+0xda>
 8006260:	9400      	str	r4, [sp, #0]
 8006262:	4623      	mov	r3, r4
 8006264:	465a      	mov	r2, fp
 8006266:	4621      	mov	r1, r4
 8006268:	4630      	mov	r0, r6
 800626a:	f7ff ff37 	bl	80060dc <xTimerGenericCommand>
 800626e:	b960      	cbnz	r0, 800628a <prvTimerTask+0xda>
 8006270:	f04f 0350 	mov.w	r3, #80	; 0x50
 8006274:	f383 8811 	msr	BASEPRI, r3
 8006278:	f3bf 8f6f 	isb	sy
 800627c:	f3bf 8f4f 	dsb	sy
 8006280:	e7fe      	b.n	8006280 <prvTimerTask+0xd0>
 8006282:	f023 0301 	bic.w	r3, r3, #1
 8006286:	f886 3028 	strb.w	r3, [r6, #40]	; 0x28
 800628a:	6a33      	ldr	r3, [r6, #32]
 800628c:	4630      	mov	r0, r6
 800628e:	4798      	blx	r3
 8006290:	e7cb      	b.n	800622a <prvTimerTask+0x7a>
 8006292:	9b03      	ldr	r3, [sp, #12]
 8006294:	9905      	ldr	r1, [sp, #20]
 8006296:	4798      	blx	r3
 8006298:	9b02      	ldr	r3, [sp, #8]
 800629a:	2b00      	cmp	r3, #0
 800629c:	da0a      	bge.n	80062b4 <prvTimerTask+0x104>
 800629e:	6830      	ldr	r0, [r6, #0]
 80062a0:	2200      	movs	r2, #0
 80062a2:	a902      	add	r1, sp, #8
 80062a4:	f7fe ffb4 	bl	8005210 <xQueueReceive>
 80062a8:	2800      	cmp	r0, #0
 80062aa:	d088      	beq.n	80061be <prvTimerTask+0xe>
 80062ac:	9b02      	ldr	r3, [sp, #8]
 80062ae:	9804      	ldr	r0, [sp, #16]
 80062b0:	2b00      	cmp	r3, #0
 80062b2:	dbee      	blt.n	8006292 <prvTimerTask+0xe2>
 80062b4:	9c04      	ldr	r4, [sp, #16]
 80062b6:	6963      	ldr	r3, [r4, #20]
 80062b8:	b9a3      	cbnz	r3, 80062e4 <prvTimerTask+0x134>
 80062ba:	f7ff fb5d 	bl	8005978 <xTaskGetTickCount>
 80062be:	f8d8 3000 	ldr.w	r3, [r8]
 80062c2:	4298      	cmp	r0, r3
 80062c4:	4605      	mov	r5, r0
 80062c6:	d201      	bcs.n	80062cc <prvTimerTask+0x11c>
 80062c8:	f7ff ff34 	bl	8006134 <prvSwitchTimerLists>
 80062cc:	9b02      	ldr	r3, [sp, #8]
 80062ce:	f8c8 5000 	str.w	r5, [r8]
 80062d2:	2b09      	cmp	r3, #9
 80062d4:	d8e3      	bhi.n	800629e <prvTimerTask+0xee>
 80062d6:	e8df f003 	tbb	[pc, r3]
 80062da:	0909      	.short	0x0909
 80062dc:	543b3409 	.word	0x543b3409
 80062e0:	3b340909 	.word	0x3b340909
 80062e4:	1d20      	adds	r0, r4, #4
 80062e6:	f7fe fd34 	bl	8004d52 <uxListRemove>
 80062ea:	e7e6      	b.n	80062ba <prvTimerTask+0x10a>
 80062ec:	f894 3028 	ldrb.w	r3, [r4, #40]	; 0x28
 80062f0:	69a1      	ldr	r1, [r4, #24]
 80062f2:	f043 0301 	orr.w	r3, r3, #1
 80062f6:	f884 3028 	strb.w	r3, [r4, #40]	; 0x28
 80062fa:	9b03      	ldr	r3, [sp, #12]
 80062fc:	462a      	mov	r2, r5
 80062fe:	4419      	add	r1, r3
 8006300:	4620      	mov	r0, r4
 8006302:	f7ff fe9b 	bl	800603c <prvInsertTimerInActiveList>
 8006306:	2800      	cmp	r0, #0
 8006308:	d0c9      	beq.n	800629e <prvTimerTask+0xee>
 800630a:	6a23      	ldr	r3, [r4, #32]
 800630c:	4620      	mov	r0, r4
 800630e:	4798      	blx	r3
 8006310:	f894 3028 	ldrb.w	r3, [r4, #40]	; 0x28
 8006314:	0759      	lsls	r1, r3, #29
 8006316:	d5c2      	bpl.n	800629e <prvTimerTask+0xee>
 8006318:	69a2      	ldr	r2, [r4, #24]
 800631a:	9903      	ldr	r1, [sp, #12]
 800631c:	f8cd b000 	str.w	fp, [sp]
 8006320:	2300      	movs	r3, #0
 8006322:	440a      	add	r2, r1
 8006324:	4620      	mov	r0, r4
 8006326:	4619      	mov	r1, r3
 8006328:	f7ff fed8 	bl	80060dc <xTimerGenericCommand>
 800632c:	2800      	cmp	r0, #0
 800632e:	d1b6      	bne.n	800629e <prvTimerTask+0xee>
 8006330:	f04f 0350 	mov.w	r3, #80	; 0x50
 8006334:	f383 8811 	msr	BASEPRI, r3
 8006338:	f3bf 8f6f 	isb	sy
 800633c:	f3bf 8f4f 	dsb	sy
 8006340:	e7fe      	b.n	8006340 <prvTimerTask+0x190>
 8006342:	f894 3028 	ldrb.w	r3, [r4, #40]	; 0x28
 8006346:	f023 0301 	bic.w	r3, r3, #1
 800634a:	f884 3028 	strb.w	r3, [r4, #40]	; 0x28
 800634e:	e7a6      	b.n	800629e <prvTimerTask+0xee>
 8006350:	f894 3028 	ldrb.w	r3, [r4, #40]	; 0x28
 8006354:	9903      	ldr	r1, [sp, #12]
 8006356:	61a1      	str	r1, [r4, #24]
 8006358:	f043 0301 	orr.w	r3, r3, #1
 800635c:	f884 3028 	strb.w	r3, [r4, #40]	; 0x28
 8006360:	b941      	cbnz	r1, 8006374 <prvTimerTask+0x1c4>
 8006362:	f04f 0350 	mov.w	r3, #80	; 0x50
 8006366:	f383 8811 	msr	BASEPRI, r3
 800636a:	f3bf 8f6f 	isb	sy
 800636e:	f3bf 8f4f 	dsb	sy
 8006372:	e7fe      	b.n	8006372 <prvTimerTask+0x1c2>
 8006374:	462b      	mov	r3, r5
 8006376:	462a      	mov	r2, r5
 8006378:	4429      	add	r1, r5
 800637a:	4620      	mov	r0, r4
 800637c:	f7ff fe5e 	bl	800603c <prvInsertTimerInActiveList>
 8006380:	e78d      	b.n	800629e <prvTimerTask+0xee>
 8006382:	f894 3028 	ldrb.w	r3, [r4, #40]	; 0x28
 8006386:	079a      	lsls	r2, r3, #30
 8006388:	d4dd      	bmi.n	8006346 <prvTimerTask+0x196>
 800638a:	4620      	mov	r0, r4
 800638c:	f000 fa72 	bl	8006874 <vPortFree>
 8006390:	e785      	b.n	800629e <prvTimerTask+0xee>
 8006392:	bf00      	nop
 8006394:	20000dcc 	.word	0x20000dcc
 8006398:	20000e9c 	.word	0x20000e9c
 800639c:	20000dd0 	.word	0x20000dd0
 80063a0:	20000ef0 	.word	0x20000ef0
 80063a4:	e000ed04 	.word	0xe000ed04

080063a8 <prvPortStartFirstTask>:
 80063a8:	4808      	ldr	r0, [pc, #32]	; (80063cc <prvPortStartFirstTask+0x24>)
 80063aa:	6800      	ldr	r0, [r0, #0]
 80063ac:	6800      	ldr	r0, [r0, #0]
 80063ae:	f380 8808 	msr	MSP, r0
 80063b2:	f04f 0000 	mov.w	r0, #0
 80063b6:	f380 8814 	msr	CONTROL, r0
 80063ba:	b662      	cpsie	i
 80063bc:	b661      	cpsie	f
 80063be:	f3bf 8f4f 	dsb	sy
 80063c2:	f3bf 8f6f 	isb	sy
 80063c6:	df00      	svc	0
 80063c8:	bf00      	nop
 80063ca:	0000      	.short	0x0000
 80063cc:	e000ed08 	.word	0xe000ed08

080063d0 <vPortEnableVFP>:
 80063d0:	f8df 000c 	ldr.w	r0, [pc, #12]	; 80063e0 <vPortEnableVFP+0x10>
 80063d4:	6801      	ldr	r1, [r0, #0]
 80063d6:	f441 0170 	orr.w	r1, r1, #15728640	; 0xf00000
 80063da:	6001      	str	r1, [r0, #0]
 80063dc:	4770      	bx	lr
 80063de:	0000      	.short	0x0000
 80063e0:	e000ed88 	.word	0xe000ed88

080063e4 <prvTaskExitError>:
 80063e4:	b082      	sub	sp, #8
 80063e6:	2300      	movs	r3, #0
 80063e8:	9301      	str	r3, [sp, #4]
 80063ea:	4b0d      	ldr	r3, [pc, #52]	; (8006420 <prvTaskExitError+0x3c>)
 80063ec:	681b      	ldr	r3, [r3, #0]
 80063ee:	3301      	adds	r3, #1
 80063f0:	d008      	beq.n	8006404 <prvTaskExitError+0x20>
 80063f2:	f04f 0350 	mov.w	r3, #80	; 0x50
 80063f6:	f383 8811 	msr	BASEPRI, r3
 80063fa:	f3bf 8f6f 	isb	sy
 80063fe:	f3bf 8f4f 	dsb	sy
 8006402:	e7fe      	b.n	8006402 <prvTaskExitError+0x1e>
 8006404:	f04f 0350 	mov.w	r3, #80	; 0x50
 8006408:	f383 8811 	msr	BASEPRI, r3
 800640c:	f3bf 8f6f 	isb	sy
 8006410:	f3bf 8f4f 	dsb	sy
 8006414:	9b01      	ldr	r3, [sp, #4]
 8006416:	2b00      	cmp	r3, #0
 8006418:	d0fc      	beq.n	8006414 <prvTaskExitError+0x30>
 800641a:	b002      	add	sp, #8
 800641c:	4770      	bx	lr
 800641e:	bf00      	nop
 8006420:	20000010 	.word	0x20000010

08006424 <pxPortInitialiseStack>:
 8006424:	f04f 7380 	mov.w	r3, #16777216	; 0x1000000
 8006428:	f840 3c04 	str.w	r3, [r0, #-4]
 800642c:	4b07      	ldr	r3, [pc, #28]	; (800644c <pxPortInitialiseStack+0x28>)
 800642e:	f840 3c0c 	str.w	r3, [r0, #-12]
 8006432:	f021 0101 	bic.w	r1, r1, #1
 8006436:	f06f 0302 	mvn.w	r3, #2
 800643a:	f840 1c08 	str.w	r1, [r0, #-8]
 800643e:	f840 2c20 	str.w	r2, [r0, #-32]
 8006442:	f840 3c24 	str.w	r3, [r0, #-36]
 8006446:	3844      	subs	r0, #68	; 0x44
 8006448:	4770      	bx	lr
 800644a:	bf00      	nop
 800644c:	080063e5 	.word	0x080063e5

08006450 <SVC_Handler>:
 8006450:	4b07      	ldr	r3, [pc, #28]	; (8006470 <pxCurrentTCBConst2>)
 8006452:	6819      	ldr	r1, [r3, #0]
 8006454:	6808      	ldr	r0, [r1, #0]
 8006456:	e8b0 4ff0 	ldmia.w	r0!, {r4, r5, r6, r7, r8, r9, sl, fp, lr}
 800645a:	f380 8809 	msr	PSP, r0
 800645e:	f3bf 8f6f 	isb	sy
 8006462:	f04f 0000 	mov.w	r0, #0
 8006466:	f380 8811 	msr	BASEPRI, r0
 800646a:	4770      	bx	lr
 800646c:	f3af 8000 	nop.w

08006470 <pxCurrentTCBConst2>:
 8006470:	200008d0 	.word	0x200008d0

08006474 <vPortEnterCritical>:
 8006474:	f04f 0350 	mov.w	r3, #80	; 0x50
 8006478:	f383 8811 	msr	BASEPRI, r3
 800647c:	f3bf 8f6f 	isb	sy
 8006480:	f3bf 8f4f 	dsb	sy
 8006484:	4a0a      	ldr	r2, [pc, #40]	; (80064b0 <vPortEnterCritical+0x3c>)
 8006486:	6813      	ldr	r3, [r2, #0]
 8006488:	3301      	adds	r3, #1
 800648a:	2b01      	cmp	r3, #1
 800648c:	6013      	str	r3, [r2, #0]
 800648e:	d10d      	bne.n	80064ac <vPortEnterCritical+0x38>
 8006490:	4b08      	ldr	r3, [pc, #32]	; (80064b4 <vPortEnterCritical+0x40>)
 8006492:	681b      	ldr	r3, [r3, #0]
 8006494:	f013 0fff 	tst.w	r3, #255	; 0xff
 8006498:	d008      	beq.n	80064ac <vPortEnterCritical+0x38>
 800649a:	f04f 0350 	mov.w	r3, #80	; 0x50
 800649e:	f383 8811 	msr	BASEPRI, r3
 80064a2:	f3bf 8f6f 	isb	sy
 80064a6:	f3bf 8f4f 	dsb	sy
 80064aa:	e7fe      	b.n	80064aa <vPortEnterCritical+0x36>
 80064ac:	4770      	bx	lr
 80064ae:	bf00      	nop
 80064b0:	20000010 	.word	0x20000010
 80064b4:	e000ed04 	.word	0xe000ed04

080064b8 <vPortExitCritical>:
 80064b8:	4a08      	ldr	r2, [pc, #32]	; (80064dc <vPortExitCritical+0x24>)
 80064ba:	6813      	ldr	r3, [r2, #0]
 80064bc:	b943      	cbnz	r3, 80064d0 <vPortExitCritical+0x18>
 80064be:	f04f 0350 	mov.w	r3, #80	; 0x50
 80064c2:	f383 8811 	msr	BASEPRI, r3
 80064c6:	f3bf 8f6f 	isb	sy
 80064ca:	f3bf 8f4f 	dsb	sy
 80064ce:	e7fe      	b.n	80064ce <vPortExitCritical+0x16>
 80064d0:	3b01      	subs	r3, #1
 80064d2:	6013      	str	r3, [r2, #0]
 80064d4:	b90b      	cbnz	r3, 80064da <vPortExitCritical+0x22>
 80064d6:	f383 8811 	msr	BASEPRI, r3
 80064da:	4770      	bx	lr
 80064dc:	20000010 	.word	0x20000010

080064e0 <PendSV_Handler>:
 80064e0:	f3ef 8009 	mrs	r0, PSP
 80064e4:	f3bf 8f6f 	isb	sy
 80064e8:	4b15      	ldr	r3, [pc, #84]	; (8006540 <pxCurrentTCBConst>)
 80064ea:	681a      	ldr	r2, [r3, #0]
 80064ec:	f01e 0f10 	tst.w	lr, #16
 80064f0:	bf08      	it	eq
 80064f2:	ed20 8a10 	vstmdbeq	r0!, {s16-s31}
 80064f6:	e920 4ff0 	stmdb	r0!, {r4, r5, r6, r7, r8, r9, sl, fp, lr}
 80064fa:	6010      	str	r0, [r2, #0]
 80064fc:	e92d 0009 	stmdb	sp!, {r0, r3}
 8006500:	f04f 0050 	mov.w	r0, #80	; 0x50
 8006504:	f380 8811 	msr	BASEPRI, r0
 8006508:	f3bf 8f4f 	dsb	sy
 800650c:	f3bf 8f6f 	isb	sy
 8006510:	f7ff fb66 	bl	8005be0 <vTaskSwitchContext>
 8006514:	f04f 0000 	mov.w	r0, #0
 8006518:	f380 8811 	msr	BASEPRI, r0
 800651c:	bc09      	pop	{r0, r3}
 800651e:	6819      	ldr	r1, [r3, #0]
 8006520:	6808      	ldr	r0, [r1, #0]
 8006522:	e8b0 4ff0 	ldmia.w	r0!, {r4, r5, r6, r7, r8, r9, sl, fp, lr}
 8006526:	f01e 0f10 	tst.w	lr, #16
 800652a:	bf08      	it	eq
 800652c:	ecb0 8a10 	vldmiaeq	r0!, {s16-s31}
 8006530:	f380 8809 	msr	PSP, r0
 8006534:	f3bf 8f6f 	isb	sy
 8006538:	4770      	bx	lr
 800653a:	bf00      	nop
 800653c:	f3af 8000 	nop.w

08006540 <pxCurrentTCBConst>:
 8006540:	200008d0 	.word	0x200008d0

08006544 <xPortSysTickHandler>:
 8006544:	b508      	push	{r3, lr}
 8006546:	f04f 0350 	mov.w	r3, #80	; 0x50
 800654a:	f383 8811 	msr	BASEPRI, r3
 800654e:	f3bf 8f6f 	isb	sy
 8006552:	f3bf 8f4f 	dsb	sy
 8006556:	f7ff fa15 	bl	8005984 <xTaskIncrementTick>
 800655a:	b118      	cbz	r0, 8006564 <xPortSysTickHandler+0x20>
 800655c:	4b03      	ldr	r3, [pc, #12]	; (800656c <xPortSysTickHandler+0x28>)
 800655e:	f04f 5280 	mov.w	r2, #268435456	; 0x10000000
 8006562:	601a      	str	r2, [r3, #0]
 8006564:	2300      	movs	r3, #0
 8006566:	f383 8811 	msr	BASEPRI, r3
 800656a:	bd08      	pop	{r3, pc}
 800656c:	e000ed04 	.word	0xe000ed04

08006570 <vPortSetupTimerInterrupt>:
 8006570:	4a08      	ldr	r2, [pc, #32]	; (8006594 <vPortSetupTimerInterrupt+0x24>)
 8006572:	4909      	ldr	r1, [pc, #36]	; (8006598 <vPortSetupTimerInterrupt+0x28>)
 8006574:	2300      	movs	r3, #0
 8006576:	6013      	str	r3, [r2, #0]
 8006578:	600b      	str	r3, [r1, #0]
 800657a:	4b08      	ldr	r3, [pc, #32]	; (800659c <vPortSetupTimerInterrupt+0x2c>)
 800657c:	f44f 717a 	mov.w	r1, #1000	; 0x3e8
 8006580:	681b      	ldr	r3, [r3, #0]
 8006582:	fbb3 f3f1 	udiv	r3, r3, r1
 8006586:	4906      	ldr	r1, [pc, #24]	; (80065a0 <vPortSetupTimerInterrupt+0x30>)
 8006588:	3b01      	subs	r3, #1
 800658a:	600b      	str	r3, [r1, #0]
 800658c:	2307      	movs	r3, #7
 800658e:	6013      	str	r3, [r2, #0]
 8006590:	4770      	bx	lr
 8006592:	bf00      	nop
 8006594:	e000e010 	.word	0xe000e010
 8006598:	e000e018 	.word	0xe000e018
 800659c:	20000004 	.word	0x20000004
 80065a0:	e000e014 	.word	0xe000e014

080065a4 <xPortStartScheduler>:
 80065a4:	4b38      	ldr	r3, [pc, #224]	; (8006688 <xPortStartScheduler+0xe4>)
 80065a6:	4a39      	ldr	r2, [pc, #228]	; (800668c <xPortStartScheduler+0xe8>)
 80065a8:	b513      	push	{r0, r1, r4, lr}
 80065aa:	6819      	ldr	r1, [r3, #0]
 80065ac:	4291      	cmp	r1, r2
 80065ae:	d108      	bne.n	80065c2 <xPortStartScheduler+0x1e>
 80065b0:	f04f 0350 	mov.w	r3, #80	; 0x50
 80065b4:	f383 8811 	msr	BASEPRI, r3
 80065b8:	f3bf 8f6f 	isb	sy
 80065bc:	f3bf 8f4f 	dsb	sy
 80065c0:	e7fe      	b.n	80065c0 <xPortStartScheduler+0x1c>
 80065c2:	681a      	ldr	r2, [r3, #0]
 80065c4:	4b32      	ldr	r3, [pc, #200]	; (8006690 <xPortStartScheduler+0xec>)
 80065c6:	429a      	cmp	r2, r3
 80065c8:	d108      	bne.n	80065dc <xPortStartScheduler+0x38>
 80065ca:	f04f 0350 	mov.w	r3, #80	; 0x50
 80065ce:	f383 8811 	msr	BASEPRI, r3
 80065d2:	f3bf 8f6f 	isb	sy
 80065d6:	f3bf 8f4f 	dsb	sy
 80065da:	e7fe      	b.n	80065da <xPortStartScheduler+0x36>
 80065dc:	4b2d      	ldr	r3, [pc, #180]	; (8006694 <xPortStartScheduler+0xf0>)
 80065de:	781a      	ldrb	r2, [r3, #0]
 80065e0:	b2d2      	uxtb	r2, r2
 80065e2:	9201      	str	r2, [sp, #4]
 80065e4:	22ff      	movs	r2, #255	; 0xff
 80065e6:	701a      	strb	r2, [r3, #0]
 80065e8:	781b      	ldrb	r3, [r3, #0]
 80065ea:	4a2b      	ldr	r2, [pc, #172]	; (8006698 <xPortStartScheduler+0xf4>)
 80065ec:	b2db      	uxtb	r3, r3
 80065ee:	f88d 3003 	strb.w	r3, [sp, #3]
 80065f2:	f89d 3003 	ldrb.w	r3, [sp, #3]
 80065f6:	f003 0350 	and.w	r3, r3, #80	; 0x50
 80065fa:	7013      	strb	r3, [r2, #0]
 80065fc:	4a27      	ldr	r2, [pc, #156]	; (800669c <xPortStartScheduler+0xf8>)
 80065fe:	2307      	movs	r3, #7
 8006600:	6013      	str	r3, [r2, #0]
 8006602:	2100      	movs	r1, #0
 8006604:	f89d 0003 	ldrb.w	r0, [sp, #3]
 8006608:	0600      	lsls	r0, r0, #24
 800660a:	f103 34ff 	add.w	r4, r3, #4294967295
 800660e:	d40c      	bmi.n	800662a <xPortStartScheduler+0x86>
 8006610:	b111      	cbz	r1, 8006618 <xPortStartScheduler+0x74>
 8006612:	2b03      	cmp	r3, #3
 8006614:	6013      	str	r3, [r2, #0]
 8006616:	d011      	beq.n	800663c <xPortStartScheduler+0x98>
 8006618:	f04f 0350 	mov.w	r3, #80	; 0x50
 800661c:	f383 8811 	msr	BASEPRI, r3
 8006620:	f3bf 8f6f 	isb	sy
 8006624:	f3bf 8f4f 	dsb	sy
 8006628:	e7fe      	b.n	8006628 <xPortStartScheduler+0x84>
 800662a:	f89d 3003 	ldrb.w	r3, [sp, #3]
 800662e:	005b      	lsls	r3, r3, #1
 8006630:	b2db      	uxtb	r3, r3
 8006632:	f88d 3003 	strb.w	r3, [sp, #3]
 8006636:	2101      	movs	r1, #1
 8006638:	4623      	mov	r3, r4
 800663a:	e7e3      	b.n	8006604 <xPortStartScheduler+0x60>
 800663c:	f44f 7340 	mov.w	r3, #768	; 0x300
 8006640:	6013      	str	r3, [r2, #0]
 8006642:	9b01      	ldr	r3, [sp, #4]
 8006644:	4a13      	ldr	r2, [pc, #76]	; (8006694 <xPortStartScheduler+0xf0>)
 8006646:	b2db      	uxtb	r3, r3
 8006648:	7013      	strb	r3, [r2, #0]
 800664a:	4b15      	ldr	r3, [pc, #84]	; (80066a0 <xPortStartScheduler+0xfc>)
 800664c:	681a      	ldr	r2, [r3, #0]
 800664e:	f442 0270 	orr.w	r2, r2, #15728640	; 0xf00000
 8006652:	601a      	str	r2, [r3, #0]
 8006654:	681a      	ldr	r2, [r3, #0]
 8006656:	f042 4270 	orr.w	r2, r2, #4026531840	; 0xf0000000
 800665a:	601a      	str	r2, [r3, #0]
 800665c:	f7ff ff88 	bl	8006570 <vPortSetupTimerInterrupt>
 8006660:	4b10      	ldr	r3, [pc, #64]	; (80066a4 <xPortStartScheduler+0x100>)
 8006662:	2400      	movs	r4, #0
 8006664:	601c      	str	r4, [r3, #0]
 8006666:	f7ff feb3 	bl	80063d0 <vPortEnableVFP>
 800666a:	4a0f      	ldr	r2, [pc, #60]	; (80066a8 <xPortStartScheduler+0x104>)
 800666c:	6813      	ldr	r3, [r2, #0]
 800666e:	f043 4340 	orr.w	r3, r3, #3221225472	; 0xc0000000
 8006672:	6013      	str	r3, [r2, #0]
 8006674:	f7ff fe98 	bl	80063a8 <prvPortStartFirstTask>
 8006678:	f7ff fab2 	bl	8005be0 <vTaskSwitchContext>
 800667c:	f7ff feb2 	bl	80063e4 <prvTaskExitError>
 8006680:	4620      	mov	r0, r4
 8006682:	b002      	add	sp, #8
 8006684:	bd10      	pop	{r4, pc}
 8006686:	bf00      	nop
 8006688:	e000ed00 	.word	0xe000ed00
 800668c:	410fc271 	.word	0x410fc271
 8006690:	410fc270 	.word	0x410fc270
 8006694:	e000e400 	.word	0xe000e400
 8006698:	20000ef8 	.word	0x20000ef8
 800669c:	20000efc 	.word	0x20000efc
 80066a0:	e000ed20 	.word	0xe000ed20
 80066a4:	20000010 	.word	0x20000010
 80066a8:	e000ef34 	.word	0xe000ef34

080066ac <vPortValidateInterruptPriority>:
 80066ac:	f3ef 8305 	mrs	r3, IPSR
 80066b0:	2b0f      	cmp	r3, #15
 80066b2:	d90e      	bls.n	80066d2 <vPortValidateInterruptPriority+0x26>
 80066b4:	4a10      	ldr	r2, [pc, #64]	; (80066f8 <vPortValidateInterruptPriority+0x4c>)
 80066b6:	5c9b      	ldrb	r3, [r3, r2]
 80066b8:	4a10      	ldr	r2, [pc, #64]	; (80066fc <vPortValidateInterruptPriority+0x50>)
 80066ba:	7812      	ldrb	r2, [r2, #0]
 80066bc:	429a      	cmp	r2, r3
 80066be:	d908      	bls.n	80066d2 <vPortValidateInterruptPriority+0x26>
 80066c0:	f04f 0350 	mov.w	r3, #80	; 0x50
 80066c4:	f383 8811 	msr	BASEPRI, r3
 80066c8:	f3bf 8f6f 	isb	sy
 80066cc:	f3bf 8f4f 	dsb	sy
 80066d0:	e7fe      	b.n	80066d0 <vPortValidateInterruptPriority+0x24>
 80066d2:	4b0b      	ldr	r3, [pc, #44]	; (8006700 <vPortValidateInterruptPriority+0x54>)
 80066d4:	4a0b      	ldr	r2, [pc, #44]	; (8006704 <vPortValidateInterruptPriority+0x58>)
 80066d6:	681b      	ldr	r3, [r3, #0]
 80066d8:	6812      	ldr	r2, [r2, #0]
 80066da:	f403 63e0 	and.w	r3, r3, #1792	; 0x700
 80066de:	4293      	cmp	r3, r2
 80066e0:	d908      	bls.n	80066f4 <vPortValidateInterruptPriority+0x48>
 80066e2:	f04f 0350 	mov.w	r3, #80	; 0x50
 80066e6:	f383 8811 	msr	BASEPRI, r3
 80066ea:	f3bf 8f6f 	isb	sy
 80066ee:	f3bf 8f4f 	dsb	sy
 80066f2:	e7fe      	b.n	80066f2 <vPortValidateInterruptPriority+0x46>
 80066f4:	4770      	bx	lr
 80066f6:	bf00      	nop
 80066f8:	e000e3f0 	.word	0xe000e3f0
 80066fc:	20000ef8 	.word	0x20000ef8
 8006700:	e000ed0c 	.word	0xe000ed0c
 8006704:	20000efc 	.word	0x20000efc

08006708 <prvInsertBlockIntoFreeList>:
 8006708:	b510      	push	{r4, lr}
 800670a:	4b0f      	ldr	r3, [pc, #60]	; (8006748 <prvInsertBlockIntoFreeList+0x40>)
 800670c:	461a      	mov	r2, r3
 800670e:	681b      	ldr	r3, [r3, #0]
 8006710:	4283      	cmp	r3, r0
 8006712:	d3fb      	bcc.n	800670c <prvInsertBlockIntoFreeList+0x4>
 8006714:	6854      	ldr	r4, [r2, #4]
 8006716:	1911      	adds	r1, r2, r4
 8006718:	4288      	cmp	r0, r1
 800671a:	bf01      	itttt	eq
 800671c:	6841      	ldreq	r1, [r0, #4]
 800671e:	4610      	moveq	r0, r2
 8006720:	1909      	addeq	r1, r1, r4
 8006722:	6051      	streq	r1, [r2, #4]
 8006724:	6844      	ldr	r4, [r0, #4]
 8006726:	1901      	adds	r1, r0, r4
 8006728:	428b      	cmp	r3, r1
 800672a:	d107      	bne.n	800673c <prvInsertBlockIntoFreeList+0x34>
 800672c:	4907      	ldr	r1, [pc, #28]	; (800674c <prvInsertBlockIntoFreeList+0x44>)
 800672e:	6809      	ldr	r1, [r1, #0]
 8006730:	428b      	cmp	r3, r1
 8006732:	bf1f      	itttt	ne
 8006734:	6859      	ldrne	r1, [r3, #4]
 8006736:	681b      	ldrne	r3, [r3, #0]
 8006738:	1909      	addne	r1, r1, r4
 800673a:	6041      	strne	r1, [r0, #4]
 800673c:	4290      	cmp	r0, r2
 800673e:	6003      	str	r3, [r0, #0]
 8006740:	bf18      	it	ne
 8006742:	6010      	strne	r0, [r2, #0]
 8006744:	bd10      	pop	{r4, pc}
 8006746:	bf00      	nop
 8006748:	20004b18 	.word	0x20004b18
 800674c:	20000f00 	.word	0x20000f00

08006750 <pvPortMalloc>:
 8006750:	e92d 41f0 	stmdb	sp!, {r4, r5, r6, r7, r8, lr}
 8006754:	4604      	mov	r4, r0
 8006756:	f7ff f907 	bl	8005968 <vTaskSuspendAll>
 800675a:	4b3e      	ldr	r3, [pc, #248]	; (8006854 <pvPortMalloc+0x104>)
 800675c:	483e      	ldr	r0, [pc, #248]	; (8006858 <pvPortMalloc+0x108>)
 800675e:	681a      	ldr	r2, [r3, #0]
 8006760:	469c      	mov	ip, r3
 8006762:	b9d2      	cbnz	r2, 800679a <pvPortMalloc+0x4a>
 8006764:	4a3d      	ldr	r2, [pc, #244]	; (800685c <pvPortMalloc+0x10c>)
 8006766:	4b3e      	ldr	r3, [pc, #248]	; (8006860 <pvPortMalloc+0x110>)
 8006768:	0755      	lsls	r5, r2, #29
 800676a:	bf1c      	itt	ne
 800676c:	3207      	addne	r2, #7
 800676e:	f022 0207 	bicne.w	r2, r2, #7
 8006772:	2100      	movs	r1, #0
 8006774:	601a      	str	r2, [r3, #0]
 8006776:	6059      	str	r1, [r3, #4]
 8006778:	4b3a      	ldr	r3, [pc, #232]	; (8006864 <pvPortMalloc+0x114>)
 800677a:	f023 0307 	bic.w	r3, r3, #7
 800677e:	e9c3 1100 	strd	r1, r1, [r3]
 8006782:	1a99      	subs	r1, r3, r2
 8006784:	e9c2 3100 	strd	r3, r1, [r2]
 8006788:	f8cc 3000 	str.w	r3, [ip]
 800678c:	4b36      	ldr	r3, [pc, #216]	; (8006868 <pvPortMalloc+0x118>)
 800678e:	6019      	str	r1, [r3, #0]
 8006790:	4b36      	ldr	r3, [pc, #216]	; (800686c <pvPortMalloc+0x11c>)
 8006792:	6019      	str	r1, [r3, #0]
 8006794:	f04f 4300 	mov.w	r3, #2147483648	; 0x80000000
 8006798:	6003      	str	r3, [r0, #0]
 800679a:	6807      	ldr	r7, [r0, #0]
 800679c:	4227      	tst	r7, r4
 800679e:	d153      	bne.n	8006848 <pvPortMalloc+0xf8>
 80067a0:	2c00      	cmp	r4, #0
 80067a2:	d044      	beq.n	800682e <pvPortMalloc+0xde>
 80067a4:	f104 0308 	add.w	r3, r4, #8
 80067a8:	0761      	lsls	r1, r4, #29
 80067aa:	bf1c      	itt	ne
 80067ac:	f023 0307 	bicne.w	r3, r3, #7
 80067b0:	3308      	addne	r3, #8
 80067b2:	2b00      	cmp	r3, #0
 80067b4:	d048      	beq.n	8006848 <pvPortMalloc+0xf8>
 80067b6:	4a2d      	ldr	r2, [pc, #180]	; (800686c <pvPortMalloc+0x11c>)
 80067b8:	6816      	ldr	r6, [r2, #0]
 80067ba:	429e      	cmp	r6, r3
 80067bc:	4690      	mov	r8, r2
 80067be:	d343      	bcc.n	8006848 <pvPortMalloc+0xf8>
 80067c0:	4a27      	ldr	r2, [pc, #156]	; (8006860 <pvPortMalloc+0x110>)
 80067c2:	6815      	ldr	r5, [r2, #0]
 80067c4:	6869      	ldr	r1, [r5, #4]
 80067c6:	4299      	cmp	r1, r3
 80067c8:	d201      	bcs.n	80067ce <pvPortMalloc+0x7e>
 80067ca:	6828      	ldr	r0, [r5, #0]
 80067cc:	b9a8      	cbnz	r0, 80067fa <pvPortMalloc+0xaa>
 80067ce:	f8dc 0000 	ldr.w	r0, [ip]
 80067d2:	42a8      	cmp	r0, r5
 80067d4:	d038      	beq.n	8006848 <pvPortMalloc+0xf8>
 80067d6:	1ac9      	subs	r1, r1, r3
 80067d8:	6828      	ldr	r0, [r5, #0]
 80067da:	6814      	ldr	r4, [r2, #0]
 80067dc:	6010      	str	r0, [r2, #0]
 80067de:	2910      	cmp	r1, #16
 80067e0:	d912      	bls.n	8006808 <pvPortMalloc+0xb8>
 80067e2:	18e8      	adds	r0, r5, r3
 80067e4:	0742      	lsls	r2, r0, #29
 80067e6:	d00b      	beq.n	8006800 <pvPortMalloc+0xb0>
 80067e8:	f04f 0350 	mov.w	r3, #80	; 0x50
 80067ec:	f383 8811 	msr	BASEPRI, r3
 80067f0:	f3bf 8f6f 	isb	sy
 80067f4:	f3bf 8f4f 	dsb	sy
 80067f8:	e7fe      	b.n	80067f8 <pvPortMalloc+0xa8>
 80067fa:	462a      	mov	r2, r5
 80067fc:	4605      	mov	r5, r0
 80067fe:	e7e1      	b.n	80067c4 <pvPortMalloc+0x74>
 8006800:	6041      	str	r1, [r0, #4]
 8006802:	606b      	str	r3, [r5, #4]
 8006804:	f7ff ff80 	bl	8006708 <prvInsertBlockIntoFreeList>
 8006808:	686b      	ldr	r3, [r5, #4]
 800680a:	4917      	ldr	r1, [pc, #92]	; (8006868 <pvPortMalloc+0x118>)
 800680c:	4a18      	ldr	r2, [pc, #96]	; (8006870 <pvPortMalloc+0x120>)
 800680e:	6808      	ldr	r0, [r1, #0]
 8006810:	1af6      	subs	r6, r6, r3
 8006812:	431f      	orrs	r7, r3
 8006814:	2300      	movs	r3, #0
 8006816:	602b      	str	r3, [r5, #0]
 8006818:	6813      	ldr	r3, [r2, #0]
 800681a:	f8c8 6000 	str.w	r6, [r8]
 800681e:	4286      	cmp	r6, r0
 8006820:	f103 0301 	add.w	r3, r3, #1
 8006824:	bf38      	it	cc
 8006826:	600e      	strcc	r6, [r1, #0]
 8006828:	3408      	adds	r4, #8
 800682a:	606f      	str	r7, [r5, #4]
 800682c:	6013      	str	r3, [r2, #0]
 800682e:	f7ff f93f 	bl	8005ab0 <xTaskResumeAll>
 8006832:	0763      	lsls	r3, r4, #29
 8006834:	d00a      	beq.n	800684c <pvPortMalloc+0xfc>
 8006836:	f04f 0350 	mov.w	r3, #80	; 0x50
 800683a:	f383 8811 	msr	BASEPRI, r3
 800683e:	f3bf 8f6f 	isb	sy
 8006842:	f3bf 8f4f 	dsb	sy
 8006846:	e7fe      	b.n	8006846 <pvPortMalloc+0xf6>
 8006848:	2400      	movs	r4, #0
 800684a:	e7f0      	b.n	800682e <pvPortMalloc+0xde>
 800684c:	4620      	mov	r0, r4
 800684e:	e8bd 81f0 	ldmia.w	sp!, {r4, r5, r6, r7, r8, pc}
 8006852:	bf00      	nop
 8006854:	20000f00 	.word	0x20000f00
 8006858:	20004b04 	.word	0x20004b04
 800685c:	20000f04 	.word	0x20000f04
 8006860:	20004b18 	.word	0x20004b18
 8006864:	20004afc 	.word	0x20004afc
 8006868:	20004b0c 	.word	0x20004b0c
 800686c:	20004b08 	.word	0x20004b08
 8006870:	20004b10 	.word	0x20004b10

08006874 <vPortFree>:
 8006874:	b510      	push	{r4, lr}
 8006876:	4604      	mov	r4, r0
 8006878:	b390      	cbz	r0, 80068e0 <vPortFree+0x6c>
 800687a:	4a1a      	ldr	r2, [pc, #104]	; (80068e4 <vPortFree+0x70>)
 800687c:	f850 3c04 	ldr.w	r3, [r0, #-4]
 8006880:	6812      	ldr	r2, [r2, #0]
 8006882:	4213      	tst	r3, r2
 8006884:	d108      	bne.n	8006898 <vPortFree+0x24>
 8006886:	f04f 0350 	mov.w	r3, #80	; 0x50
 800688a:	f383 8811 	msr	BASEPRI, r3
 800688e:	f3bf 8f6f 	isb	sy
 8006892:	f3bf 8f4f 	dsb	sy
 8006896:	e7fe      	b.n	8006896 <vPortFree+0x22>
 8006898:	f850 1c08 	ldr.w	r1, [r0, #-8]
 800689c:	b141      	cbz	r1, 80068b0 <vPortFree+0x3c>
 800689e:	f04f 0350 	mov.w	r3, #80	; 0x50
 80068a2:	f383 8811 	msr	BASEPRI, r3
 80068a6:	f3bf 8f6f 	isb	sy
 80068aa:	f3bf 8f4f 	dsb	sy
 80068ae:	e7fe      	b.n	80068ae <vPortFree+0x3a>
 80068b0:	ea23 0302 	bic.w	r3, r3, r2
 80068b4:	f840 3c04 	str.w	r3, [r0, #-4]
 80068b8:	f7ff f856 	bl	8005968 <vTaskSuspendAll>
 80068bc:	4a0a      	ldr	r2, [pc, #40]	; (80068e8 <vPortFree+0x74>)
 80068be:	f854 3c04 	ldr.w	r3, [r4, #-4]
 80068c2:	6811      	ldr	r1, [r2, #0]
 80068c4:	f1a4 0008 	sub.w	r0, r4, #8
 80068c8:	440b      	add	r3, r1
 80068ca:	6013      	str	r3, [r2, #0]
 80068cc:	f7ff ff1c 	bl	8006708 <prvInsertBlockIntoFreeList>
 80068d0:	4a06      	ldr	r2, [pc, #24]	; (80068ec <vPortFree+0x78>)
 80068d2:	6813      	ldr	r3, [r2, #0]
 80068d4:	e8bd 4010 	ldmia.w	sp!, {r4, lr}
 80068d8:	3301      	adds	r3, #1
 80068da:	6013      	str	r3, [r2, #0]
 80068dc:	f7ff b8e8 	b.w	8005ab0 <xTaskResumeAll>
 80068e0:	bd10      	pop	{r4, pc}
 80068e2:	bf00      	nop
 80068e4:	20004b04 	.word	0x20004b04
 80068e8:	20004b08 	.word	0x20004b08
 80068ec:	20004b14 	.word	0x20004b14

080068f0 <__errno>:
 80068f0:	4b01      	ldr	r3, [pc, #4]	; (80068f8 <__errno+0x8>)
 80068f2:	6818      	ldr	r0, [r3, #0]
 80068f4:	4770      	bx	lr
 80068f6:	bf00      	nop
 80068f8:	20000014 	.word	0x20000014

080068fc <__libc_init_array>:
 80068fc:	b570      	push	{r4, r5, r6, lr}
 80068fe:	4d0d      	ldr	r5, [pc, #52]	; (8006934 <__libc_init_array+0x38>)
 8006900:	4c0d      	ldr	r4, [pc, #52]	; (8006938 <__libc_init_array+0x3c>)
 8006902:	1b64      	subs	r4, r4, r5
 8006904:	10a4      	asrs	r4, r4, #2
 8006906:	2600      	movs	r6, #0
 8006908:	42a6      	cmp	r6, r4
 800690a:	d109      	bne.n	8006920 <__libc_init_array+0x24>
 800690c:	4d0b      	ldr	r5, [pc, #44]	; (800693c <__libc_init_array+0x40>)
 800690e:	4c0c      	ldr	r4, [pc, #48]	; (8006940 <__libc_init_array+0x44>)
 8006910:	f003 fbe4 	bl	800a0dc <_init>
 8006914:	1b64      	subs	r4, r4, r5
 8006916:	10a4      	asrs	r4, r4, #2
 8006918:	2600      	movs	r6, #0
 800691a:	42a6      	cmp	r6, r4
 800691c:	d105      	bne.n	800692a <__libc_init_array+0x2e>
 800691e:	bd70      	pop	{r4, r5, r6, pc}
 8006920:	f855 3b04 	ldr.w	r3, [r5], #4
 8006924:	4798      	blx	r3
 8006926:	3601      	adds	r6, #1
 8006928:	e7ee      	b.n	8006908 <__libc_init_array+0xc>
 800692a:	f855 3b04 	ldr.w	r3, [r5], #4
 800692e:	4798      	blx	r3
 8006930:	3601      	adds	r6, #1
 8006932:	e7f2      	b.n	800691a <__libc_init_array+0x1e>
 8006934:	0800b074 	.word	0x0800b074
 8006938:	0800b074 	.word	0x0800b074
 800693c:	0800b074 	.word	0x0800b074
 8006940:	0800b078 	.word	0x0800b078

08006944 <memcpy>:
 8006944:	440a      	add	r2, r1
 8006946:	4291      	cmp	r1, r2
 8006948:	f100 33ff 	add.w	r3, r0, #4294967295
 800694c:	d100      	bne.n	8006950 <memcpy+0xc>
 800694e:	4770      	bx	lr
 8006950:	b510      	push	{r4, lr}
 8006952:	f811 4b01 	ldrb.w	r4, [r1], #1
 8006956:	f803 4f01 	strb.w	r4, [r3, #1]!
 800695a:	4291      	cmp	r1, r2
 800695c:	d1f9      	bne.n	8006952 <memcpy+0xe>
 800695e:	bd10      	pop	{r4, pc}

08006960 <memmove>:
 8006960:	4288      	cmp	r0, r1
 8006962:	b510      	push	{r4, lr}
 8006964:	eb01 0402 	add.w	r4, r1, r2
 8006968:	d902      	bls.n	8006970 <memmove+0x10>
 800696a:	4284      	cmp	r4, r0
 800696c:	4623      	mov	r3, r4
 800696e:	d807      	bhi.n	8006980 <memmove+0x20>
 8006970:	1e43      	subs	r3, r0, #1
 8006972:	42a1      	cmp	r1, r4
 8006974:	d008      	beq.n	8006988 <memmove+0x28>
 8006976:	f811 2b01 	ldrb.w	r2, [r1], #1
 800697a:	f803 2f01 	strb.w	r2, [r3, #1]!
 800697e:	e7f8      	b.n	8006972 <memmove+0x12>
 8006980:	4402      	add	r2, r0
 8006982:	4601      	mov	r1, r0
 8006984:	428a      	cmp	r2, r1
 8006986:	d100      	bne.n	800698a <memmove+0x2a>
 8006988:	bd10      	pop	{r4, pc}
 800698a:	f813 4d01 	ldrb.w	r4, [r3, #-1]!
 800698e:	f802 4d01 	strb.w	r4, [r2, #-1]!
 8006992:	e7f7      	b.n	8006984 <memmove+0x24>

08006994 <memset>:
 8006994:	4402      	add	r2, r0
 8006996:	4603      	mov	r3, r0
 8006998:	4293      	cmp	r3, r2
 800699a:	d100      	bne.n	800699e <memset+0xa>
 800699c:	4770      	bx	lr
 800699e:	f803 1b01 	strb.w	r1, [r3], #1
 80069a2:	e7f9      	b.n	8006998 <memset+0x4>

080069a4 <__cvt>:
 80069a4:	e92d 47ff 	stmdb	sp!, {r0, r1, r2, r3, r4, r5, r6, r7, r8, r9, sl, lr}
 80069a8:	ec55 4b10 	vmov	r4, r5, d0
 80069ac:	2d00      	cmp	r5, #0
 80069ae:	460e      	mov	r6, r1
 80069b0:	4619      	mov	r1, r3
 80069b2:	462b      	mov	r3, r5
 80069b4:	bfbb      	ittet	lt
 80069b6:	f105 4300 	addlt.w	r3, r5, #2147483648	; 0x80000000
 80069ba:	461d      	movlt	r5, r3
 80069bc:	2300      	movge	r3, #0
 80069be:	232d      	movlt	r3, #45	; 0x2d
 80069c0:	700b      	strb	r3, [r1, #0]
 80069c2:	9b0d      	ldr	r3, [sp, #52]	; 0x34
 80069c4:	f8dd a030 	ldr.w	sl, [sp, #48]	; 0x30
 80069c8:	4691      	mov	r9, r2
 80069ca:	f023 0820 	bic.w	r8, r3, #32
 80069ce:	bfbc      	itt	lt
 80069d0:	4622      	movlt	r2, r4
 80069d2:	4614      	movlt	r4, r2
 80069d4:	f1b8 0f46 	cmp.w	r8, #70	; 0x46
 80069d8:	d005      	beq.n	80069e6 <__cvt+0x42>
 80069da:	f1b8 0f45 	cmp.w	r8, #69	; 0x45
 80069de:	d100      	bne.n	80069e2 <__cvt+0x3e>
 80069e0:	3601      	adds	r6, #1
 80069e2:	2102      	movs	r1, #2
 80069e4:	e000      	b.n	80069e8 <__cvt+0x44>
 80069e6:	2103      	movs	r1, #3
 80069e8:	ab03      	add	r3, sp, #12
 80069ea:	9301      	str	r3, [sp, #4]
 80069ec:	ab02      	add	r3, sp, #8
 80069ee:	9300      	str	r3, [sp, #0]
 80069f0:	ec45 4b10 	vmov	d0, r4, r5
 80069f4:	4653      	mov	r3, sl
 80069f6:	4632      	mov	r2, r6
 80069f8:	f000 fe42 	bl	8007680 <_dtoa_r>
 80069fc:	f1b8 0f47 	cmp.w	r8, #71	; 0x47
 8006a00:	4607      	mov	r7, r0
 8006a02:	d102      	bne.n	8006a0a <__cvt+0x66>
 8006a04:	f019 0f01 	tst.w	r9, #1
 8006a08:	d022      	beq.n	8006a50 <__cvt+0xac>
 8006a0a:	f1b8 0f46 	cmp.w	r8, #70	; 0x46
 8006a0e:	eb07 0906 	add.w	r9, r7, r6
 8006a12:	d110      	bne.n	8006a36 <__cvt+0x92>
 8006a14:	783b      	ldrb	r3, [r7, #0]
 8006a16:	2b30      	cmp	r3, #48	; 0x30
 8006a18:	d10a      	bne.n	8006a30 <__cvt+0x8c>
 8006a1a:	2200      	movs	r2, #0
 8006a1c:	2300      	movs	r3, #0
 8006a1e:	4620      	mov	r0, r4
 8006a20:	4629      	mov	r1, r5
 8006a22:	f7fa f851 	bl	8000ac8 <__aeabi_dcmpeq>
 8006a26:	b918      	cbnz	r0, 8006a30 <__cvt+0x8c>
 8006a28:	f1c6 0601 	rsb	r6, r6, #1
 8006a2c:	f8ca 6000 	str.w	r6, [sl]
 8006a30:	f8da 3000 	ldr.w	r3, [sl]
 8006a34:	4499      	add	r9, r3
 8006a36:	2200      	movs	r2, #0
 8006a38:	2300      	movs	r3, #0
 8006a3a:	4620      	mov	r0, r4
 8006a3c:	4629      	mov	r1, r5
 8006a3e:	f7fa f843 	bl	8000ac8 <__aeabi_dcmpeq>
 8006a42:	b108      	cbz	r0, 8006a48 <__cvt+0xa4>
 8006a44:	f8cd 900c 	str.w	r9, [sp, #12]
 8006a48:	2230      	movs	r2, #48	; 0x30
 8006a4a:	9b03      	ldr	r3, [sp, #12]
 8006a4c:	454b      	cmp	r3, r9
 8006a4e:	d307      	bcc.n	8006a60 <__cvt+0xbc>
 8006a50:	9b03      	ldr	r3, [sp, #12]
 8006a52:	9a0e      	ldr	r2, [sp, #56]	; 0x38
 8006a54:	1bdb      	subs	r3, r3, r7
 8006a56:	4638      	mov	r0, r7
 8006a58:	6013      	str	r3, [r2, #0]
 8006a5a:	b004      	add	sp, #16
 8006a5c:	e8bd 87f0 	ldmia.w	sp!, {r4, r5, r6, r7, r8, r9, sl, pc}
 8006a60:	1c59      	adds	r1, r3, #1
 8006a62:	9103      	str	r1, [sp, #12]
 8006a64:	701a      	strb	r2, [r3, #0]
 8006a66:	e7f0      	b.n	8006a4a <__cvt+0xa6>

08006a68 <__exponent>:
 8006a68:	b5f7      	push	{r0, r1, r2, r4, r5, r6, r7, lr}
 8006a6a:	4603      	mov	r3, r0
 8006a6c:	2900      	cmp	r1, #0
 8006a6e:	bfb8      	it	lt
 8006a70:	4249      	neglt	r1, r1
 8006a72:	f803 2b02 	strb.w	r2, [r3], #2
 8006a76:	bfb4      	ite	lt
 8006a78:	222d      	movlt	r2, #45	; 0x2d
 8006a7a:	222b      	movge	r2, #43	; 0x2b
 8006a7c:	2909      	cmp	r1, #9
 8006a7e:	7042      	strb	r2, [r0, #1]
 8006a80:	dd2a      	ble.n	8006ad8 <__exponent+0x70>
 8006a82:	f10d 0407 	add.w	r4, sp, #7
 8006a86:	46a4      	mov	ip, r4
 8006a88:	270a      	movs	r7, #10
 8006a8a:	46a6      	mov	lr, r4
 8006a8c:	460a      	mov	r2, r1
 8006a8e:	fb91 f6f7 	sdiv	r6, r1, r7
 8006a92:	fb07 1516 	mls	r5, r7, r6, r1
 8006a96:	3530      	adds	r5, #48	; 0x30
 8006a98:	2a63      	cmp	r2, #99	; 0x63
 8006a9a:	f104 34ff 	add.w	r4, r4, #4294967295
 8006a9e:	f80e 5c01 	strb.w	r5, [lr, #-1]
 8006aa2:	4631      	mov	r1, r6
 8006aa4:	dcf1      	bgt.n	8006a8a <__exponent+0x22>
 8006aa6:	3130      	adds	r1, #48	; 0x30
 8006aa8:	f1ae 0502 	sub.w	r5, lr, #2
 8006aac:	f804 1c01 	strb.w	r1, [r4, #-1]
 8006ab0:	1c44      	adds	r4, r0, #1
 8006ab2:	4629      	mov	r1, r5
 8006ab4:	4561      	cmp	r1, ip
 8006ab6:	d30a      	bcc.n	8006ace <__exponent+0x66>
 8006ab8:	f10d 0209 	add.w	r2, sp, #9
 8006abc:	eba2 020e 	sub.w	r2, r2, lr
 8006ac0:	4565      	cmp	r5, ip
 8006ac2:	bf88      	it	hi
 8006ac4:	2200      	movhi	r2, #0
 8006ac6:	4413      	add	r3, r2
 8006ac8:	1a18      	subs	r0, r3, r0
 8006aca:	b003      	add	sp, #12
 8006acc:	bdf0      	pop	{r4, r5, r6, r7, pc}
 8006ace:	f811 2b01 	ldrb.w	r2, [r1], #1
 8006ad2:	f804 2f01 	strb.w	r2, [r4, #1]!
 8006ad6:	e7ed      	b.n	8006ab4 <__exponent+0x4c>
 8006ad8:	2330      	movs	r3, #48	; 0x30
 8006ada:	3130      	adds	r1, #48	; 0x30
 8006adc:	7083      	strb	r3, [r0, #2]
 8006ade:	70c1      	strb	r1, [r0, #3]
 8006ae0:	1d03      	adds	r3, r0, #4
 8006ae2:	e7f1      	b.n	8006ac8 <__exponent+0x60>

08006ae4 <_printf_float>:
 8006ae4:	e92d 4ff0 	stmdb	sp!, {r4, r5, r6, r7, r8, r9, sl, fp, lr}
 8006ae8:	ed2d 8b02 	vpush	{d8}
 8006aec:	b08d      	sub	sp, #52	; 0x34
 8006aee:	460c      	mov	r4, r1
 8006af0:	f8dd 8060 	ldr.w	r8, [sp, #96]	; 0x60
 8006af4:	4616      	mov	r6, r2
 8006af6:	461f      	mov	r7, r3
 8006af8:	4605      	mov	r5, r0
 8006afa:	f001 fd65 	bl	80085c8 <_localeconv_r>
 8006afe:	f8d0 a000 	ldr.w	sl, [r0]
 8006b02:	4650      	mov	r0, sl
 8006b04:	f7f9 fb64 	bl	80001d0 <strlen>
 8006b08:	2300      	movs	r3, #0
 8006b0a:	930a      	str	r3, [sp, #40]	; 0x28
 8006b0c:	6823      	ldr	r3, [r4, #0]
 8006b0e:	9305      	str	r3, [sp, #20]
 8006b10:	f8d8 3000 	ldr.w	r3, [r8]
 8006b14:	f894 b018 	ldrb.w	fp, [r4, #24]
 8006b18:	3307      	adds	r3, #7
 8006b1a:	f023 0307 	bic.w	r3, r3, #7
 8006b1e:	f103 0208 	add.w	r2, r3, #8
 8006b22:	f8c8 2000 	str.w	r2, [r8]
 8006b26:	e9d3 2300 	ldrd	r2, r3, [r3]
 8006b2a:	e9c4 2312 	strd	r2, r3, [r4, #72]	; 0x48
 8006b2e:	e9d4 8912 	ldrd	r8, r9, [r4, #72]	; 0x48
 8006b32:	f029 4300 	bic.w	r3, r9, #2147483648	; 0x80000000
 8006b36:	9307      	str	r3, [sp, #28]
 8006b38:	f8cd 8018 	str.w	r8, [sp, #24]
 8006b3c:	ee08 0a10 	vmov	s16, r0
 8006b40:	4b9f      	ldr	r3, [pc, #636]	; (8006dc0 <_printf_float+0x2dc>)
 8006b42:	e9dd 0106 	ldrd	r0, r1, [sp, #24]
 8006b46:	f04f 32ff 	mov.w	r2, #4294967295
 8006b4a:	f7f9 ffef 	bl	8000b2c <__aeabi_dcmpun>
 8006b4e:	bb88      	cbnz	r0, 8006bb4 <_printf_float+0xd0>
 8006b50:	e9dd 0106 	ldrd	r0, r1, [sp, #24]
 8006b54:	4b9a      	ldr	r3, [pc, #616]	; (8006dc0 <_printf_float+0x2dc>)
 8006b56:	f04f 32ff 	mov.w	r2, #4294967295
 8006b5a:	f7f9 ffc9 	bl	8000af0 <__aeabi_dcmple>
 8006b5e:	bb48      	cbnz	r0, 8006bb4 <_printf_float+0xd0>
 8006b60:	2200      	movs	r2, #0
 8006b62:	2300      	movs	r3, #0
 8006b64:	4640      	mov	r0, r8
 8006b66:	4649      	mov	r1, r9
 8006b68:	f7f9 ffb8 	bl	8000adc <__aeabi_dcmplt>
 8006b6c:	b110      	cbz	r0, 8006b74 <_printf_float+0x90>
 8006b6e:	232d      	movs	r3, #45	; 0x2d
 8006b70:	f884 3043 	strb.w	r3, [r4, #67]	; 0x43
 8006b74:	4b93      	ldr	r3, [pc, #588]	; (8006dc4 <_printf_float+0x2e0>)
 8006b76:	4894      	ldr	r0, [pc, #592]	; (8006dc8 <_printf_float+0x2e4>)
 8006b78:	f1bb 0f47 	cmp.w	fp, #71	; 0x47
 8006b7c:	bf94      	ite	ls
 8006b7e:	4698      	movls	r8, r3
 8006b80:	4680      	movhi	r8, r0
 8006b82:	2303      	movs	r3, #3
 8006b84:	6123      	str	r3, [r4, #16]
 8006b86:	9b05      	ldr	r3, [sp, #20]
 8006b88:	f023 0204 	bic.w	r2, r3, #4
 8006b8c:	6022      	str	r2, [r4, #0]
 8006b8e:	f04f 0900 	mov.w	r9, #0
 8006b92:	9700      	str	r7, [sp, #0]
 8006b94:	4633      	mov	r3, r6
 8006b96:	aa0b      	add	r2, sp, #44	; 0x2c
 8006b98:	4621      	mov	r1, r4
 8006b9a:	4628      	mov	r0, r5
 8006b9c:	f000 f9d8 	bl	8006f50 <_printf_common>
 8006ba0:	3001      	adds	r0, #1
 8006ba2:	f040 8090 	bne.w	8006cc6 <_printf_float+0x1e2>
 8006ba6:	f04f 30ff 	mov.w	r0, #4294967295
 8006baa:	b00d      	add	sp, #52	; 0x34
 8006bac:	ecbd 8b02 	vpop	{d8}
 8006bb0:	e8bd 8ff0 	ldmia.w	sp!, {r4, r5, r6, r7, r8, r9, sl, fp, pc}
 8006bb4:	4642      	mov	r2, r8
 8006bb6:	464b      	mov	r3, r9
 8006bb8:	4640      	mov	r0, r8
 8006bba:	4649      	mov	r1, r9
 8006bbc:	f7f9 ffb6 	bl	8000b2c <__aeabi_dcmpun>
 8006bc0:	b140      	cbz	r0, 8006bd4 <_printf_float+0xf0>
 8006bc2:	464b      	mov	r3, r9
 8006bc4:	2b00      	cmp	r3, #0
 8006bc6:	bfbc      	itt	lt
 8006bc8:	232d      	movlt	r3, #45	; 0x2d
 8006bca:	f884 3043 	strblt.w	r3, [r4, #67]	; 0x43
 8006bce:	487f      	ldr	r0, [pc, #508]	; (8006dcc <_printf_float+0x2e8>)
 8006bd0:	4b7f      	ldr	r3, [pc, #508]	; (8006dd0 <_printf_float+0x2ec>)
 8006bd2:	e7d1      	b.n	8006b78 <_printf_float+0x94>
 8006bd4:	6863      	ldr	r3, [r4, #4]
 8006bd6:	f00b 02df 	and.w	r2, fp, #223	; 0xdf
 8006bda:	9206      	str	r2, [sp, #24]
 8006bdc:	1c5a      	adds	r2, r3, #1
 8006bde:	d13f      	bne.n	8006c60 <_printf_float+0x17c>
 8006be0:	2306      	movs	r3, #6
 8006be2:	6063      	str	r3, [r4, #4]
 8006be4:	9b05      	ldr	r3, [sp, #20]
 8006be6:	6861      	ldr	r1, [r4, #4]
 8006be8:	f443 6280 	orr.w	r2, r3, #1024	; 0x400
 8006bec:	2300      	movs	r3, #0
 8006bee:	9303      	str	r3, [sp, #12]
 8006bf0:	ab0a      	add	r3, sp, #40	; 0x28
 8006bf2:	e9cd b301 	strd	fp, r3, [sp, #4]
 8006bf6:	ab09      	add	r3, sp, #36	; 0x24
 8006bf8:	ec49 8b10 	vmov	d0, r8, r9
 8006bfc:	9300      	str	r3, [sp, #0]
 8006bfe:	6022      	str	r2, [r4, #0]
 8006c00:	f10d 0323 	add.w	r3, sp, #35	; 0x23
 8006c04:	4628      	mov	r0, r5
 8006c06:	f7ff fecd 	bl	80069a4 <__cvt>
 8006c0a:	9b06      	ldr	r3, [sp, #24]
 8006c0c:	9909      	ldr	r1, [sp, #36]	; 0x24
 8006c0e:	2b47      	cmp	r3, #71	; 0x47
 8006c10:	4680      	mov	r8, r0
 8006c12:	d108      	bne.n	8006c26 <_printf_float+0x142>
 8006c14:	1cc8      	adds	r0, r1, #3
 8006c16:	db02      	blt.n	8006c1e <_printf_float+0x13a>
 8006c18:	6863      	ldr	r3, [r4, #4]
 8006c1a:	4299      	cmp	r1, r3
 8006c1c:	dd41      	ble.n	8006ca2 <_printf_float+0x1be>
 8006c1e:	f1ab 0b02 	sub.w	fp, fp, #2
 8006c22:	fa5f fb8b 	uxtb.w	fp, fp
 8006c26:	f1bb 0f65 	cmp.w	fp, #101	; 0x65
 8006c2a:	d820      	bhi.n	8006c6e <_printf_float+0x18a>
 8006c2c:	3901      	subs	r1, #1
 8006c2e:	465a      	mov	r2, fp
 8006c30:	f104 0050 	add.w	r0, r4, #80	; 0x50
 8006c34:	9109      	str	r1, [sp, #36]	; 0x24
 8006c36:	f7ff ff17 	bl	8006a68 <__exponent>
 8006c3a:	9a0a      	ldr	r2, [sp, #40]	; 0x28
 8006c3c:	1813      	adds	r3, r2, r0
 8006c3e:	2a01      	cmp	r2, #1
 8006c40:	4681      	mov	r9, r0
 8006c42:	6123      	str	r3, [r4, #16]
 8006c44:	dc02      	bgt.n	8006c4c <_printf_float+0x168>
 8006c46:	6822      	ldr	r2, [r4, #0]
 8006c48:	07d2      	lsls	r2, r2, #31
 8006c4a:	d501      	bpl.n	8006c50 <_printf_float+0x16c>
 8006c4c:	3301      	adds	r3, #1
 8006c4e:	6123      	str	r3, [r4, #16]
 8006c50:	f89d 3023 	ldrb.w	r3, [sp, #35]	; 0x23
 8006c54:	2b00      	cmp	r3, #0
 8006c56:	d09c      	beq.n	8006b92 <_printf_float+0xae>
 8006c58:	232d      	movs	r3, #45	; 0x2d
 8006c5a:	f884 3043 	strb.w	r3, [r4, #67]	; 0x43
 8006c5e:	e798      	b.n	8006b92 <_printf_float+0xae>
 8006c60:	9a06      	ldr	r2, [sp, #24]
 8006c62:	2a47      	cmp	r2, #71	; 0x47
 8006c64:	d1be      	bne.n	8006be4 <_printf_float+0x100>
 8006c66:	2b00      	cmp	r3, #0
 8006c68:	d1bc      	bne.n	8006be4 <_printf_float+0x100>
 8006c6a:	2301      	movs	r3, #1
 8006c6c:	e7b9      	b.n	8006be2 <_printf_float+0xfe>
 8006c6e:	f1bb 0f66 	cmp.w	fp, #102	; 0x66
 8006c72:	d118      	bne.n	8006ca6 <_printf_float+0x1c2>
 8006c74:	2900      	cmp	r1, #0
 8006c76:	6863      	ldr	r3, [r4, #4]
 8006c78:	dd0b      	ble.n	8006c92 <_printf_float+0x1ae>
 8006c7a:	6121      	str	r1, [r4, #16]
 8006c7c:	b913      	cbnz	r3, 8006c84 <_printf_float+0x1a0>
 8006c7e:	6822      	ldr	r2, [r4, #0]
 8006c80:	07d0      	lsls	r0, r2, #31
 8006c82:	d502      	bpl.n	8006c8a <_printf_float+0x1a6>
 8006c84:	3301      	adds	r3, #1
 8006c86:	440b      	add	r3, r1
 8006c88:	6123      	str	r3, [r4, #16]
 8006c8a:	65a1      	str	r1, [r4, #88]	; 0x58
 8006c8c:	f04f 0900 	mov.w	r9, #0
 8006c90:	e7de      	b.n	8006c50 <_printf_float+0x16c>
 8006c92:	b913      	cbnz	r3, 8006c9a <_printf_float+0x1b6>
 8006c94:	6822      	ldr	r2, [r4, #0]
 8006c96:	07d2      	lsls	r2, r2, #31
 8006c98:	d501      	bpl.n	8006c9e <_printf_float+0x1ba>
 8006c9a:	3302      	adds	r3, #2
 8006c9c:	e7f4      	b.n	8006c88 <_printf_float+0x1a4>
 8006c9e:	2301      	movs	r3, #1
 8006ca0:	e7f2      	b.n	8006c88 <_printf_float+0x1a4>
 8006ca2:	f04f 0b67 	mov.w	fp, #103	; 0x67
 8006ca6:	9b0a      	ldr	r3, [sp, #40]	; 0x28
 8006ca8:	4299      	cmp	r1, r3
 8006caa:	db05      	blt.n	8006cb8 <_printf_float+0x1d4>
 8006cac:	6823      	ldr	r3, [r4, #0]
 8006cae:	6121      	str	r1, [r4, #16]
 8006cb0:	07d8      	lsls	r0, r3, #31
 8006cb2:	d5ea      	bpl.n	8006c8a <_printf_float+0x1a6>
 8006cb4:	1c4b      	adds	r3, r1, #1
 8006cb6:	e7e7      	b.n	8006c88 <_printf_float+0x1a4>
 8006cb8:	2900      	cmp	r1, #0
 8006cba:	bfd4      	ite	le
 8006cbc:	f1c1 0202 	rsble	r2, r1, #2
 8006cc0:	2201      	movgt	r2, #1
 8006cc2:	4413      	add	r3, r2
 8006cc4:	e7e0      	b.n	8006c88 <_printf_float+0x1a4>
 8006cc6:	6823      	ldr	r3, [r4, #0]
 8006cc8:	055a      	lsls	r2, r3, #21
 8006cca:	d407      	bmi.n	8006cdc <_printf_float+0x1f8>
 8006ccc:	6923      	ldr	r3, [r4, #16]
 8006cce:	4642      	mov	r2, r8
 8006cd0:	4631      	mov	r1, r6
 8006cd2:	4628      	mov	r0, r5
 8006cd4:	47b8      	blx	r7
 8006cd6:	3001      	adds	r0, #1
 8006cd8:	d12c      	bne.n	8006d34 <_printf_float+0x250>
 8006cda:	e764      	b.n	8006ba6 <_printf_float+0xc2>
 8006cdc:	f1bb 0f65 	cmp.w	fp, #101	; 0x65
 8006ce0:	f240 80e0 	bls.w	8006ea4 <_printf_float+0x3c0>
 8006ce4:	e9d4 0112 	ldrd	r0, r1, [r4, #72]	; 0x48
 8006ce8:	2200      	movs	r2, #0
 8006cea:	2300      	movs	r3, #0
 8006cec:	f7f9 feec 	bl	8000ac8 <__aeabi_dcmpeq>
 8006cf0:	2800      	cmp	r0, #0
 8006cf2:	d034      	beq.n	8006d5e <_printf_float+0x27a>
 8006cf4:	4a37      	ldr	r2, [pc, #220]	; (8006dd4 <_printf_float+0x2f0>)
 8006cf6:	2301      	movs	r3, #1
 8006cf8:	4631      	mov	r1, r6
 8006cfa:	4628      	mov	r0, r5
 8006cfc:	47b8      	blx	r7
 8006cfe:	3001      	adds	r0, #1
 8006d00:	f43f af51 	beq.w	8006ba6 <_printf_float+0xc2>
 8006d04:	e9dd 2309 	ldrd	r2, r3, [sp, #36]	; 0x24
 8006d08:	429a      	cmp	r2, r3
 8006d0a:	db02      	blt.n	8006d12 <_printf_float+0x22e>
 8006d0c:	6823      	ldr	r3, [r4, #0]
 8006d0e:	07d8      	lsls	r0, r3, #31
 8006d10:	d510      	bpl.n	8006d34 <_printf_float+0x250>
 8006d12:	ee18 3a10 	vmov	r3, s16
 8006d16:	4652      	mov	r2, sl
 8006d18:	4631      	mov	r1, r6
 8006d1a:	4628      	mov	r0, r5
 8006d1c:	47b8      	blx	r7
 8006d1e:	3001      	adds	r0, #1
 8006d20:	f43f af41 	beq.w	8006ba6 <_printf_float+0xc2>
 8006d24:	f04f 0800 	mov.w	r8, #0
 8006d28:	f104 091a 	add.w	r9, r4, #26
 8006d2c:	9b0a      	ldr	r3, [sp, #40]	; 0x28
 8006d2e:	3b01      	subs	r3, #1
 8006d30:	4543      	cmp	r3, r8
 8006d32:	dc09      	bgt.n	8006d48 <_printf_float+0x264>
 8006d34:	6823      	ldr	r3, [r4, #0]
 8006d36:	079b      	lsls	r3, r3, #30
 8006d38:	f100 8105 	bmi.w	8006f46 <_printf_float+0x462>
 8006d3c:	68e0      	ldr	r0, [r4, #12]
 8006d3e:	9b0b      	ldr	r3, [sp, #44]	; 0x2c
 8006d40:	4298      	cmp	r0, r3
 8006d42:	bfb8      	it	lt
 8006d44:	4618      	movlt	r0, r3
 8006d46:	e730      	b.n	8006baa <_printf_float+0xc6>
 8006d48:	2301      	movs	r3, #1
 8006d4a:	464a      	mov	r2, r9
 8006d4c:	4631      	mov	r1, r6
 8006d4e:	4628      	mov	r0, r5
 8006d50:	47b8      	blx	r7
 8006d52:	3001      	adds	r0, #1
 8006d54:	f43f af27 	beq.w	8006ba6 <_printf_float+0xc2>
 8006d58:	f108 0801 	add.w	r8, r8, #1
 8006d5c:	e7e6      	b.n	8006d2c <_printf_float+0x248>
 8006d5e:	9b09      	ldr	r3, [sp, #36]	; 0x24
 8006d60:	2b00      	cmp	r3, #0
 8006d62:	dc39      	bgt.n	8006dd8 <_printf_float+0x2f4>
 8006d64:	4a1b      	ldr	r2, [pc, #108]	; (8006dd4 <_printf_float+0x2f0>)
 8006d66:	2301      	movs	r3, #1
 8006d68:	4631      	mov	r1, r6
 8006d6a:	4628      	mov	r0, r5
 8006d6c:	47b8      	blx	r7
 8006d6e:	3001      	adds	r0, #1
 8006d70:	f43f af19 	beq.w	8006ba6 <_printf_float+0xc2>
 8006d74:	e9dd 2309 	ldrd	r2, r3, [sp, #36]	; 0x24
 8006d78:	4313      	orrs	r3, r2
 8006d7a:	d102      	bne.n	8006d82 <_printf_float+0x29e>
 8006d7c:	6823      	ldr	r3, [r4, #0]
 8006d7e:	07d9      	lsls	r1, r3, #31
 8006d80:	d5d8      	bpl.n	8006d34 <_printf_float+0x250>
 8006d82:	ee18 3a10 	vmov	r3, s16
 8006d86:	4652      	mov	r2, sl
 8006d88:	4631      	mov	r1, r6
 8006d8a:	4628      	mov	r0, r5
 8006d8c:	47b8      	blx	r7
 8006d8e:	3001      	adds	r0, #1
 8006d90:	f43f af09 	beq.w	8006ba6 <_printf_float+0xc2>
 8006d94:	f04f 0900 	mov.w	r9, #0
 8006d98:	f104 0a1a 	add.w	sl, r4, #26
 8006d9c:	9b09      	ldr	r3, [sp, #36]	; 0x24
 8006d9e:	425b      	negs	r3, r3
 8006da0:	454b      	cmp	r3, r9
 8006da2:	dc01      	bgt.n	8006da8 <_printf_float+0x2c4>
 8006da4:	9b0a      	ldr	r3, [sp, #40]	; 0x28
 8006da6:	e792      	b.n	8006cce <_printf_float+0x1ea>
 8006da8:	2301      	movs	r3, #1
 8006daa:	4652      	mov	r2, sl
 8006dac:	4631      	mov	r1, r6
 8006dae:	4628      	mov	r0, r5
 8006db0:	47b8      	blx	r7
 8006db2:	3001      	adds	r0, #1
 8006db4:	f43f aef7 	beq.w	8006ba6 <_printf_float+0xc2>
 8006db8:	f109 0901 	add.w	r9, r9, #1
 8006dbc:	e7ee      	b.n	8006d9c <_printf_float+0x2b8>
 8006dbe:	bf00      	nop
 8006dc0:	7fefffff 	.word	0x7fefffff
 8006dc4:	0800ac8c 	.word	0x0800ac8c
 8006dc8:	0800ac90 	.word	0x0800ac90
 8006dcc:	0800ac98 	.word	0x0800ac98
 8006dd0:	0800ac94 	.word	0x0800ac94
 8006dd4:	0800ac9c 	.word	0x0800ac9c
 8006dd8:	9a0a      	ldr	r2, [sp, #40]	; 0x28
 8006dda:	6da3      	ldr	r3, [r4, #88]	; 0x58
 8006ddc:	429a      	cmp	r2, r3
 8006dde:	bfa8      	it	ge
 8006de0:	461a      	movge	r2, r3
 8006de2:	2a00      	cmp	r2, #0
 8006de4:	4691      	mov	r9, r2
 8006de6:	dc37      	bgt.n	8006e58 <_printf_float+0x374>
 8006de8:	f04f 0b00 	mov.w	fp, #0
 8006dec:	ea29 79e9 	bic.w	r9, r9, r9, asr #31
 8006df0:	f104 021a 	add.w	r2, r4, #26
 8006df4:	6da3      	ldr	r3, [r4, #88]	; 0x58
 8006df6:	9305      	str	r3, [sp, #20]
 8006df8:	eba3 0309 	sub.w	r3, r3, r9
 8006dfc:	455b      	cmp	r3, fp
 8006dfe:	dc33      	bgt.n	8006e68 <_printf_float+0x384>
 8006e00:	e9dd 2309 	ldrd	r2, r3, [sp, #36]	; 0x24
 8006e04:	429a      	cmp	r2, r3
 8006e06:	db3b      	blt.n	8006e80 <_printf_float+0x39c>
 8006e08:	6823      	ldr	r3, [r4, #0]
 8006e0a:	07da      	lsls	r2, r3, #31
 8006e0c:	d438      	bmi.n	8006e80 <_printf_float+0x39c>
 8006e0e:	9a0a      	ldr	r2, [sp, #40]	; 0x28
 8006e10:	9b05      	ldr	r3, [sp, #20]
 8006e12:	9909      	ldr	r1, [sp, #36]	; 0x24
 8006e14:	1ad3      	subs	r3, r2, r3
 8006e16:	eba2 0901 	sub.w	r9, r2, r1
 8006e1a:	4599      	cmp	r9, r3
 8006e1c:	bfa8      	it	ge
 8006e1e:	4699      	movge	r9, r3
 8006e20:	f1b9 0f00 	cmp.w	r9, #0
 8006e24:	dc35      	bgt.n	8006e92 <_printf_float+0x3ae>
 8006e26:	f04f 0800 	mov.w	r8, #0
 8006e2a:	ea29 79e9 	bic.w	r9, r9, r9, asr #31
 8006e2e:	f104 0a1a 	add.w	sl, r4, #26
 8006e32:	e9dd 2309 	ldrd	r2, r3, [sp, #36]	; 0x24
 8006e36:	1a9b      	subs	r3, r3, r2
 8006e38:	eba3 0309 	sub.w	r3, r3, r9
 8006e3c:	4543      	cmp	r3, r8
 8006e3e:	f77f af79 	ble.w	8006d34 <_printf_float+0x250>
 8006e42:	2301      	movs	r3, #1
 8006e44:	4652      	mov	r2, sl
 8006e46:	4631      	mov	r1, r6
 8006e48:	4628      	mov	r0, r5
 8006e4a:	47b8      	blx	r7
 8006e4c:	3001      	adds	r0, #1
 8006e4e:	f43f aeaa 	beq.w	8006ba6 <_printf_float+0xc2>
 8006e52:	f108 0801 	add.w	r8, r8, #1
 8006e56:	e7ec      	b.n	8006e32 <_printf_float+0x34e>
 8006e58:	4613      	mov	r3, r2
 8006e5a:	4631      	mov	r1, r6
 8006e5c:	4642      	mov	r2, r8
 8006e5e:	4628      	mov	r0, r5
 8006e60:	47b8      	blx	r7
 8006e62:	3001      	adds	r0, #1
 8006e64:	d1c0      	bne.n	8006de8 <_printf_float+0x304>
 8006e66:	e69e      	b.n	8006ba6 <_printf_float+0xc2>
 8006e68:	2301      	movs	r3, #1
 8006e6a:	4631      	mov	r1, r6
 8006e6c:	4628      	mov	r0, r5
 8006e6e:	9205      	str	r2, [sp, #20]
 8006e70:	47b8      	blx	r7
 8006e72:	3001      	adds	r0, #1
 8006e74:	f43f ae97 	beq.w	8006ba6 <_printf_float+0xc2>
 8006e78:	9a05      	ldr	r2, [sp, #20]
 8006e7a:	f10b 0b01 	add.w	fp, fp, #1
 8006e7e:	e7b9      	b.n	8006df4 <_printf_float+0x310>
 8006e80:	ee18 3a10 	vmov	r3, s16
 8006e84:	4652      	mov	r2, sl
 8006e86:	4631      	mov	r1, r6
 8006e88:	4628      	mov	r0, r5
 8006e8a:	47b8      	blx	r7
 8006e8c:	3001      	adds	r0, #1
 8006e8e:	d1be      	bne.n	8006e0e <_printf_float+0x32a>
 8006e90:	e689      	b.n	8006ba6 <_printf_float+0xc2>
 8006e92:	9a05      	ldr	r2, [sp, #20]
 8006e94:	464b      	mov	r3, r9
 8006e96:	4442      	add	r2, r8
 8006e98:	4631      	mov	r1, r6
 8006e9a:	4628      	mov	r0, r5
 8006e9c:	47b8      	blx	r7
 8006e9e:	3001      	adds	r0, #1
 8006ea0:	d1c1      	bne.n	8006e26 <_printf_float+0x342>
 8006ea2:	e680      	b.n	8006ba6 <_printf_float+0xc2>
 8006ea4:	9a0a      	ldr	r2, [sp, #40]	; 0x28
 8006ea6:	2a01      	cmp	r2, #1
 8006ea8:	dc01      	bgt.n	8006eae <_printf_float+0x3ca>
 8006eaa:	07db      	lsls	r3, r3, #31
 8006eac:	d538      	bpl.n	8006f20 <_printf_float+0x43c>
 8006eae:	2301      	movs	r3, #1
 8006eb0:	4642      	mov	r2, r8
 8006eb2:	4631      	mov	r1, r6
 8006eb4:	4628      	mov	r0, r5
 8006eb6:	47b8      	blx	r7
 8006eb8:	3001      	adds	r0, #1
 8006eba:	f43f ae74 	beq.w	8006ba6 <_printf_float+0xc2>
 8006ebe:	ee18 3a10 	vmov	r3, s16
 8006ec2:	4652      	mov	r2, sl
 8006ec4:	4631      	mov	r1, r6
 8006ec6:	4628      	mov	r0, r5
 8006ec8:	47b8      	blx	r7
 8006eca:	3001      	adds	r0, #1
 8006ecc:	f43f ae6b 	beq.w	8006ba6 <_printf_float+0xc2>
 8006ed0:	e9d4 0112 	ldrd	r0, r1, [r4, #72]	; 0x48
 8006ed4:	2200      	movs	r2, #0
 8006ed6:	2300      	movs	r3, #0
 8006ed8:	f7f9 fdf6 	bl	8000ac8 <__aeabi_dcmpeq>
 8006edc:	b9d8      	cbnz	r0, 8006f16 <_printf_float+0x432>
 8006ede:	9b0a      	ldr	r3, [sp, #40]	; 0x28
 8006ee0:	f108 0201 	add.w	r2, r8, #1
 8006ee4:	3b01      	subs	r3, #1
 8006ee6:	4631      	mov	r1, r6
 8006ee8:	4628      	mov	r0, r5
 8006eea:	47b8      	blx	r7
 8006eec:	3001      	adds	r0, #1
 8006eee:	d10e      	bne.n	8006f0e <_printf_float+0x42a>
 8006ef0:	e659      	b.n	8006ba6 <_printf_float+0xc2>
 8006ef2:	2301      	movs	r3, #1
 8006ef4:	4652      	mov	r2, sl
 8006ef6:	4631      	mov	r1, r6
 8006ef8:	4628      	mov	r0, r5
 8006efa:	47b8      	blx	r7
 8006efc:	3001      	adds	r0, #1
 8006efe:	f43f ae52 	beq.w	8006ba6 <_printf_float+0xc2>
 8006f02:	f108 0801 	add.w	r8, r8, #1
 8006f06:	9b0a      	ldr	r3, [sp, #40]	; 0x28
 8006f08:	3b01      	subs	r3, #1
 8006f0a:	4543      	cmp	r3, r8
 8006f0c:	dcf1      	bgt.n	8006ef2 <_printf_float+0x40e>
 8006f0e:	464b      	mov	r3, r9
 8006f10:	f104 0250 	add.w	r2, r4, #80	; 0x50
 8006f14:	e6dc      	b.n	8006cd0 <_printf_float+0x1ec>
 8006f16:	f04f 0800 	mov.w	r8, #0
 8006f1a:	f104 0a1a 	add.w	sl, r4, #26
 8006f1e:	e7f2      	b.n	8006f06 <_printf_float+0x422>
 8006f20:	2301      	movs	r3, #1
 8006f22:	4642      	mov	r2, r8
 8006f24:	e7df      	b.n	8006ee6 <_printf_float+0x402>
 8006f26:	2301      	movs	r3, #1
 8006f28:	464a      	mov	r2, r9
 8006f2a:	4631      	mov	r1, r6
 8006f2c:	4628      	mov	r0, r5
 8006f2e:	47b8      	blx	r7
 8006f30:	3001      	adds	r0, #1
 8006f32:	f43f ae38 	beq.w	8006ba6 <_printf_float+0xc2>
 8006f36:	f108 0801 	add.w	r8, r8, #1
 8006f3a:	68e3      	ldr	r3, [r4, #12]
 8006f3c:	990b      	ldr	r1, [sp, #44]	; 0x2c
 8006f3e:	1a5b      	subs	r3, r3, r1
 8006f40:	4543      	cmp	r3, r8
 8006f42:	dcf0      	bgt.n	8006f26 <_printf_float+0x442>
 8006f44:	e6fa      	b.n	8006d3c <_printf_float+0x258>
 8006f46:	f04f 0800 	mov.w	r8, #0
 8006f4a:	f104 0919 	add.w	r9, r4, #25
 8006f4e:	e7f4      	b.n	8006f3a <_printf_float+0x456>

08006f50 <_printf_common>:
 8006f50:	e92d 47f0 	stmdb	sp!, {r4, r5, r6, r7, r8, r9, sl, lr}
 8006f54:	4616      	mov	r6, r2
 8006f56:	4699      	mov	r9, r3
 8006f58:	688a      	ldr	r2, [r1, #8]
 8006f5a:	690b      	ldr	r3, [r1, #16]
 8006f5c:	f8dd 8020 	ldr.w	r8, [sp, #32]
 8006f60:	4293      	cmp	r3, r2
 8006f62:	bfb8      	it	lt
 8006f64:	4613      	movlt	r3, r2
 8006f66:	6033      	str	r3, [r6, #0]
 8006f68:	f891 2043 	ldrb.w	r2, [r1, #67]	; 0x43
 8006f6c:	4607      	mov	r7, r0
 8006f6e:	460c      	mov	r4, r1
 8006f70:	b10a      	cbz	r2, 8006f76 <_printf_common+0x26>
 8006f72:	3301      	adds	r3, #1
 8006f74:	6033      	str	r3, [r6, #0]
 8006f76:	6823      	ldr	r3, [r4, #0]
 8006f78:	0699      	lsls	r1, r3, #26
 8006f7a:	bf42      	ittt	mi
 8006f7c:	6833      	ldrmi	r3, [r6, #0]
 8006f7e:	3302      	addmi	r3, #2
 8006f80:	6033      	strmi	r3, [r6, #0]
 8006f82:	6825      	ldr	r5, [r4, #0]
 8006f84:	f015 0506 	ands.w	r5, r5, #6
 8006f88:	d106      	bne.n	8006f98 <_printf_common+0x48>
 8006f8a:	f104 0a19 	add.w	sl, r4, #25
 8006f8e:	68e3      	ldr	r3, [r4, #12]
 8006f90:	6832      	ldr	r2, [r6, #0]
 8006f92:	1a9b      	subs	r3, r3, r2
 8006f94:	42ab      	cmp	r3, r5
 8006f96:	dc26      	bgt.n	8006fe6 <_printf_common+0x96>
 8006f98:	f894 2043 	ldrb.w	r2, [r4, #67]	; 0x43
 8006f9c:	1e13      	subs	r3, r2, #0
 8006f9e:	6822      	ldr	r2, [r4, #0]
 8006fa0:	bf18      	it	ne
 8006fa2:	2301      	movne	r3, #1
 8006fa4:	0692      	lsls	r2, r2, #26
 8006fa6:	d42b      	bmi.n	8007000 <_printf_common+0xb0>
 8006fa8:	f104 0243 	add.w	r2, r4, #67	; 0x43
 8006fac:	4649      	mov	r1, r9
 8006fae:	4638      	mov	r0, r7
 8006fb0:	47c0      	blx	r8
 8006fb2:	3001      	adds	r0, #1
 8006fb4:	d01e      	beq.n	8006ff4 <_printf_common+0xa4>
 8006fb6:	6823      	ldr	r3, [r4, #0]
 8006fb8:	68e5      	ldr	r5, [r4, #12]
 8006fba:	6832      	ldr	r2, [r6, #0]
 8006fbc:	f003 0306 	and.w	r3, r3, #6
 8006fc0:	2b04      	cmp	r3, #4
 8006fc2:	bf08      	it	eq
 8006fc4:	1aad      	subeq	r5, r5, r2
 8006fc6:	68a3      	ldr	r3, [r4, #8]
 8006fc8:	6922      	ldr	r2, [r4, #16]
 8006fca:	bf0c      	ite	eq
 8006fcc:	ea25 75e5 	biceq.w	r5, r5, r5, asr #31
 8006fd0:	2500      	movne	r5, #0
 8006fd2:	4293      	cmp	r3, r2
 8006fd4:	bfc4      	itt	gt
 8006fd6:	1a9b      	subgt	r3, r3, r2
 8006fd8:	18ed      	addgt	r5, r5, r3
 8006fda:	2600      	movs	r6, #0
 8006fdc:	341a      	adds	r4, #26
 8006fde:	42b5      	cmp	r5, r6
 8006fe0:	d11a      	bne.n	8007018 <_printf_common+0xc8>
 8006fe2:	2000      	movs	r0, #0
 8006fe4:	e008      	b.n	8006ff8 <_printf_common+0xa8>
 8006fe6:	2301      	movs	r3, #1
 8006fe8:	4652      	mov	r2, sl
 8006fea:	4649      	mov	r1, r9
 8006fec:	4638      	mov	r0, r7
 8006fee:	47c0      	blx	r8
 8006ff0:	3001      	adds	r0, #1
 8006ff2:	d103      	bne.n	8006ffc <_printf_common+0xac>
 8006ff4:	f04f 30ff 	mov.w	r0, #4294967295
 8006ff8:	e8bd 87f0 	ldmia.w	sp!, {r4, r5, r6, r7, r8, r9, sl, pc}
 8006ffc:	3501      	adds	r5, #1
 8006ffe:	e7c6      	b.n	8006f8e <_printf_common+0x3e>
 8007000:	18e1      	adds	r1, r4, r3
 8007002:	1c5a      	adds	r2, r3, #1
 8007004:	2030      	movs	r0, #48	; 0x30
 8007006:	f881 0043 	strb.w	r0, [r1, #67]	; 0x43
 800700a:	4422      	add	r2, r4
 800700c:	f894 1045 	ldrb.w	r1, [r4, #69]	; 0x45
 8007010:	f882 1043 	strb.w	r1, [r2, #67]	; 0x43
 8007014:	3302      	adds	r3, #2
 8007016:	e7c7      	b.n	8006fa8 <_printf_common+0x58>
 8007018:	2301      	movs	r3, #1
 800701a:	4622      	mov	r2, r4
 800701c:	4649      	mov	r1, r9
 800701e:	4638      	mov	r0, r7
 8007020:	47c0      	blx	r8
 8007022:	3001      	adds	r0, #1
 8007024:	d0e6      	beq.n	8006ff4 <_printf_common+0xa4>
 8007026:	3601      	adds	r6, #1
 8007028:	e7d9      	b.n	8006fde <_printf_common+0x8e>
	...

0800702c <_printf_i>:
 800702c:	e92d 47ff 	stmdb	sp!, {r0, r1, r2, r3, r4, r5, r6, r7, r8, r9, sl, lr}
 8007030:	460c      	mov	r4, r1
 8007032:	4691      	mov	r9, r2
 8007034:	7e27      	ldrb	r7, [r4, #24]
 8007036:	990c      	ldr	r1, [sp, #48]	; 0x30
 8007038:	2f78      	cmp	r7, #120	; 0x78
 800703a:	4680      	mov	r8, r0
 800703c:	469a      	mov	sl, r3
 800703e:	f104 0243 	add.w	r2, r4, #67	; 0x43
 8007042:	d807      	bhi.n	8007054 <_printf_i+0x28>
 8007044:	2f62      	cmp	r7, #98	; 0x62
 8007046:	d80a      	bhi.n	800705e <_printf_i+0x32>
 8007048:	2f00      	cmp	r7, #0
 800704a:	f000 80d8 	beq.w	80071fe <_printf_i+0x1d2>
 800704e:	2f58      	cmp	r7, #88	; 0x58
 8007050:	f000 80a3 	beq.w	800719a <_printf_i+0x16e>
 8007054:	f104 0642 	add.w	r6, r4, #66	; 0x42
 8007058:	f884 7042 	strb.w	r7, [r4, #66]	; 0x42
 800705c:	e03a      	b.n	80070d4 <_printf_i+0xa8>
 800705e:	f1a7 0363 	sub.w	r3, r7, #99	; 0x63
 8007062:	2b15      	cmp	r3, #21
 8007064:	d8f6      	bhi.n	8007054 <_printf_i+0x28>
 8007066:	a001      	add	r0, pc, #4	; (adr r0, 800706c <_printf_i+0x40>)
 8007068:	f850 f023 	ldr.w	pc, [r0, r3, lsl #2]
 800706c:	080070c5 	.word	0x080070c5
 8007070:	080070d9 	.word	0x080070d9
 8007074:	08007055 	.word	0x08007055
 8007078:	08007055 	.word	0x08007055
 800707c:	08007055 	.word	0x08007055
 8007080:	08007055 	.word	0x08007055
 8007084:	080070d9 	.word	0x080070d9
 8007088:	08007055 	.word	0x08007055
 800708c:	08007055 	.word	0x08007055
 8007090:	08007055 	.word	0x08007055
 8007094:	08007055 	.word	0x08007055
 8007098:	080071e5 	.word	0x080071e5
 800709c:	08007109 	.word	0x08007109
 80070a0:	080071c7 	.word	0x080071c7
 80070a4:	08007055 	.word	0x08007055
 80070a8:	08007055 	.word	0x08007055
 80070ac:	08007207 	.word	0x08007207
 80070b0:	08007055 	.word	0x08007055
 80070b4:	08007109 	.word	0x08007109
 80070b8:	08007055 	.word	0x08007055
 80070bc:	08007055 	.word	0x08007055
 80070c0:	080071cf 	.word	0x080071cf
 80070c4:	680b      	ldr	r3, [r1, #0]
 80070c6:	1d1a      	adds	r2, r3, #4
 80070c8:	681b      	ldr	r3, [r3, #0]
 80070ca:	600a      	str	r2, [r1, #0]
 80070cc:	f104 0642 	add.w	r6, r4, #66	; 0x42
 80070d0:	f884 3042 	strb.w	r3, [r4, #66]	; 0x42
 80070d4:	2301      	movs	r3, #1
 80070d6:	e0a3      	b.n	8007220 <_printf_i+0x1f4>
 80070d8:	6825      	ldr	r5, [r4, #0]
 80070da:	6808      	ldr	r0, [r1, #0]
 80070dc:	062e      	lsls	r6, r5, #24
 80070de:	f100 0304 	add.w	r3, r0, #4
 80070e2:	d50a      	bpl.n	80070fa <_printf_i+0xce>
 80070e4:	6805      	ldr	r5, [r0, #0]
 80070e6:	600b      	str	r3, [r1, #0]
 80070e8:	2d00      	cmp	r5, #0
 80070ea:	da03      	bge.n	80070f4 <_printf_i+0xc8>
 80070ec:	232d      	movs	r3, #45	; 0x2d
 80070ee:	426d      	negs	r5, r5
 80070f0:	f884 3043 	strb.w	r3, [r4, #67]	; 0x43
 80070f4:	485e      	ldr	r0, [pc, #376]	; (8007270 <_printf_i+0x244>)
 80070f6:	230a      	movs	r3, #10
 80070f8:	e019      	b.n	800712e <_printf_i+0x102>
 80070fa:	f015 0f40 	tst.w	r5, #64	; 0x40
 80070fe:	6805      	ldr	r5, [r0, #0]
 8007100:	600b      	str	r3, [r1, #0]
 8007102:	bf18      	it	ne
 8007104:	b22d      	sxthne	r5, r5
 8007106:	e7ef      	b.n	80070e8 <_printf_i+0xbc>
 8007108:	680b      	ldr	r3, [r1, #0]
 800710a:	6825      	ldr	r5, [r4, #0]
 800710c:	1d18      	adds	r0, r3, #4
 800710e:	6008      	str	r0, [r1, #0]
 8007110:	0628      	lsls	r0, r5, #24
 8007112:	d501      	bpl.n	8007118 <_printf_i+0xec>
 8007114:	681d      	ldr	r5, [r3, #0]
 8007116:	e002      	b.n	800711e <_printf_i+0xf2>
 8007118:	0669      	lsls	r1, r5, #25
 800711a:	d5fb      	bpl.n	8007114 <_printf_i+0xe8>
 800711c:	881d      	ldrh	r5, [r3, #0]
 800711e:	4854      	ldr	r0, [pc, #336]	; (8007270 <_printf_i+0x244>)
 8007120:	2f6f      	cmp	r7, #111	; 0x6f
 8007122:	bf0c      	ite	eq
 8007124:	2308      	moveq	r3, #8
 8007126:	230a      	movne	r3, #10
 8007128:	2100      	movs	r1, #0
 800712a:	f884 1043 	strb.w	r1, [r4, #67]	; 0x43
 800712e:	6866      	ldr	r6, [r4, #4]
 8007130:	60a6      	str	r6, [r4, #8]
 8007132:	2e00      	cmp	r6, #0
 8007134:	bfa2      	ittt	ge
 8007136:	6821      	ldrge	r1, [r4, #0]
 8007138:	f021 0104 	bicge.w	r1, r1, #4
 800713c:	6021      	strge	r1, [r4, #0]
 800713e:	b90d      	cbnz	r5, 8007144 <_printf_i+0x118>
 8007140:	2e00      	cmp	r6, #0
 8007142:	d04d      	beq.n	80071e0 <_printf_i+0x1b4>
 8007144:	4616      	mov	r6, r2
 8007146:	fbb5 f1f3 	udiv	r1, r5, r3
 800714a:	fb03 5711 	mls	r7, r3, r1, r5
 800714e:	5dc7      	ldrb	r7, [r0, r7]
 8007150:	f806 7d01 	strb.w	r7, [r6, #-1]!
 8007154:	462f      	mov	r7, r5
 8007156:	42bb      	cmp	r3, r7
 8007158:	460d      	mov	r5, r1
 800715a:	d9f4      	bls.n	8007146 <_printf_i+0x11a>
 800715c:	2b08      	cmp	r3, #8
 800715e:	d10b      	bne.n	8007178 <_printf_i+0x14c>
 8007160:	6823      	ldr	r3, [r4, #0]
 8007162:	07df      	lsls	r7, r3, #31
 8007164:	d508      	bpl.n	8007178 <_printf_i+0x14c>
 8007166:	6923      	ldr	r3, [r4, #16]
 8007168:	6861      	ldr	r1, [r4, #4]
 800716a:	4299      	cmp	r1, r3
 800716c:	bfde      	ittt	le
 800716e:	2330      	movle	r3, #48	; 0x30
 8007170:	f806 3c01 	strble.w	r3, [r6, #-1]
 8007174:	f106 36ff 	addle.w	r6, r6, #4294967295
 8007178:	1b92      	subs	r2, r2, r6
 800717a:	6122      	str	r2, [r4, #16]
 800717c:	f8cd a000 	str.w	sl, [sp]
 8007180:	464b      	mov	r3, r9
 8007182:	aa03      	add	r2, sp, #12
 8007184:	4621      	mov	r1, r4
 8007186:	4640      	mov	r0, r8
 8007188:	f7ff fee2 	bl	8006f50 <_printf_common>
 800718c:	3001      	adds	r0, #1
 800718e:	d14c      	bne.n	800722a <_printf_i+0x1fe>
 8007190:	f04f 30ff 	mov.w	r0, #4294967295
 8007194:	b004      	add	sp, #16
 8007196:	e8bd 87f0 	ldmia.w	sp!, {r4, r5, r6, r7, r8, r9, sl, pc}
 800719a:	4835      	ldr	r0, [pc, #212]	; (8007270 <_printf_i+0x244>)
 800719c:	f884 7045 	strb.w	r7, [r4, #69]	; 0x45
 80071a0:	6823      	ldr	r3, [r4, #0]
 80071a2:	680e      	ldr	r6, [r1, #0]
 80071a4:	061f      	lsls	r7, r3, #24
 80071a6:	f856 5b04 	ldr.w	r5, [r6], #4
 80071aa:	600e      	str	r6, [r1, #0]
 80071ac:	d514      	bpl.n	80071d8 <_printf_i+0x1ac>
 80071ae:	07d9      	lsls	r1, r3, #31
 80071b0:	bf44      	itt	mi
 80071b2:	f043 0320 	orrmi.w	r3, r3, #32
 80071b6:	6023      	strmi	r3, [r4, #0]
 80071b8:	b91d      	cbnz	r5, 80071c2 <_printf_i+0x196>
 80071ba:	6823      	ldr	r3, [r4, #0]
 80071bc:	f023 0320 	bic.w	r3, r3, #32
 80071c0:	6023      	str	r3, [r4, #0]
 80071c2:	2310      	movs	r3, #16
 80071c4:	e7b0      	b.n	8007128 <_printf_i+0xfc>
 80071c6:	6823      	ldr	r3, [r4, #0]
 80071c8:	f043 0320 	orr.w	r3, r3, #32
 80071cc:	6023      	str	r3, [r4, #0]
 80071ce:	2378      	movs	r3, #120	; 0x78
 80071d0:	4828      	ldr	r0, [pc, #160]	; (8007274 <_printf_i+0x248>)
 80071d2:	f884 3045 	strb.w	r3, [r4, #69]	; 0x45
 80071d6:	e7e3      	b.n	80071a0 <_printf_i+0x174>
 80071d8:	065e      	lsls	r6, r3, #25
 80071da:	bf48      	it	mi
 80071dc:	b2ad      	uxthmi	r5, r5
 80071de:	e7e6      	b.n	80071ae <_printf_i+0x182>
 80071e0:	4616      	mov	r6, r2
 80071e2:	e7bb      	b.n	800715c <_printf_i+0x130>
 80071e4:	680b      	ldr	r3, [r1, #0]
 80071e6:	6826      	ldr	r6, [r4, #0]
 80071e8:	6960      	ldr	r0, [r4, #20]
 80071ea:	1d1d      	adds	r5, r3, #4
 80071ec:	600d      	str	r5, [r1, #0]
 80071ee:	0635      	lsls	r5, r6, #24
 80071f0:	681b      	ldr	r3, [r3, #0]
 80071f2:	d501      	bpl.n	80071f8 <_printf_i+0x1cc>
 80071f4:	6018      	str	r0, [r3, #0]
 80071f6:	e002      	b.n	80071fe <_printf_i+0x1d2>
 80071f8:	0671      	lsls	r1, r6, #25
 80071fa:	d5fb      	bpl.n	80071f4 <_printf_i+0x1c8>
 80071fc:	8018      	strh	r0, [r3, #0]
 80071fe:	2300      	movs	r3, #0
 8007200:	6123      	str	r3, [r4, #16]
 8007202:	4616      	mov	r6, r2
 8007204:	e7ba      	b.n	800717c <_printf_i+0x150>
 8007206:	680b      	ldr	r3, [r1, #0]
 8007208:	1d1a      	adds	r2, r3, #4
 800720a:	600a      	str	r2, [r1, #0]
 800720c:	681e      	ldr	r6, [r3, #0]
 800720e:	6862      	ldr	r2, [r4, #4]
 8007210:	2100      	movs	r1, #0
 8007212:	4630      	mov	r0, r6
 8007214:	f7f8 ffe4 	bl	80001e0 <memchr>
 8007218:	b108      	cbz	r0, 800721e <_printf_i+0x1f2>
 800721a:	1b80      	subs	r0, r0, r6
 800721c:	6060      	str	r0, [r4, #4]
 800721e:	6863      	ldr	r3, [r4, #4]
 8007220:	6123      	str	r3, [r4, #16]
 8007222:	2300      	movs	r3, #0
 8007224:	f884 3043 	strb.w	r3, [r4, #67]	; 0x43
 8007228:	e7a8      	b.n	800717c <_printf_i+0x150>
 800722a:	6923      	ldr	r3, [r4, #16]
 800722c:	4632      	mov	r2, r6
 800722e:	4649      	mov	r1, r9
 8007230:	4640      	mov	r0, r8
 8007232:	47d0      	blx	sl
 8007234:	3001      	adds	r0, #1
 8007236:	d0ab      	beq.n	8007190 <_printf_i+0x164>
 8007238:	6823      	ldr	r3, [r4, #0]
 800723a:	079b      	lsls	r3, r3, #30
 800723c:	d413      	bmi.n	8007266 <_printf_i+0x23a>
 800723e:	68e0      	ldr	r0, [r4, #12]
 8007240:	9b03      	ldr	r3, [sp, #12]
 8007242:	4298      	cmp	r0, r3
 8007244:	bfb8      	it	lt
 8007246:	4618      	movlt	r0, r3
 8007248:	e7a4      	b.n	8007194 <_printf_i+0x168>
 800724a:	2301      	movs	r3, #1
 800724c:	4632      	mov	r2, r6
 800724e:	4649      	mov	r1, r9
 8007250:	4640      	mov	r0, r8
 8007252:	47d0      	blx	sl
 8007254:	3001      	adds	r0, #1
 8007256:	d09b      	beq.n	8007190 <_printf_i+0x164>
 8007258:	3501      	adds	r5, #1
 800725a:	68e3      	ldr	r3, [r4, #12]
 800725c:	9903      	ldr	r1, [sp, #12]
 800725e:	1a5b      	subs	r3, r3, r1
 8007260:	42ab      	cmp	r3, r5
 8007262:	dcf2      	bgt.n	800724a <_printf_i+0x21e>
 8007264:	e7eb      	b.n	800723e <_printf_i+0x212>
 8007266:	2500      	movs	r5, #0
 8007268:	f104 0619 	add.w	r6, r4, #25
 800726c:	e7f5      	b.n	800725a <_printf_i+0x22e>
 800726e:	bf00      	nop
 8007270:	0800ac9e 	.word	0x0800ac9e
 8007274:	0800acaf 	.word	0x0800acaf

08007278 <iprintf>:
 8007278:	b40f      	push	{r0, r1, r2, r3}
 800727a:	4b0a      	ldr	r3, [pc, #40]	; (80072a4 <iprintf+0x2c>)
 800727c:	b513      	push	{r0, r1, r4, lr}
 800727e:	681c      	ldr	r4, [r3, #0]
 8007280:	b124      	cbz	r4, 800728c <iprintf+0x14>
 8007282:	69a3      	ldr	r3, [r4, #24]
 8007284:	b913      	cbnz	r3, 800728c <iprintf+0x14>
 8007286:	4620      	mov	r0, r4
 8007288:	f001 f900 	bl	800848c <__sinit>
 800728c:	ab05      	add	r3, sp, #20
 800728e:	9a04      	ldr	r2, [sp, #16]
 8007290:	68a1      	ldr	r1, [r4, #8]
 8007292:	9301      	str	r3, [sp, #4]
 8007294:	4620      	mov	r0, r4
 8007296:	f001 ffc9 	bl	800922c <_vfiprintf_r>
 800729a:	b002      	add	sp, #8
 800729c:	e8bd 4010 	ldmia.w	sp!, {r4, lr}
 80072a0:	b004      	add	sp, #16
 80072a2:	4770      	bx	lr
 80072a4:	20000014 	.word	0x20000014

080072a8 <_puts_r>:
 80072a8:	b570      	push	{r4, r5, r6, lr}
 80072aa:	460e      	mov	r6, r1
 80072ac:	4605      	mov	r5, r0
 80072ae:	b118      	cbz	r0, 80072b8 <_puts_r+0x10>
 80072b0:	6983      	ldr	r3, [r0, #24]
 80072b2:	b90b      	cbnz	r3, 80072b8 <_puts_r+0x10>
 80072b4:	f001 f8ea 	bl	800848c <__sinit>
 80072b8:	69ab      	ldr	r3, [r5, #24]
 80072ba:	68ac      	ldr	r4, [r5, #8]
 80072bc:	b913      	cbnz	r3, 80072c4 <_puts_r+0x1c>
 80072be:	4628      	mov	r0, r5
 80072c0:	f001 f8e4 	bl	800848c <__sinit>
 80072c4:	4b2c      	ldr	r3, [pc, #176]	; (8007378 <_puts_r+0xd0>)
 80072c6:	429c      	cmp	r4, r3
 80072c8:	d120      	bne.n	800730c <_puts_r+0x64>
 80072ca:	686c      	ldr	r4, [r5, #4]
 80072cc:	6e63      	ldr	r3, [r4, #100]	; 0x64
 80072ce:	07db      	lsls	r3, r3, #31
 80072d0:	d405      	bmi.n	80072de <_puts_r+0x36>
 80072d2:	89a3      	ldrh	r3, [r4, #12]
 80072d4:	0598      	lsls	r0, r3, #22
 80072d6:	d402      	bmi.n	80072de <_puts_r+0x36>
 80072d8:	6da0      	ldr	r0, [r4, #88]	; 0x58
 80072da:	f001 f97a 	bl	80085d2 <__retarget_lock_acquire_recursive>
 80072de:	89a3      	ldrh	r3, [r4, #12]
 80072e0:	0719      	lsls	r1, r3, #28
 80072e2:	d51d      	bpl.n	8007320 <_puts_r+0x78>
 80072e4:	6923      	ldr	r3, [r4, #16]
 80072e6:	b1db      	cbz	r3, 8007320 <_puts_r+0x78>
 80072e8:	3e01      	subs	r6, #1
 80072ea:	68a3      	ldr	r3, [r4, #8]
 80072ec:	f816 1f01 	ldrb.w	r1, [r6, #1]!
 80072f0:	3b01      	subs	r3, #1
 80072f2:	60a3      	str	r3, [r4, #8]
 80072f4:	bb39      	cbnz	r1, 8007346 <_puts_r+0x9e>
 80072f6:	2b00      	cmp	r3, #0
 80072f8:	da38      	bge.n	800736c <_puts_r+0xc4>
 80072fa:	4622      	mov	r2, r4
 80072fc:	210a      	movs	r1, #10
 80072fe:	4628      	mov	r0, r5
 8007300:	f000 f870 	bl	80073e4 <__swbuf_r>
 8007304:	3001      	adds	r0, #1
 8007306:	d011      	beq.n	800732c <_puts_r+0x84>
 8007308:	250a      	movs	r5, #10
 800730a:	e011      	b.n	8007330 <_puts_r+0x88>
 800730c:	4b1b      	ldr	r3, [pc, #108]	; (800737c <_puts_r+0xd4>)
 800730e:	429c      	cmp	r4, r3
 8007310:	d101      	bne.n	8007316 <_puts_r+0x6e>
 8007312:	68ac      	ldr	r4, [r5, #8]
 8007314:	e7da      	b.n	80072cc <_puts_r+0x24>
 8007316:	4b1a      	ldr	r3, [pc, #104]	; (8007380 <_puts_r+0xd8>)
 8007318:	429c      	cmp	r4, r3
 800731a:	bf08      	it	eq
 800731c:	68ec      	ldreq	r4, [r5, #12]
 800731e:	e7d5      	b.n	80072cc <_puts_r+0x24>
 8007320:	4621      	mov	r1, r4
 8007322:	4628      	mov	r0, r5
 8007324:	f000 f8b0 	bl	8007488 <__swsetup_r>
 8007328:	2800      	cmp	r0, #0
 800732a:	d0dd      	beq.n	80072e8 <_puts_r+0x40>
 800732c:	f04f 35ff 	mov.w	r5, #4294967295
 8007330:	6e63      	ldr	r3, [r4, #100]	; 0x64
 8007332:	07da      	lsls	r2, r3, #31
 8007334:	d405      	bmi.n	8007342 <_puts_r+0x9a>
 8007336:	89a3      	ldrh	r3, [r4, #12]
 8007338:	059b      	lsls	r3, r3, #22
 800733a:	d402      	bmi.n	8007342 <_puts_r+0x9a>
 800733c:	6da0      	ldr	r0, [r4, #88]	; 0x58
 800733e:	f001 f949 	bl	80085d4 <__retarget_lock_release_recursive>
 8007342:	4628      	mov	r0, r5
 8007344:	bd70      	pop	{r4, r5, r6, pc}
 8007346:	2b00      	cmp	r3, #0
 8007348:	da04      	bge.n	8007354 <_puts_r+0xac>
 800734a:	69a2      	ldr	r2, [r4, #24]
 800734c:	429a      	cmp	r2, r3
 800734e:	dc06      	bgt.n	800735e <_puts_r+0xb6>
 8007350:	290a      	cmp	r1, #10
 8007352:	d004      	beq.n	800735e <_puts_r+0xb6>
 8007354:	6823      	ldr	r3, [r4, #0]
 8007356:	1c5a      	adds	r2, r3, #1
 8007358:	6022      	str	r2, [r4, #0]
 800735a:	7019      	strb	r1, [r3, #0]
 800735c:	e7c5      	b.n	80072ea <_puts_r+0x42>
 800735e:	4622      	mov	r2, r4
 8007360:	4628      	mov	r0, r5
 8007362:	f000 f83f 	bl	80073e4 <__swbuf_r>
 8007366:	3001      	adds	r0, #1
 8007368:	d1bf      	bne.n	80072ea <_puts_r+0x42>
 800736a:	e7df      	b.n	800732c <_puts_r+0x84>
 800736c:	6823      	ldr	r3, [r4, #0]
 800736e:	250a      	movs	r5, #10
 8007370:	1c5a      	adds	r2, r3, #1
 8007372:	6022      	str	r2, [r4, #0]
 8007374:	701d      	strb	r5, [r3, #0]
 8007376:	e7db      	b.n	8007330 <_puts_r+0x88>
 8007378:	0800ad74 	.word	0x0800ad74
 800737c:	0800ad94 	.word	0x0800ad94
 8007380:	0800ad54 	.word	0x0800ad54

08007384 <puts>:
 8007384:	4b02      	ldr	r3, [pc, #8]	; (8007390 <puts+0xc>)
 8007386:	4601      	mov	r1, r0
 8007388:	6818      	ldr	r0, [r3, #0]
 800738a:	f7ff bf8d 	b.w	80072a8 <_puts_r>
 800738e:	bf00      	nop
 8007390:	20000014 	.word	0x20000014

08007394 <siprintf>:
 8007394:	b40e      	push	{r1, r2, r3}
 8007396:	b500      	push	{lr}
 8007398:	b09c      	sub	sp, #112	; 0x70
 800739a:	ab1d      	add	r3, sp, #116	; 0x74
 800739c:	9002      	str	r0, [sp, #8]
 800739e:	9006      	str	r0, [sp, #24]
 80073a0:	f06f 4100 	mvn.w	r1, #2147483648	; 0x80000000
 80073a4:	4809      	ldr	r0, [pc, #36]	; (80073cc <siprintf+0x38>)
 80073a6:	9107      	str	r1, [sp, #28]
 80073a8:	9104      	str	r1, [sp, #16]
 80073aa:	4909      	ldr	r1, [pc, #36]	; (80073d0 <siprintf+0x3c>)
 80073ac:	f853 2b04 	ldr.w	r2, [r3], #4
 80073b0:	9105      	str	r1, [sp, #20]
 80073b2:	6800      	ldr	r0, [r0, #0]
 80073b4:	9301      	str	r3, [sp, #4]
 80073b6:	a902      	add	r1, sp, #8
 80073b8:	f001 fe0e 	bl	8008fd8 <_svfiprintf_r>
 80073bc:	9b02      	ldr	r3, [sp, #8]
 80073be:	2200      	movs	r2, #0
 80073c0:	701a      	strb	r2, [r3, #0]
 80073c2:	b01c      	add	sp, #112	; 0x70
 80073c4:	f85d eb04 	ldr.w	lr, [sp], #4
 80073c8:	b003      	add	sp, #12
 80073ca:	4770      	bx	lr
 80073cc:	20000014 	.word	0x20000014
 80073d0:	ffff0208 	.word	0xffff0208

080073d4 <strcpy>:
 80073d4:	4603      	mov	r3, r0
 80073d6:	f811 2b01 	ldrb.w	r2, [r1], #1
 80073da:	f803 2b01 	strb.w	r2, [r3], #1
 80073de:	2a00      	cmp	r2, #0
 80073e0:	d1f9      	bne.n	80073d6 <strcpy+0x2>
 80073e2:	4770      	bx	lr

080073e4 <__swbuf_r>:
 80073e4:	b5f8      	push	{r3, r4, r5, r6, r7, lr}
 80073e6:	460e      	mov	r6, r1
 80073e8:	4614      	mov	r4, r2
 80073ea:	4605      	mov	r5, r0
 80073ec:	b118      	cbz	r0, 80073f6 <__swbuf_r+0x12>
 80073ee:	6983      	ldr	r3, [r0, #24]
 80073f0:	b90b      	cbnz	r3, 80073f6 <__swbuf_r+0x12>
 80073f2:	f001 f84b 	bl	800848c <__sinit>
 80073f6:	4b21      	ldr	r3, [pc, #132]	; (800747c <__swbuf_r+0x98>)
 80073f8:	429c      	cmp	r4, r3
 80073fa:	d12b      	bne.n	8007454 <__swbuf_r+0x70>
 80073fc:	686c      	ldr	r4, [r5, #4]
 80073fe:	69a3      	ldr	r3, [r4, #24]
 8007400:	60a3      	str	r3, [r4, #8]
 8007402:	89a3      	ldrh	r3, [r4, #12]
 8007404:	071a      	lsls	r2, r3, #28
 8007406:	d52f      	bpl.n	8007468 <__swbuf_r+0x84>
 8007408:	6923      	ldr	r3, [r4, #16]
 800740a:	b36b      	cbz	r3, 8007468 <__swbuf_r+0x84>
 800740c:	6923      	ldr	r3, [r4, #16]
 800740e:	6820      	ldr	r0, [r4, #0]
 8007410:	1ac0      	subs	r0, r0, r3
 8007412:	6963      	ldr	r3, [r4, #20]
 8007414:	b2f6      	uxtb	r6, r6
 8007416:	4283      	cmp	r3, r0
 8007418:	4637      	mov	r7, r6
 800741a:	dc04      	bgt.n	8007426 <__swbuf_r+0x42>
 800741c:	4621      	mov	r1, r4
 800741e:	4628      	mov	r0, r5
 8007420:	f000 ffa0 	bl	8008364 <_fflush_r>
 8007424:	bb30      	cbnz	r0, 8007474 <__swbuf_r+0x90>
 8007426:	68a3      	ldr	r3, [r4, #8]
 8007428:	3b01      	subs	r3, #1
 800742a:	60a3      	str	r3, [r4, #8]
 800742c:	6823      	ldr	r3, [r4, #0]
 800742e:	1c5a      	adds	r2, r3, #1
 8007430:	6022      	str	r2, [r4, #0]
 8007432:	701e      	strb	r6, [r3, #0]
 8007434:	6963      	ldr	r3, [r4, #20]
 8007436:	3001      	adds	r0, #1
 8007438:	4283      	cmp	r3, r0
 800743a:	d004      	beq.n	8007446 <__swbuf_r+0x62>
 800743c:	89a3      	ldrh	r3, [r4, #12]
 800743e:	07db      	lsls	r3, r3, #31
 8007440:	d506      	bpl.n	8007450 <__swbuf_r+0x6c>
 8007442:	2e0a      	cmp	r6, #10
 8007444:	d104      	bne.n	8007450 <__swbuf_r+0x6c>
 8007446:	4621      	mov	r1, r4
 8007448:	4628      	mov	r0, r5
 800744a:	f000 ff8b 	bl	8008364 <_fflush_r>
 800744e:	b988      	cbnz	r0, 8007474 <__swbuf_r+0x90>
 8007450:	4638      	mov	r0, r7
 8007452:	bdf8      	pop	{r3, r4, r5, r6, r7, pc}
 8007454:	4b0a      	ldr	r3, [pc, #40]	; (8007480 <__swbuf_r+0x9c>)
 8007456:	429c      	cmp	r4, r3
 8007458:	d101      	bne.n	800745e <__swbuf_r+0x7a>
 800745a:	68ac      	ldr	r4, [r5, #8]
 800745c:	e7cf      	b.n	80073fe <__swbuf_r+0x1a>
 800745e:	4b09      	ldr	r3, [pc, #36]	; (8007484 <__swbuf_r+0xa0>)
 8007460:	429c      	cmp	r4, r3
 8007462:	bf08      	it	eq
 8007464:	68ec      	ldreq	r4, [r5, #12]
 8007466:	e7ca      	b.n	80073fe <__swbuf_r+0x1a>
 8007468:	4621      	mov	r1, r4
 800746a:	4628      	mov	r0, r5
 800746c:	f000 f80c 	bl	8007488 <__swsetup_r>
 8007470:	2800      	cmp	r0, #0
 8007472:	d0cb      	beq.n	800740c <__swbuf_r+0x28>
 8007474:	f04f 37ff 	mov.w	r7, #4294967295
 8007478:	e7ea      	b.n	8007450 <__swbuf_r+0x6c>
 800747a:	bf00      	nop
 800747c:	0800ad74 	.word	0x0800ad74
 8007480:	0800ad94 	.word	0x0800ad94
 8007484:	0800ad54 	.word	0x0800ad54

08007488 <__swsetup_r>:
 8007488:	4b32      	ldr	r3, [pc, #200]	; (8007554 <__swsetup_r+0xcc>)
 800748a:	b570      	push	{r4, r5, r6, lr}
 800748c:	681d      	ldr	r5, [r3, #0]
 800748e:	4606      	mov	r6, r0
 8007490:	460c      	mov	r4, r1
 8007492:	b125      	cbz	r5, 800749e <__swsetup_r+0x16>
 8007494:	69ab      	ldr	r3, [r5, #24]
 8007496:	b913      	cbnz	r3, 800749e <__swsetup_r+0x16>
 8007498:	4628      	mov	r0, r5
 800749a:	f000 fff7 	bl	800848c <__sinit>
 800749e:	4b2e      	ldr	r3, [pc, #184]	; (8007558 <__swsetup_r+0xd0>)
 80074a0:	429c      	cmp	r4, r3
 80074a2:	d10f      	bne.n	80074c4 <__swsetup_r+0x3c>
 80074a4:	686c      	ldr	r4, [r5, #4]
 80074a6:	89a3      	ldrh	r3, [r4, #12]
 80074a8:	f9b4 200c 	ldrsh.w	r2, [r4, #12]
 80074ac:	0719      	lsls	r1, r3, #28
 80074ae:	d42c      	bmi.n	800750a <__swsetup_r+0x82>
 80074b0:	06dd      	lsls	r5, r3, #27
 80074b2:	d411      	bmi.n	80074d8 <__swsetup_r+0x50>
 80074b4:	2309      	movs	r3, #9
 80074b6:	6033      	str	r3, [r6, #0]
 80074b8:	f042 0340 	orr.w	r3, r2, #64	; 0x40
 80074bc:	81a3      	strh	r3, [r4, #12]
 80074be:	f04f 30ff 	mov.w	r0, #4294967295
 80074c2:	e03e      	b.n	8007542 <__swsetup_r+0xba>
 80074c4:	4b25      	ldr	r3, [pc, #148]	; (800755c <__swsetup_r+0xd4>)
 80074c6:	429c      	cmp	r4, r3
 80074c8:	d101      	bne.n	80074ce <__swsetup_r+0x46>
 80074ca:	68ac      	ldr	r4, [r5, #8]
 80074cc:	e7eb      	b.n	80074a6 <__swsetup_r+0x1e>
 80074ce:	4b24      	ldr	r3, [pc, #144]	; (8007560 <__swsetup_r+0xd8>)
 80074d0:	429c      	cmp	r4, r3
 80074d2:	bf08      	it	eq
 80074d4:	68ec      	ldreq	r4, [r5, #12]
 80074d6:	e7e6      	b.n	80074a6 <__swsetup_r+0x1e>
 80074d8:	0758      	lsls	r0, r3, #29
 80074da:	d512      	bpl.n	8007502 <__swsetup_r+0x7a>
 80074dc:	6b61      	ldr	r1, [r4, #52]	; 0x34
 80074de:	b141      	cbz	r1, 80074f2 <__swsetup_r+0x6a>
 80074e0:	f104 0344 	add.w	r3, r4, #68	; 0x44
 80074e4:	4299      	cmp	r1, r3
 80074e6:	d002      	beq.n	80074ee <__swsetup_r+0x66>
 80074e8:	4630      	mov	r0, r6
 80074ea:	f001 fc6f 	bl	8008dcc <_free_r>
 80074ee:	2300      	movs	r3, #0
 80074f0:	6363      	str	r3, [r4, #52]	; 0x34
 80074f2:	89a3      	ldrh	r3, [r4, #12]
 80074f4:	f023 0324 	bic.w	r3, r3, #36	; 0x24
 80074f8:	81a3      	strh	r3, [r4, #12]
 80074fa:	2300      	movs	r3, #0
 80074fc:	6063      	str	r3, [r4, #4]
 80074fe:	6923      	ldr	r3, [r4, #16]
 8007500:	6023      	str	r3, [r4, #0]
 8007502:	89a3      	ldrh	r3, [r4, #12]
 8007504:	f043 0308 	orr.w	r3, r3, #8
 8007508:	81a3      	strh	r3, [r4, #12]
 800750a:	6923      	ldr	r3, [r4, #16]
 800750c:	b94b      	cbnz	r3, 8007522 <__swsetup_r+0x9a>
 800750e:	89a3      	ldrh	r3, [r4, #12]
 8007510:	f403 7320 	and.w	r3, r3, #640	; 0x280
 8007514:	f5b3 7f00 	cmp.w	r3, #512	; 0x200
 8007518:	d003      	beq.n	8007522 <__swsetup_r+0x9a>
 800751a:	4621      	mov	r1, r4
 800751c:	4630      	mov	r0, r6
 800751e:	f001 f87f 	bl	8008620 <__smakebuf_r>
 8007522:	89a0      	ldrh	r0, [r4, #12]
 8007524:	f9b4 200c 	ldrsh.w	r2, [r4, #12]
 8007528:	f010 0301 	ands.w	r3, r0, #1
 800752c:	d00a      	beq.n	8007544 <__swsetup_r+0xbc>
 800752e:	2300      	movs	r3, #0
 8007530:	60a3      	str	r3, [r4, #8]
 8007532:	6963      	ldr	r3, [r4, #20]
 8007534:	425b      	negs	r3, r3
 8007536:	61a3      	str	r3, [r4, #24]
 8007538:	6923      	ldr	r3, [r4, #16]
 800753a:	b943      	cbnz	r3, 800754e <__swsetup_r+0xc6>
 800753c:	f010 0080 	ands.w	r0, r0, #128	; 0x80
 8007540:	d1ba      	bne.n	80074b8 <__swsetup_r+0x30>
 8007542:	bd70      	pop	{r4, r5, r6, pc}
 8007544:	0781      	lsls	r1, r0, #30
 8007546:	bf58      	it	pl
 8007548:	6963      	ldrpl	r3, [r4, #20]
 800754a:	60a3      	str	r3, [r4, #8]
 800754c:	e7f4      	b.n	8007538 <__swsetup_r+0xb0>
 800754e:	2000      	movs	r0, #0
 8007550:	e7f7      	b.n	8007542 <__swsetup_r+0xba>
 8007552:	bf00      	nop
 8007554:	20000014 	.word	0x20000014
 8007558:	0800ad74 	.word	0x0800ad74
 800755c:	0800ad94 	.word	0x0800ad94
 8007560:	0800ad54 	.word	0x0800ad54

08007564 <quorem>:
 8007564:	e92d 4ff7 	stmdb	sp!, {r0, r1, r2, r4, r5, r6, r7, r8, r9, sl, fp, lr}
 8007568:	6903      	ldr	r3, [r0, #16]
 800756a:	690c      	ldr	r4, [r1, #16]
 800756c:	42a3      	cmp	r3, r4
 800756e:	4607      	mov	r7, r0
 8007570:	f2c0 8081 	blt.w	8007676 <quorem+0x112>
 8007574:	3c01      	subs	r4, #1
 8007576:	f101 0814 	add.w	r8, r1, #20
 800757a:	f100 0514 	add.w	r5, r0, #20
 800757e:	eb05 0384 	add.w	r3, r5, r4, lsl #2
 8007582:	9301      	str	r3, [sp, #4]
 8007584:	f858 3024 	ldr.w	r3, [r8, r4, lsl #2]
 8007588:	f855 2024 	ldr.w	r2, [r5, r4, lsl #2]
 800758c:	3301      	adds	r3, #1
 800758e:	429a      	cmp	r2, r3
 8007590:	ea4f 0b84 	mov.w	fp, r4, lsl #2
 8007594:	eb08 0984 	add.w	r9, r8, r4, lsl #2
 8007598:	fbb2 f6f3 	udiv	r6, r2, r3
 800759c:	d331      	bcc.n	8007602 <quorem+0x9e>
 800759e:	f04f 0e00 	mov.w	lr, #0
 80075a2:	4640      	mov	r0, r8
 80075a4:	46ac      	mov	ip, r5
 80075a6:	46f2      	mov	sl, lr
 80075a8:	f850 2b04 	ldr.w	r2, [r0], #4
 80075ac:	b293      	uxth	r3, r2
 80075ae:	fb06 e303 	mla	r3, r6, r3, lr
 80075b2:	ea4f 4e13 	mov.w	lr, r3, lsr #16
 80075b6:	b29b      	uxth	r3, r3
 80075b8:	ebaa 0303 	sub.w	r3, sl, r3
 80075bc:	0c12      	lsrs	r2, r2, #16
 80075be:	f8dc a000 	ldr.w	sl, [ip]
 80075c2:	fb06 e202 	mla	r2, r6, r2, lr
 80075c6:	fa13 f38a 	uxtah	r3, r3, sl
 80075ca:	ea4f 4e12 	mov.w	lr, r2, lsr #16
 80075ce:	fa1f fa82 	uxth.w	sl, r2
 80075d2:	f8dc 2000 	ldr.w	r2, [ip]
 80075d6:	ebca 4212 	rsb	r2, sl, r2, lsr #16
 80075da:	eb02 4223 	add.w	r2, r2, r3, asr #16
 80075de:	b29b      	uxth	r3, r3
 80075e0:	ea43 4302 	orr.w	r3, r3, r2, lsl #16
 80075e4:	4581      	cmp	r9, r0
 80075e6:	f84c 3b04 	str.w	r3, [ip], #4
 80075ea:	ea4f 4a22 	mov.w	sl, r2, asr #16
 80075ee:	d2db      	bcs.n	80075a8 <quorem+0x44>
 80075f0:	f855 300b 	ldr.w	r3, [r5, fp]
 80075f4:	b92b      	cbnz	r3, 8007602 <quorem+0x9e>
 80075f6:	9b01      	ldr	r3, [sp, #4]
 80075f8:	3b04      	subs	r3, #4
 80075fa:	429d      	cmp	r5, r3
 80075fc:	461a      	mov	r2, r3
 80075fe:	d32e      	bcc.n	800765e <quorem+0xfa>
 8007600:	613c      	str	r4, [r7, #16]
 8007602:	4638      	mov	r0, r7
 8007604:	f001 fad2 	bl	8008bac <__mcmp>
 8007608:	2800      	cmp	r0, #0
 800760a:	db24      	blt.n	8007656 <quorem+0xf2>
 800760c:	3601      	adds	r6, #1
 800760e:	4628      	mov	r0, r5
 8007610:	f04f 0c00 	mov.w	ip, #0
 8007614:	f858 2b04 	ldr.w	r2, [r8], #4
 8007618:	f8d0 e000 	ldr.w	lr, [r0]
 800761c:	b293      	uxth	r3, r2
 800761e:	ebac 0303 	sub.w	r3, ip, r3
 8007622:	0c12      	lsrs	r2, r2, #16
 8007624:	fa13 f38e 	uxtah	r3, r3, lr
 8007628:	ebc2 421e 	rsb	r2, r2, lr, lsr #16
 800762c:	eb02 4223 	add.w	r2, r2, r3, asr #16
 8007630:	b29b      	uxth	r3, r3
 8007632:	ea43 4302 	orr.w	r3, r3, r2, lsl #16
 8007636:	45c1      	cmp	r9, r8
 8007638:	f840 3b04 	str.w	r3, [r0], #4
 800763c:	ea4f 4c22 	mov.w	ip, r2, asr #16
 8007640:	d2e8      	bcs.n	8007614 <quorem+0xb0>
 8007642:	f855 2024 	ldr.w	r2, [r5, r4, lsl #2]
 8007646:	eb05 0384 	add.w	r3, r5, r4, lsl #2
 800764a:	b922      	cbnz	r2, 8007656 <quorem+0xf2>
 800764c:	3b04      	subs	r3, #4
 800764e:	429d      	cmp	r5, r3
 8007650:	461a      	mov	r2, r3
 8007652:	d30a      	bcc.n	800766a <quorem+0x106>
 8007654:	613c      	str	r4, [r7, #16]
 8007656:	4630      	mov	r0, r6
 8007658:	b003      	add	sp, #12
 800765a:	e8bd 8ff0 	ldmia.w	sp!, {r4, r5, r6, r7, r8, r9, sl, fp, pc}
 800765e:	6812      	ldr	r2, [r2, #0]
 8007660:	3b04      	subs	r3, #4
 8007662:	2a00      	cmp	r2, #0
 8007664:	d1cc      	bne.n	8007600 <quorem+0x9c>
 8007666:	3c01      	subs	r4, #1
 8007668:	e7c7      	b.n	80075fa <quorem+0x96>
 800766a:	6812      	ldr	r2, [r2, #0]
 800766c:	3b04      	subs	r3, #4
 800766e:	2a00      	cmp	r2, #0
 8007670:	d1f0      	bne.n	8007654 <quorem+0xf0>
 8007672:	3c01      	subs	r4, #1
 8007674:	e7eb      	b.n	800764e <quorem+0xea>
 8007676:	2000      	movs	r0, #0
 8007678:	e7ee      	b.n	8007658 <quorem+0xf4>
 800767a:	0000      	movs	r0, r0
 800767c:	0000      	movs	r0, r0
	...

08007680 <_dtoa_r>:
 8007680:	e92d 4ff0 	stmdb	sp!, {r4, r5, r6, r7, r8, r9, sl, fp, lr}
 8007684:	ed2d 8b02 	vpush	{d8}
 8007688:	ec57 6b10 	vmov	r6, r7, d0
 800768c:	b095      	sub	sp, #84	; 0x54
 800768e:	6a45      	ldr	r5, [r0, #36]	; 0x24
 8007690:	f8dd 8080 	ldr.w	r8, [sp, #128]	; 0x80
 8007694:	9105      	str	r1, [sp, #20]
 8007696:	e9cd 6702 	strd	r6, r7, [sp, #8]
 800769a:	4604      	mov	r4, r0
 800769c:	9209      	str	r2, [sp, #36]	; 0x24
 800769e:	930f      	str	r3, [sp, #60]	; 0x3c
 80076a0:	b975      	cbnz	r5, 80076c0 <_dtoa_r+0x40>
 80076a2:	2010      	movs	r0, #16
 80076a4:	f000 fffc 	bl	80086a0 <malloc>
 80076a8:	4602      	mov	r2, r0
 80076aa:	6260      	str	r0, [r4, #36]	; 0x24
 80076ac:	b920      	cbnz	r0, 80076b8 <_dtoa_r+0x38>
 80076ae:	4bb2      	ldr	r3, [pc, #712]	; (8007978 <_dtoa_r+0x2f8>)
 80076b0:	21ea      	movs	r1, #234	; 0xea
 80076b2:	48b2      	ldr	r0, [pc, #712]	; (800797c <_dtoa_r+0x2fc>)
 80076b4:	f001 ff50 	bl	8009558 <__assert_func>
 80076b8:	e9c0 5501 	strd	r5, r5, [r0, #4]
 80076bc:	6005      	str	r5, [r0, #0]
 80076be:	60c5      	str	r5, [r0, #12]
 80076c0:	6a63      	ldr	r3, [r4, #36]	; 0x24
 80076c2:	6819      	ldr	r1, [r3, #0]
 80076c4:	b151      	cbz	r1, 80076dc <_dtoa_r+0x5c>
 80076c6:	685a      	ldr	r2, [r3, #4]
 80076c8:	604a      	str	r2, [r1, #4]
 80076ca:	2301      	movs	r3, #1
 80076cc:	4093      	lsls	r3, r2
 80076ce:	608b      	str	r3, [r1, #8]
 80076d0:	4620      	mov	r0, r4
 80076d2:	f001 f82d 	bl	8008730 <_Bfree>
 80076d6:	6a63      	ldr	r3, [r4, #36]	; 0x24
 80076d8:	2200      	movs	r2, #0
 80076da:	601a      	str	r2, [r3, #0]
 80076dc:	1e3b      	subs	r3, r7, #0
 80076de:	bfb9      	ittee	lt
 80076e0:	f023 4300 	biclt.w	r3, r3, #2147483648	; 0x80000000
 80076e4:	9303      	strlt	r3, [sp, #12]
 80076e6:	2300      	movge	r3, #0
 80076e8:	f8c8 3000 	strge.w	r3, [r8]
 80076ec:	f8dd 900c 	ldr.w	r9, [sp, #12]
 80076f0:	4ba3      	ldr	r3, [pc, #652]	; (8007980 <_dtoa_r+0x300>)
 80076f2:	bfbc      	itt	lt
 80076f4:	2201      	movlt	r2, #1
 80076f6:	f8c8 2000 	strlt.w	r2, [r8]
 80076fa:	ea33 0309 	bics.w	r3, r3, r9
 80076fe:	d11b      	bne.n	8007738 <_dtoa_r+0xb8>
 8007700:	9a0f      	ldr	r2, [sp, #60]	; 0x3c
 8007702:	f242 730f 	movw	r3, #9999	; 0x270f
 8007706:	6013      	str	r3, [r2, #0]
 8007708:	f3c9 0313 	ubfx	r3, r9, #0, #20
 800770c:	4333      	orrs	r3, r6
 800770e:	f000 857a 	beq.w	8008206 <_dtoa_r+0xb86>
 8007712:	9b21      	ldr	r3, [sp, #132]	; 0x84
 8007714:	b963      	cbnz	r3, 8007730 <_dtoa_r+0xb0>
 8007716:	4b9b      	ldr	r3, [pc, #620]	; (8007984 <_dtoa_r+0x304>)
 8007718:	e024      	b.n	8007764 <_dtoa_r+0xe4>
 800771a:	4b9b      	ldr	r3, [pc, #620]	; (8007988 <_dtoa_r+0x308>)
 800771c:	9300      	str	r3, [sp, #0]
 800771e:	3308      	adds	r3, #8
 8007720:	9a21      	ldr	r2, [sp, #132]	; 0x84
 8007722:	6013      	str	r3, [r2, #0]
 8007724:	9800      	ldr	r0, [sp, #0]
 8007726:	b015      	add	sp, #84	; 0x54
 8007728:	ecbd 8b02 	vpop	{d8}
 800772c:	e8bd 8ff0 	ldmia.w	sp!, {r4, r5, r6, r7, r8, r9, sl, fp, pc}
 8007730:	4b94      	ldr	r3, [pc, #592]	; (8007984 <_dtoa_r+0x304>)
 8007732:	9300      	str	r3, [sp, #0]
 8007734:	3303      	adds	r3, #3
 8007736:	e7f3      	b.n	8007720 <_dtoa_r+0xa0>
 8007738:	ed9d 7b02 	vldr	d7, [sp, #8]
 800773c:	2200      	movs	r2, #0
 800773e:	ec51 0b17 	vmov	r0, r1, d7
 8007742:	2300      	movs	r3, #0
 8007744:	ed8d 7b0a 	vstr	d7, [sp, #40]	; 0x28
 8007748:	f7f9 f9be 	bl	8000ac8 <__aeabi_dcmpeq>
 800774c:	4680      	mov	r8, r0
 800774e:	b158      	cbz	r0, 8007768 <_dtoa_r+0xe8>
 8007750:	9a0f      	ldr	r2, [sp, #60]	; 0x3c
 8007752:	2301      	movs	r3, #1
 8007754:	6013      	str	r3, [r2, #0]
 8007756:	9b21      	ldr	r3, [sp, #132]	; 0x84
 8007758:	2b00      	cmp	r3, #0
 800775a:	f000 8551 	beq.w	8008200 <_dtoa_r+0xb80>
 800775e:	488b      	ldr	r0, [pc, #556]	; (800798c <_dtoa_r+0x30c>)
 8007760:	6018      	str	r0, [r3, #0]
 8007762:	1e43      	subs	r3, r0, #1
 8007764:	9300      	str	r3, [sp, #0]
 8007766:	e7dd      	b.n	8007724 <_dtoa_r+0xa4>
 8007768:	ed9d 0b0a 	vldr	d0, [sp, #40]	; 0x28
 800776c:	aa12      	add	r2, sp, #72	; 0x48
 800776e:	a913      	add	r1, sp, #76	; 0x4c
 8007770:	4620      	mov	r0, r4
 8007772:	f001 fabf 	bl	8008cf4 <__d2b>
 8007776:	f3c9 550a 	ubfx	r5, r9, #20, #11
 800777a:	4683      	mov	fp, r0
 800777c:	2d00      	cmp	r5, #0
 800777e:	d07c      	beq.n	800787a <_dtoa_r+0x1fa>
 8007780:	9b0b      	ldr	r3, [sp, #44]	; 0x2c
 8007782:	f8cd 8040 	str.w	r8, [sp, #64]	; 0x40
 8007786:	f3c3 0313 	ubfx	r3, r3, #0, #20
 800778a:	e9dd 670a 	ldrd	r6, r7, [sp, #40]	; 0x28
 800778e:	f043 577f 	orr.w	r7, r3, #1069547520	; 0x3fc00000
 8007792:	f447 1740 	orr.w	r7, r7, #3145728	; 0x300000
 8007796:	f2a5 35ff 	subw	r5, r5, #1023	; 0x3ff
 800779a:	4b7d      	ldr	r3, [pc, #500]	; (8007990 <_dtoa_r+0x310>)
 800779c:	2200      	movs	r2, #0
 800779e:	4630      	mov	r0, r6
 80077a0:	4639      	mov	r1, r7
 80077a2:	f7f8 fd71 	bl	8000288 <__aeabi_dsub>
 80077a6:	a36e      	add	r3, pc, #440	; (adr r3, 8007960 <_dtoa_r+0x2e0>)
 80077a8:	e9d3 2300 	ldrd	r2, r3, [r3]
 80077ac:	f7f8 ff24 	bl	80005f8 <__aeabi_dmul>
 80077b0:	a36d      	add	r3, pc, #436	; (adr r3, 8007968 <_dtoa_r+0x2e8>)
 80077b2:	e9d3 2300 	ldrd	r2, r3, [r3]
 80077b6:	f7f8 fd69 	bl	800028c <__adddf3>
 80077ba:	4606      	mov	r6, r0
 80077bc:	4628      	mov	r0, r5
 80077be:	460f      	mov	r7, r1
 80077c0:	f7f8 feb0 	bl	8000524 <__aeabi_i2d>
 80077c4:	a36a      	add	r3, pc, #424	; (adr r3, 8007970 <_dtoa_r+0x2f0>)
 80077c6:	e9d3 2300 	ldrd	r2, r3, [r3]
 80077ca:	f7f8 ff15 	bl	80005f8 <__aeabi_dmul>
 80077ce:	4602      	mov	r2, r0
 80077d0:	460b      	mov	r3, r1
 80077d2:	4630      	mov	r0, r6
 80077d4:	4639      	mov	r1, r7
 80077d6:	f7f8 fd59 	bl	800028c <__adddf3>
 80077da:	4606      	mov	r6, r0
 80077dc:	460f      	mov	r7, r1
 80077de:	f7f9 f9bb 	bl	8000b58 <__aeabi_d2iz>
 80077e2:	2200      	movs	r2, #0
 80077e4:	4682      	mov	sl, r0
 80077e6:	2300      	movs	r3, #0
 80077e8:	4630      	mov	r0, r6
 80077ea:	4639      	mov	r1, r7
 80077ec:	f7f9 f976 	bl	8000adc <__aeabi_dcmplt>
 80077f0:	b148      	cbz	r0, 8007806 <_dtoa_r+0x186>
 80077f2:	4650      	mov	r0, sl
 80077f4:	f7f8 fe96 	bl	8000524 <__aeabi_i2d>
 80077f8:	4632      	mov	r2, r6
 80077fa:	463b      	mov	r3, r7
 80077fc:	f7f9 f964 	bl	8000ac8 <__aeabi_dcmpeq>
 8007800:	b908      	cbnz	r0, 8007806 <_dtoa_r+0x186>
 8007802:	f10a 3aff 	add.w	sl, sl, #4294967295
 8007806:	f1ba 0f16 	cmp.w	sl, #22
 800780a:	d854      	bhi.n	80078b6 <_dtoa_r+0x236>
 800780c:	4b61      	ldr	r3, [pc, #388]	; (8007994 <_dtoa_r+0x314>)
 800780e:	eb03 03ca 	add.w	r3, r3, sl, lsl #3
 8007812:	e9d3 2300 	ldrd	r2, r3, [r3]
 8007816:	e9dd 010a 	ldrd	r0, r1, [sp, #40]	; 0x28
 800781a:	f7f9 f95f 	bl	8000adc <__aeabi_dcmplt>
 800781e:	2800      	cmp	r0, #0
 8007820:	d04b      	beq.n	80078ba <_dtoa_r+0x23a>
 8007822:	f10a 3aff 	add.w	sl, sl, #4294967295
 8007826:	2300      	movs	r3, #0
 8007828:	930e      	str	r3, [sp, #56]	; 0x38
 800782a:	9b12      	ldr	r3, [sp, #72]	; 0x48
 800782c:	1b5d      	subs	r5, r3, r5
 800782e:	1e6b      	subs	r3, r5, #1
 8007830:	9304      	str	r3, [sp, #16]
 8007832:	bf43      	ittte	mi
 8007834:	2300      	movmi	r3, #0
 8007836:	f1c5 0801 	rsbmi	r8, r5, #1
 800783a:	9304      	strmi	r3, [sp, #16]
 800783c:	f04f 0800 	movpl.w	r8, #0
 8007840:	f1ba 0f00 	cmp.w	sl, #0
 8007844:	db3b      	blt.n	80078be <_dtoa_r+0x23e>
 8007846:	9b04      	ldr	r3, [sp, #16]
 8007848:	f8cd a034 	str.w	sl, [sp, #52]	; 0x34
 800784c:	4453      	add	r3, sl
 800784e:	9304      	str	r3, [sp, #16]
 8007850:	2300      	movs	r3, #0
 8007852:	9306      	str	r3, [sp, #24]
 8007854:	9b05      	ldr	r3, [sp, #20]
 8007856:	2b09      	cmp	r3, #9
 8007858:	d869      	bhi.n	800792e <_dtoa_r+0x2ae>
 800785a:	2b05      	cmp	r3, #5
 800785c:	bfc4      	itt	gt
 800785e:	3b04      	subgt	r3, #4
 8007860:	9305      	strgt	r3, [sp, #20]
 8007862:	9b05      	ldr	r3, [sp, #20]
 8007864:	f1a3 0302 	sub.w	r3, r3, #2
 8007868:	bfcc      	ite	gt
 800786a:	2500      	movgt	r5, #0
 800786c:	2501      	movle	r5, #1
 800786e:	2b03      	cmp	r3, #3
 8007870:	d869      	bhi.n	8007946 <_dtoa_r+0x2c6>
 8007872:	e8df f003 	tbb	[pc, r3]
 8007876:	4e2c      	.short	0x4e2c
 8007878:	5a4c      	.short	0x5a4c
 800787a:	e9dd 5312 	ldrd	r5, r3, [sp, #72]	; 0x48
 800787e:	441d      	add	r5, r3
 8007880:	f205 4332 	addw	r3, r5, #1074	; 0x432
 8007884:	2b20      	cmp	r3, #32
 8007886:	bfc1      	itttt	gt
 8007888:	f1c3 0340 	rsbgt	r3, r3, #64	; 0x40
 800788c:	f205 4012 	addwgt	r0, r5, #1042	; 0x412
 8007890:	fa09 f303 	lslgt.w	r3, r9, r3
 8007894:	fa26 f000 	lsrgt.w	r0, r6, r0
 8007898:	bfda      	itte	le
 800789a:	f1c3 0320 	rsble	r3, r3, #32
 800789e:	fa06 f003 	lslle.w	r0, r6, r3
 80078a2:	4318      	orrgt	r0, r3
 80078a4:	f7f8 fe2e 	bl	8000504 <__aeabi_ui2d>
 80078a8:	2301      	movs	r3, #1
 80078aa:	4606      	mov	r6, r0
 80078ac:	f1a1 77f8 	sub.w	r7, r1, #32505856	; 0x1f00000
 80078b0:	3d01      	subs	r5, #1
 80078b2:	9310      	str	r3, [sp, #64]	; 0x40
 80078b4:	e771      	b.n	800779a <_dtoa_r+0x11a>
 80078b6:	2301      	movs	r3, #1
 80078b8:	e7b6      	b.n	8007828 <_dtoa_r+0x1a8>
 80078ba:	900e      	str	r0, [sp, #56]	; 0x38
 80078bc:	e7b5      	b.n	800782a <_dtoa_r+0x1aa>
 80078be:	f1ca 0300 	rsb	r3, sl, #0
 80078c2:	9306      	str	r3, [sp, #24]
 80078c4:	2300      	movs	r3, #0
 80078c6:	eba8 080a 	sub.w	r8, r8, sl
 80078ca:	930d      	str	r3, [sp, #52]	; 0x34
 80078cc:	e7c2      	b.n	8007854 <_dtoa_r+0x1d4>
 80078ce:	2300      	movs	r3, #0
 80078d0:	9308      	str	r3, [sp, #32]
 80078d2:	9b09      	ldr	r3, [sp, #36]	; 0x24
 80078d4:	2b00      	cmp	r3, #0
 80078d6:	dc39      	bgt.n	800794c <_dtoa_r+0x2cc>
 80078d8:	f04f 0901 	mov.w	r9, #1
 80078dc:	f8cd 9004 	str.w	r9, [sp, #4]
 80078e0:	464b      	mov	r3, r9
 80078e2:	f8cd 9024 	str.w	r9, [sp, #36]	; 0x24
 80078e6:	6a60      	ldr	r0, [r4, #36]	; 0x24
 80078e8:	2200      	movs	r2, #0
 80078ea:	6042      	str	r2, [r0, #4]
 80078ec:	2204      	movs	r2, #4
 80078ee:	f102 0614 	add.w	r6, r2, #20
 80078f2:	429e      	cmp	r6, r3
 80078f4:	6841      	ldr	r1, [r0, #4]
 80078f6:	d92f      	bls.n	8007958 <_dtoa_r+0x2d8>
 80078f8:	4620      	mov	r0, r4
 80078fa:	f000 fed9 	bl	80086b0 <_Balloc>
 80078fe:	9000      	str	r0, [sp, #0]
 8007900:	2800      	cmp	r0, #0
 8007902:	d14b      	bne.n	800799c <_dtoa_r+0x31c>
 8007904:	4b24      	ldr	r3, [pc, #144]	; (8007998 <_dtoa_r+0x318>)
 8007906:	4602      	mov	r2, r0
 8007908:	f44f 71d5 	mov.w	r1, #426	; 0x1aa
 800790c:	e6d1      	b.n	80076b2 <_dtoa_r+0x32>
 800790e:	2301      	movs	r3, #1
 8007910:	e7de      	b.n	80078d0 <_dtoa_r+0x250>
 8007912:	2300      	movs	r3, #0
 8007914:	9308      	str	r3, [sp, #32]
 8007916:	9b09      	ldr	r3, [sp, #36]	; 0x24
 8007918:	eb0a 0903 	add.w	r9, sl, r3
 800791c:	f109 0301 	add.w	r3, r9, #1
 8007920:	2b01      	cmp	r3, #1
 8007922:	9301      	str	r3, [sp, #4]
 8007924:	bfb8      	it	lt
 8007926:	2301      	movlt	r3, #1
 8007928:	e7dd      	b.n	80078e6 <_dtoa_r+0x266>
 800792a:	2301      	movs	r3, #1
 800792c:	e7f2      	b.n	8007914 <_dtoa_r+0x294>
 800792e:	2501      	movs	r5, #1
 8007930:	2300      	movs	r3, #0
 8007932:	9305      	str	r3, [sp, #20]
 8007934:	9508      	str	r5, [sp, #32]
 8007936:	f04f 39ff 	mov.w	r9, #4294967295
 800793a:	2200      	movs	r2, #0
 800793c:	f8cd 9004 	str.w	r9, [sp, #4]
 8007940:	2312      	movs	r3, #18
 8007942:	9209      	str	r2, [sp, #36]	; 0x24
 8007944:	e7cf      	b.n	80078e6 <_dtoa_r+0x266>
 8007946:	2301      	movs	r3, #1
 8007948:	9308      	str	r3, [sp, #32]
 800794a:	e7f4      	b.n	8007936 <_dtoa_r+0x2b6>
 800794c:	f8dd 9024 	ldr.w	r9, [sp, #36]	; 0x24
 8007950:	f8cd 9004 	str.w	r9, [sp, #4]
 8007954:	464b      	mov	r3, r9
 8007956:	e7c6      	b.n	80078e6 <_dtoa_r+0x266>
 8007958:	3101      	adds	r1, #1
 800795a:	6041      	str	r1, [r0, #4]
 800795c:	0052      	lsls	r2, r2, #1
 800795e:	e7c6      	b.n	80078ee <_dtoa_r+0x26e>
 8007960:	636f4361 	.word	0x636f4361
 8007964:	3fd287a7 	.word	0x3fd287a7
 8007968:	8b60c8b3 	.word	0x8b60c8b3
 800796c:	3fc68a28 	.word	0x3fc68a28
 8007970:	509f79fb 	.word	0x509f79fb
 8007974:	3fd34413 	.word	0x3fd34413
 8007978:	0800accd 	.word	0x0800accd
 800797c:	0800ace4 	.word	0x0800ace4
 8007980:	7ff00000 	.word	0x7ff00000
 8007984:	0800acc9 	.word	0x0800acc9
 8007988:	0800acc0 	.word	0x0800acc0
 800798c:	0800ac9d 	.word	0x0800ac9d
 8007990:	3ff80000 	.word	0x3ff80000
 8007994:	0800ae40 	.word	0x0800ae40
 8007998:	0800ad43 	.word	0x0800ad43
 800799c:	6a63      	ldr	r3, [r4, #36]	; 0x24
 800799e:	9a00      	ldr	r2, [sp, #0]
 80079a0:	601a      	str	r2, [r3, #0]
 80079a2:	9b01      	ldr	r3, [sp, #4]
 80079a4:	2b0e      	cmp	r3, #14
 80079a6:	f200 80ad 	bhi.w	8007b04 <_dtoa_r+0x484>
 80079aa:	2d00      	cmp	r5, #0
 80079ac:	f000 80aa 	beq.w	8007b04 <_dtoa_r+0x484>
 80079b0:	f1ba 0f00 	cmp.w	sl, #0
 80079b4:	dd36      	ble.n	8007a24 <_dtoa_r+0x3a4>
 80079b6:	4ac3      	ldr	r2, [pc, #780]	; (8007cc4 <_dtoa_r+0x644>)
 80079b8:	f00a 030f 	and.w	r3, sl, #15
 80079bc:	eb02 03c3 	add.w	r3, r2, r3, lsl #3
 80079c0:	ed93 7b00 	vldr	d7, [r3]
 80079c4:	f41a 7f80 	tst.w	sl, #256	; 0x100
 80079c8:	ea4f 172a 	mov.w	r7, sl, asr #4
 80079cc:	eeb0 8a47 	vmov.f32	s16, s14
 80079d0:	eef0 8a67 	vmov.f32	s17, s15
 80079d4:	d016      	beq.n	8007a04 <_dtoa_r+0x384>
 80079d6:	4bbc      	ldr	r3, [pc, #752]	; (8007cc8 <_dtoa_r+0x648>)
 80079d8:	e9dd 010a 	ldrd	r0, r1, [sp, #40]	; 0x28
 80079dc:	e9d3 2308 	ldrd	r2, r3, [r3, #32]
 80079e0:	f7f8 ff34 	bl	800084c <__aeabi_ddiv>
 80079e4:	e9cd 0102 	strd	r0, r1, [sp, #8]
 80079e8:	f007 070f 	and.w	r7, r7, #15
 80079ec:	2503      	movs	r5, #3
 80079ee:	4eb6      	ldr	r6, [pc, #728]	; (8007cc8 <_dtoa_r+0x648>)
 80079f0:	b957      	cbnz	r7, 8007a08 <_dtoa_r+0x388>
 80079f2:	e9dd 0102 	ldrd	r0, r1, [sp, #8]
 80079f6:	ec53 2b18 	vmov	r2, r3, d8
 80079fa:	f7f8 ff27 	bl	800084c <__aeabi_ddiv>
 80079fe:	e9cd 0102 	strd	r0, r1, [sp, #8]
 8007a02:	e029      	b.n	8007a58 <_dtoa_r+0x3d8>
 8007a04:	2502      	movs	r5, #2
 8007a06:	e7f2      	b.n	80079ee <_dtoa_r+0x36e>
 8007a08:	07f9      	lsls	r1, r7, #31
 8007a0a:	d508      	bpl.n	8007a1e <_dtoa_r+0x39e>
 8007a0c:	ec51 0b18 	vmov	r0, r1, d8
 8007a10:	e9d6 2300 	ldrd	r2, r3, [r6]
 8007a14:	f7f8 fdf0 	bl	80005f8 <__aeabi_dmul>
 8007a18:	ec41 0b18 	vmov	d8, r0, r1
 8007a1c:	3501      	adds	r5, #1
 8007a1e:	107f      	asrs	r7, r7, #1
 8007a20:	3608      	adds	r6, #8
 8007a22:	e7e5      	b.n	80079f0 <_dtoa_r+0x370>
 8007a24:	f000 80a6 	beq.w	8007b74 <_dtoa_r+0x4f4>
 8007a28:	f1ca 0600 	rsb	r6, sl, #0
 8007a2c:	4ba5      	ldr	r3, [pc, #660]	; (8007cc4 <_dtoa_r+0x644>)
 8007a2e:	4fa6      	ldr	r7, [pc, #664]	; (8007cc8 <_dtoa_r+0x648>)
 8007a30:	f006 020f 	and.w	r2, r6, #15
 8007a34:	eb03 03c2 	add.w	r3, r3, r2, lsl #3
 8007a38:	e9d3 2300 	ldrd	r2, r3, [r3]
 8007a3c:	e9dd 010a 	ldrd	r0, r1, [sp, #40]	; 0x28
 8007a40:	f7f8 fdda 	bl	80005f8 <__aeabi_dmul>
 8007a44:	e9cd 0102 	strd	r0, r1, [sp, #8]
 8007a48:	1136      	asrs	r6, r6, #4
 8007a4a:	2300      	movs	r3, #0
 8007a4c:	2502      	movs	r5, #2
 8007a4e:	2e00      	cmp	r6, #0
 8007a50:	f040 8085 	bne.w	8007b5e <_dtoa_r+0x4de>
 8007a54:	2b00      	cmp	r3, #0
 8007a56:	d1d2      	bne.n	80079fe <_dtoa_r+0x37e>
 8007a58:	9b0e      	ldr	r3, [sp, #56]	; 0x38
 8007a5a:	2b00      	cmp	r3, #0
 8007a5c:	f000 808c 	beq.w	8007b78 <_dtoa_r+0x4f8>
 8007a60:	e9dd 6702 	ldrd	r6, r7, [sp, #8]
 8007a64:	4b99      	ldr	r3, [pc, #612]	; (8007ccc <_dtoa_r+0x64c>)
 8007a66:	2200      	movs	r2, #0
 8007a68:	4630      	mov	r0, r6
 8007a6a:	4639      	mov	r1, r7
 8007a6c:	f7f9 f836 	bl	8000adc <__aeabi_dcmplt>
 8007a70:	2800      	cmp	r0, #0
 8007a72:	f000 8081 	beq.w	8007b78 <_dtoa_r+0x4f8>
 8007a76:	9b01      	ldr	r3, [sp, #4]
 8007a78:	2b00      	cmp	r3, #0
 8007a7a:	d07d      	beq.n	8007b78 <_dtoa_r+0x4f8>
 8007a7c:	f1b9 0f00 	cmp.w	r9, #0
 8007a80:	dd3c      	ble.n	8007afc <_dtoa_r+0x47c>
 8007a82:	f10a 33ff 	add.w	r3, sl, #4294967295
 8007a86:	9307      	str	r3, [sp, #28]
 8007a88:	2200      	movs	r2, #0
 8007a8a:	4b91      	ldr	r3, [pc, #580]	; (8007cd0 <_dtoa_r+0x650>)
 8007a8c:	4630      	mov	r0, r6
 8007a8e:	4639      	mov	r1, r7
 8007a90:	f7f8 fdb2 	bl	80005f8 <__aeabi_dmul>
 8007a94:	e9cd 0102 	strd	r0, r1, [sp, #8]
 8007a98:	3501      	adds	r5, #1
 8007a9a:	f8cd 9030 	str.w	r9, [sp, #48]	; 0x30
 8007a9e:	e9dd 6702 	ldrd	r6, r7, [sp, #8]
 8007aa2:	4628      	mov	r0, r5
 8007aa4:	f7f8 fd3e 	bl	8000524 <__aeabi_i2d>
 8007aa8:	4632      	mov	r2, r6
 8007aaa:	463b      	mov	r3, r7
 8007aac:	f7f8 fda4 	bl	80005f8 <__aeabi_dmul>
 8007ab0:	4b88      	ldr	r3, [pc, #544]	; (8007cd4 <_dtoa_r+0x654>)
 8007ab2:	2200      	movs	r2, #0
 8007ab4:	f7f8 fbea 	bl	800028c <__adddf3>
 8007ab8:	f1a1 7350 	sub.w	r3, r1, #54525952	; 0x3400000
 8007abc:	e9cd 0102 	strd	r0, r1, [sp, #8]
 8007ac0:	9303      	str	r3, [sp, #12]
 8007ac2:	9b0c      	ldr	r3, [sp, #48]	; 0x30
 8007ac4:	2b00      	cmp	r3, #0
 8007ac6:	d15c      	bne.n	8007b82 <_dtoa_r+0x502>
 8007ac8:	4b83      	ldr	r3, [pc, #524]	; (8007cd8 <_dtoa_r+0x658>)
 8007aca:	2200      	movs	r2, #0
 8007acc:	4630      	mov	r0, r6
 8007ace:	4639      	mov	r1, r7
 8007ad0:	f7f8 fbda 	bl	8000288 <__aeabi_dsub>
 8007ad4:	e9dd 2302 	ldrd	r2, r3, [sp, #8]
 8007ad8:	4606      	mov	r6, r0
 8007ada:	460f      	mov	r7, r1
 8007adc:	f7f9 f81c 	bl	8000b18 <__aeabi_dcmpgt>
 8007ae0:	2800      	cmp	r0, #0
 8007ae2:	f040 8296 	bne.w	8008012 <_dtoa_r+0x992>
 8007ae6:	e9dd 2102 	ldrd	r2, r1, [sp, #8]
 8007aea:	4630      	mov	r0, r6
 8007aec:	f101 4300 	add.w	r3, r1, #2147483648	; 0x80000000
 8007af0:	4639      	mov	r1, r7
 8007af2:	f7f8 fff3 	bl	8000adc <__aeabi_dcmplt>
 8007af6:	2800      	cmp	r0, #0
 8007af8:	f040 8288 	bne.w	800800c <_dtoa_r+0x98c>
 8007afc:	e9dd 230a 	ldrd	r2, r3, [sp, #40]	; 0x28
 8007b00:	e9cd 2302 	strd	r2, r3, [sp, #8]
 8007b04:	9b13      	ldr	r3, [sp, #76]	; 0x4c
 8007b06:	2b00      	cmp	r3, #0
 8007b08:	f2c0 8158 	blt.w	8007dbc <_dtoa_r+0x73c>
 8007b0c:	f1ba 0f0e 	cmp.w	sl, #14
 8007b10:	f300 8154 	bgt.w	8007dbc <_dtoa_r+0x73c>
 8007b14:	4b6b      	ldr	r3, [pc, #428]	; (8007cc4 <_dtoa_r+0x644>)
 8007b16:	eb03 03ca 	add.w	r3, r3, sl, lsl #3
 8007b1a:	e9d3 8900 	ldrd	r8, r9, [r3]
 8007b1e:	9b09      	ldr	r3, [sp, #36]	; 0x24
 8007b20:	2b00      	cmp	r3, #0
 8007b22:	f280 80e3 	bge.w	8007cec <_dtoa_r+0x66c>
 8007b26:	9b01      	ldr	r3, [sp, #4]
 8007b28:	2b00      	cmp	r3, #0
 8007b2a:	f300 80df 	bgt.w	8007cec <_dtoa_r+0x66c>
 8007b2e:	f040 826d 	bne.w	800800c <_dtoa_r+0x98c>
 8007b32:	4b69      	ldr	r3, [pc, #420]	; (8007cd8 <_dtoa_r+0x658>)
 8007b34:	2200      	movs	r2, #0
 8007b36:	4640      	mov	r0, r8
 8007b38:	4649      	mov	r1, r9
 8007b3a:	f7f8 fd5d 	bl	80005f8 <__aeabi_dmul>
 8007b3e:	e9dd 2302 	ldrd	r2, r3, [sp, #8]
 8007b42:	f7f8 ffdf 	bl	8000b04 <__aeabi_dcmpge>
 8007b46:	9e01      	ldr	r6, [sp, #4]
 8007b48:	4637      	mov	r7, r6
 8007b4a:	2800      	cmp	r0, #0
 8007b4c:	f040 8243 	bne.w	8007fd6 <_dtoa_r+0x956>
 8007b50:	9d00      	ldr	r5, [sp, #0]
 8007b52:	2331      	movs	r3, #49	; 0x31
 8007b54:	f805 3b01 	strb.w	r3, [r5], #1
 8007b58:	f10a 0a01 	add.w	sl, sl, #1
 8007b5c:	e23f      	b.n	8007fde <_dtoa_r+0x95e>
 8007b5e:	07f2      	lsls	r2, r6, #31
 8007b60:	d505      	bpl.n	8007b6e <_dtoa_r+0x4ee>
 8007b62:	e9d7 2300 	ldrd	r2, r3, [r7]
 8007b66:	f7f8 fd47 	bl	80005f8 <__aeabi_dmul>
 8007b6a:	3501      	adds	r5, #1
 8007b6c:	2301      	movs	r3, #1
 8007b6e:	1076      	asrs	r6, r6, #1
 8007b70:	3708      	adds	r7, #8
 8007b72:	e76c      	b.n	8007a4e <_dtoa_r+0x3ce>
 8007b74:	2502      	movs	r5, #2
 8007b76:	e76f      	b.n	8007a58 <_dtoa_r+0x3d8>
 8007b78:	9b01      	ldr	r3, [sp, #4]
 8007b7a:	f8cd a01c 	str.w	sl, [sp, #28]
 8007b7e:	930c      	str	r3, [sp, #48]	; 0x30
 8007b80:	e78d      	b.n	8007a9e <_dtoa_r+0x41e>
 8007b82:	9900      	ldr	r1, [sp, #0]
 8007b84:	980c      	ldr	r0, [sp, #48]	; 0x30
 8007b86:	9a0c      	ldr	r2, [sp, #48]	; 0x30
 8007b88:	4b4e      	ldr	r3, [pc, #312]	; (8007cc4 <_dtoa_r+0x644>)
 8007b8a:	ed9d 7b02 	vldr	d7, [sp, #8]
 8007b8e:	4401      	add	r1, r0
 8007b90:	9102      	str	r1, [sp, #8]
 8007b92:	9908      	ldr	r1, [sp, #32]
 8007b94:	eeb0 8a47 	vmov.f32	s16, s14
 8007b98:	eef0 8a67 	vmov.f32	s17, s15
 8007b9c:	eb03 03c2 	add.w	r3, r3, r2, lsl #3
 8007ba0:	e953 2302 	ldrd	r2, r3, [r3, #-8]
 8007ba4:	2900      	cmp	r1, #0
 8007ba6:	d045      	beq.n	8007c34 <_dtoa_r+0x5b4>
 8007ba8:	494c      	ldr	r1, [pc, #304]	; (8007cdc <_dtoa_r+0x65c>)
 8007baa:	2000      	movs	r0, #0
 8007bac:	f7f8 fe4e 	bl	800084c <__aeabi_ddiv>
 8007bb0:	ec53 2b18 	vmov	r2, r3, d8
 8007bb4:	f7f8 fb68 	bl	8000288 <__aeabi_dsub>
 8007bb8:	9d00      	ldr	r5, [sp, #0]
 8007bba:	ec41 0b18 	vmov	d8, r0, r1
 8007bbe:	4639      	mov	r1, r7
 8007bc0:	4630      	mov	r0, r6
 8007bc2:	f7f8 ffc9 	bl	8000b58 <__aeabi_d2iz>
 8007bc6:	900c      	str	r0, [sp, #48]	; 0x30
 8007bc8:	f7f8 fcac 	bl	8000524 <__aeabi_i2d>
 8007bcc:	4602      	mov	r2, r0
 8007bce:	460b      	mov	r3, r1
 8007bd0:	4630      	mov	r0, r6
 8007bd2:	4639      	mov	r1, r7
 8007bd4:	f7f8 fb58 	bl	8000288 <__aeabi_dsub>
 8007bd8:	9b0c      	ldr	r3, [sp, #48]	; 0x30
 8007bda:	3330      	adds	r3, #48	; 0x30
 8007bdc:	f805 3b01 	strb.w	r3, [r5], #1
 8007be0:	ec53 2b18 	vmov	r2, r3, d8
 8007be4:	4606      	mov	r6, r0
 8007be6:	460f      	mov	r7, r1
 8007be8:	f7f8 ff78 	bl	8000adc <__aeabi_dcmplt>
 8007bec:	2800      	cmp	r0, #0
 8007bee:	d165      	bne.n	8007cbc <_dtoa_r+0x63c>
 8007bf0:	4632      	mov	r2, r6
 8007bf2:	463b      	mov	r3, r7
 8007bf4:	4935      	ldr	r1, [pc, #212]	; (8007ccc <_dtoa_r+0x64c>)
 8007bf6:	2000      	movs	r0, #0
 8007bf8:	f7f8 fb46 	bl	8000288 <__aeabi_dsub>
 8007bfc:	ec53 2b18 	vmov	r2, r3, d8
 8007c00:	f7f8 ff6c 	bl	8000adc <__aeabi_dcmplt>
 8007c04:	2800      	cmp	r0, #0
 8007c06:	f040 80b9 	bne.w	8007d7c <_dtoa_r+0x6fc>
 8007c0a:	9b02      	ldr	r3, [sp, #8]
 8007c0c:	429d      	cmp	r5, r3
 8007c0e:	f43f af75 	beq.w	8007afc <_dtoa_r+0x47c>
 8007c12:	4b2f      	ldr	r3, [pc, #188]	; (8007cd0 <_dtoa_r+0x650>)
 8007c14:	ec51 0b18 	vmov	r0, r1, d8
 8007c18:	2200      	movs	r2, #0
 8007c1a:	f7f8 fced 	bl	80005f8 <__aeabi_dmul>
 8007c1e:	4b2c      	ldr	r3, [pc, #176]	; (8007cd0 <_dtoa_r+0x650>)
 8007c20:	ec41 0b18 	vmov	d8, r0, r1
 8007c24:	2200      	movs	r2, #0
 8007c26:	4630      	mov	r0, r6
 8007c28:	4639      	mov	r1, r7
 8007c2a:	f7f8 fce5 	bl	80005f8 <__aeabi_dmul>
 8007c2e:	4606      	mov	r6, r0
 8007c30:	460f      	mov	r7, r1
 8007c32:	e7c4      	b.n	8007bbe <_dtoa_r+0x53e>
 8007c34:	ec51 0b17 	vmov	r0, r1, d7
 8007c38:	f7f8 fcde 	bl	80005f8 <__aeabi_dmul>
 8007c3c:	9b02      	ldr	r3, [sp, #8]
 8007c3e:	9d00      	ldr	r5, [sp, #0]
 8007c40:	930c      	str	r3, [sp, #48]	; 0x30
 8007c42:	ec41 0b18 	vmov	d8, r0, r1
 8007c46:	4639      	mov	r1, r7
 8007c48:	4630      	mov	r0, r6
 8007c4a:	f7f8 ff85 	bl	8000b58 <__aeabi_d2iz>
 8007c4e:	9011      	str	r0, [sp, #68]	; 0x44
 8007c50:	f7f8 fc68 	bl	8000524 <__aeabi_i2d>
 8007c54:	4602      	mov	r2, r0
 8007c56:	460b      	mov	r3, r1
 8007c58:	4630      	mov	r0, r6
 8007c5a:	4639      	mov	r1, r7
 8007c5c:	f7f8 fb14 	bl	8000288 <__aeabi_dsub>
 8007c60:	9b11      	ldr	r3, [sp, #68]	; 0x44
 8007c62:	3330      	adds	r3, #48	; 0x30
 8007c64:	f805 3b01 	strb.w	r3, [r5], #1
 8007c68:	9b02      	ldr	r3, [sp, #8]
 8007c6a:	429d      	cmp	r5, r3
 8007c6c:	4606      	mov	r6, r0
 8007c6e:	460f      	mov	r7, r1
 8007c70:	f04f 0200 	mov.w	r2, #0
 8007c74:	d134      	bne.n	8007ce0 <_dtoa_r+0x660>
 8007c76:	4b19      	ldr	r3, [pc, #100]	; (8007cdc <_dtoa_r+0x65c>)
 8007c78:	ec51 0b18 	vmov	r0, r1, d8
 8007c7c:	f7f8 fb06 	bl	800028c <__adddf3>
 8007c80:	4602      	mov	r2, r0
 8007c82:	460b      	mov	r3, r1
 8007c84:	4630      	mov	r0, r6
 8007c86:	4639      	mov	r1, r7
 8007c88:	f7f8 ff46 	bl	8000b18 <__aeabi_dcmpgt>
 8007c8c:	2800      	cmp	r0, #0
 8007c8e:	d175      	bne.n	8007d7c <_dtoa_r+0x6fc>
 8007c90:	ec53 2b18 	vmov	r2, r3, d8
 8007c94:	4911      	ldr	r1, [pc, #68]	; (8007cdc <_dtoa_r+0x65c>)
 8007c96:	2000      	movs	r0, #0
 8007c98:	f7f8 faf6 	bl	8000288 <__aeabi_dsub>
 8007c9c:	4602      	mov	r2, r0
 8007c9e:	460b      	mov	r3, r1
 8007ca0:	4630      	mov	r0, r6
 8007ca2:	4639      	mov	r1, r7
 8007ca4:	f7f8 ff1a 	bl	8000adc <__aeabi_dcmplt>
 8007ca8:	2800      	cmp	r0, #0
 8007caa:	f43f af27 	beq.w	8007afc <_dtoa_r+0x47c>
 8007cae:	9d0c      	ldr	r5, [sp, #48]	; 0x30
 8007cb0:	1e6b      	subs	r3, r5, #1
 8007cb2:	930c      	str	r3, [sp, #48]	; 0x30
 8007cb4:	f815 3c01 	ldrb.w	r3, [r5, #-1]
 8007cb8:	2b30      	cmp	r3, #48	; 0x30
 8007cba:	d0f8      	beq.n	8007cae <_dtoa_r+0x62e>
 8007cbc:	f8dd a01c 	ldr.w	sl, [sp, #28]
 8007cc0:	e04a      	b.n	8007d58 <_dtoa_r+0x6d8>
 8007cc2:	bf00      	nop
 8007cc4:	0800ae40 	.word	0x0800ae40
 8007cc8:	0800ae18 	.word	0x0800ae18
 8007ccc:	3ff00000 	.word	0x3ff00000
 8007cd0:	40240000 	.word	0x40240000
 8007cd4:	401c0000 	.word	0x401c0000
 8007cd8:	40140000 	.word	0x40140000
 8007cdc:	3fe00000 	.word	0x3fe00000
 8007ce0:	4baf      	ldr	r3, [pc, #700]	; (8007fa0 <_dtoa_r+0x920>)
 8007ce2:	f7f8 fc89 	bl	80005f8 <__aeabi_dmul>
 8007ce6:	4606      	mov	r6, r0
 8007ce8:	460f      	mov	r7, r1
 8007cea:	e7ac      	b.n	8007c46 <_dtoa_r+0x5c6>
 8007cec:	e9dd 6702 	ldrd	r6, r7, [sp, #8]
 8007cf0:	9d00      	ldr	r5, [sp, #0]
 8007cf2:	4642      	mov	r2, r8
 8007cf4:	464b      	mov	r3, r9
 8007cf6:	4630      	mov	r0, r6
 8007cf8:	4639      	mov	r1, r7
 8007cfa:	f7f8 fda7 	bl	800084c <__aeabi_ddiv>
 8007cfe:	f7f8 ff2b 	bl	8000b58 <__aeabi_d2iz>
 8007d02:	9002      	str	r0, [sp, #8]
 8007d04:	f7f8 fc0e 	bl	8000524 <__aeabi_i2d>
 8007d08:	4642      	mov	r2, r8
 8007d0a:	464b      	mov	r3, r9
 8007d0c:	f7f8 fc74 	bl	80005f8 <__aeabi_dmul>
 8007d10:	4602      	mov	r2, r0
 8007d12:	460b      	mov	r3, r1
 8007d14:	4630      	mov	r0, r6
 8007d16:	4639      	mov	r1, r7
 8007d18:	f7f8 fab6 	bl	8000288 <__aeabi_dsub>
 8007d1c:	9e02      	ldr	r6, [sp, #8]
 8007d1e:	9f01      	ldr	r7, [sp, #4]
 8007d20:	3630      	adds	r6, #48	; 0x30
 8007d22:	f805 6b01 	strb.w	r6, [r5], #1
 8007d26:	9e00      	ldr	r6, [sp, #0]
 8007d28:	1bae      	subs	r6, r5, r6
 8007d2a:	42b7      	cmp	r7, r6
 8007d2c:	4602      	mov	r2, r0
 8007d2e:	460b      	mov	r3, r1
 8007d30:	d137      	bne.n	8007da2 <_dtoa_r+0x722>
 8007d32:	f7f8 faab 	bl	800028c <__adddf3>
 8007d36:	4642      	mov	r2, r8
 8007d38:	464b      	mov	r3, r9
 8007d3a:	4606      	mov	r6, r0
 8007d3c:	460f      	mov	r7, r1
 8007d3e:	f7f8 feeb 	bl	8000b18 <__aeabi_dcmpgt>
 8007d42:	b9c8      	cbnz	r0, 8007d78 <_dtoa_r+0x6f8>
 8007d44:	4642      	mov	r2, r8
 8007d46:	464b      	mov	r3, r9
 8007d48:	4630      	mov	r0, r6
 8007d4a:	4639      	mov	r1, r7
 8007d4c:	f7f8 febc 	bl	8000ac8 <__aeabi_dcmpeq>
 8007d50:	b110      	cbz	r0, 8007d58 <_dtoa_r+0x6d8>
 8007d52:	9b02      	ldr	r3, [sp, #8]
 8007d54:	07d9      	lsls	r1, r3, #31
 8007d56:	d40f      	bmi.n	8007d78 <_dtoa_r+0x6f8>
 8007d58:	4620      	mov	r0, r4
 8007d5a:	4659      	mov	r1, fp
 8007d5c:	f000 fce8 	bl	8008730 <_Bfree>
 8007d60:	2300      	movs	r3, #0
 8007d62:	702b      	strb	r3, [r5, #0]
 8007d64:	9b0f      	ldr	r3, [sp, #60]	; 0x3c
 8007d66:	f10a 0001 	add.w	r0, sl, #1
 8007d6a:	6018      	str	r0, [r3, #0]
 8007d6c:	9b21      	ldr	r3, [sp, #132]	; 0x84
 8007d6e:	2b00      	cmp	r3, #0
 8007d70:	f43f acd8 	beq.w	8007724 <_dtoa_r+0xa4>
 8007d74:	601d      	str	r5, [r3, #0]
 8007d76:	e4d5      	b.n	8007724 <_dtoa_r+0xa4>
 8007d78:	f8cd a01c 	str.w	sl, [sp, #28]
 8007d7c:	462b      	mov	r3, r5
 8007d7e:	461d      	mov	r5, r3
 8007d80:	f813 2d01 	ldrb.w	r2, [r3, #-1]!
 8007d84:	2a39      	cmp	r2, #57	; 0x39
 8007d86:	d108      	bne.n	8007d9a <_dtoa_r+0x71a>
 8007d88:	9a00      	ldr	r2, [sp, #0]
 8007d8a:	429a      	cmp	r2, r3
 8007d8c:	d1f7      	bne.n	8007d7e <_dtoa_r+0x6fe>
 8007d8e:	9a07      	ldr	r2, [sp, #28]
 8007d90:	9900      	ldr	r1, [sp, #0]
 8007d92:	3201      	adds	r2, #1
 8007d94:	9207      	str	r2, [sp, #28]
 8007d96:	2230      	movs	r2, #48	; 0x30
 8007d98:	700a      	strb	r2, [r1, #0]
 8007d9a:	781a      	ldrb	r2, [r3, #0]
 8007d9c:	3201      	adds	r2, #1
 8007d9e:	701a      	strb	r2, [r3, #0]
 8007da0:	e78c      	b.n	8007cbc <_dtoa_r+0x63c>
 8007da2:	4b7f      	ldr	r3, [pc, #508]	; (8007fa0 <_dtoa_r+0x920>)
 8007da4:	2200      	movs	r2, #0
 8007da6:	f7f8 fc27 	bl	80005f8 <__aeabi_dmul>
 8007daa:	2200      	movs	r2, #0
 8007dac:	2300      	movs	r3, #0
 8007dae:	4606      	mov	r6, r0
 8007db0:	460f      	mov	r7, r1
 8007db2:	f7f8 fe89 	bl	8000ac8 <__aeabi_dcmpeq>
 8007db6:	2800      	cmp	r0, #0
 8007db8:	d09b      	beq.n	8007cf2 <_dtoa_r+0x672>
 8007dba:	e7cd      	b.n	8007d58 <_dtoa_r+0x6d8>
 8007dbc:	9a08      	ldr	r2, [sp, #32]
 8007dbe:	2a00      	cmp	r2, #0
 8007dc0:	f000 80c4 	beq.w	8007f4c <_dtoa_r+0x8cc>
 8007dc4:	9a05      	ldr	r2, [sp, #20]
 8007dc6:	2a01      	cmp	r2, #1
 8007dc8:	f300 80a8 	bgt.w	8007f1c <_dtoa_r+0x89c>
 8007dcc:	9a10      	ldr	r2, [sp, #64]	; 0x40
 8007dce:	2a00      	cmp	r2, #0
 8007dd0:	f000 80a0 	beq.w	8007f14 <_dtoa_r+0x894>
 8007dd4:	f203 4333 	addw	r3, r3, #1075	; 0x433
 8007dd8:	9e06      	ldr	r6, [sp, #24]
 8007dda:	4645      	mov	r5, r8
 8007ddc:	9a04      	ldr	r2, [sp, #16]
 8007dde:	2101      	movs	r1, #1
 8007de0:	441a      	add	r2, r3
 8007de2:	4620      	mov	r0, r4
 8007de4:	4498      	add	r8, r3
 8007de6:	9204      	str	r2, [sp, #16]
 8007de8:	f000 fd5e 	bl	80088a8 <__i2b>
 8007dec:	4607      	mov	r7, r0
 8007dee:	2d00      	cmp	r5, #0
 8007df0:	dd0b      	ble.n	8007e0a <_dtoa_r+0x78a>
 8007df2:	9b04      	ldr	r3, [sp, #16]
 8007df4:	2b00      	cmp	r3, #0
 8007df6:	dd08      	ble.n	8007e0a <_dtoa_r+0x78a>
 8007df8:	42ab      	cmp	r3, r5
 8007dfa:	9a04      	ldr	r2, [sp, #16]
 8007dfc:	bfa8      	it	ge
 8007dfe:	462b      	movge	r3, r5
 8007e00:	eba8 0803 	sub.w	r8, r8, r3
 8007e04:	1aed      	subs	r5, r5, r3
 8007e06:	1ad3      	subs	r3, r2, r3
 8007e08:	9304      	str	r3, [sp, #16]
 8007e0a:	9b06      	ldr	r3, [sp, #24]
 8007e0c:	b1fb      	cbz	r3, 8007e4e <_dtoa_r+0x7ce>
 8007e0e:	9b08      	ldr	r3, [sp, #32]
 8007e10:	2b00      	cmp	r3, #0
 8007e12:	f000 809f 	beq.w	8007f54 <_dtoa_r+0x8d4>
 8007e16:	2e00      	cmp	r6, #0
 8007e18:	dd11      	ble.n	8007e3e <_dtoa_r+0x7be>
 8007e1a:	4639      	mov	r1, r7
 8007e1c:	4632      	mov	r2, r6
 8007e1e:	4620      	mov	r0, r4
 8007e20:	f000 fdfe 	bl	8008a20 <__pow5mult>
 8007e24:	465a      	mov	r2, fp
 8007e26:	4601      	mov	r1, r0
 8007e28:	4607      	mov	r7, r0
 8007e2a:	4620      	mov	r0, r4
 8007e2c:	f000 fd52 	bl	80088d4 <__multiply>
 8007e30:	4659      	mov	r1, fp
 8007e32:	9007      	str	r0, [sp, #28]
 8007e34:	4620      	mov	r0, r4
 8007e36:	f000 fc7b 	bl	8008730 <_Bfree>
 8007e3a:	9b07      	ldr	r3, [sp, #28]
 8007e3c:	469b      	mov	fp, r3
 8007e3e:	9b06      	ldr	r3, [sp, #24]
 8007e40:	1b9a      	subs	r2, r3, r6
 8007e42:	d004      	beq.n	8007e4e <_dtoa_r+0x7ce>
 8007e44:	4659      	mov	r1, fp
 8007e46:	4620      	mov	r0, r4
 8007e48:	f000 fdea 	bl	8008a20 <__pow5mult>
 8007e4c:	4683      	mov	fp, r0
 8007e4e:	2101      	movs	r1, #1
 8007e50:	4620      	mov	r0, r4
 8007e52:	f000 fd29 	bl	80088a8 <__i2b>
 8007e56:	9b0d      	ldr	r3, [sp, #52]	; 0x34
 8007e58:	2b00      	cmp	r3, #0
 8007e5a:	4606      	mov	r6, r0
 8007e5c:	dd7c      	ble.n	8007f58 <_dtoa_r+0x8d8>
 8007e5e:	461a      	mov	r2, r3
 8007e60:	4601      	mov	r1, r0
 8007e62:	4620      	mov	r0, r4
 8007e64:	f000 fddc 	bl	8008a20 <__pow5mult>
 8007e68:	9b05      	ldr	r3, [sp, #20]
 8007e6a:	2b01      	cmp	r3, #1
 8007e6c:	4606      	mov	r6, r0
 8007e6e:	dd76      	ble.n	8007f5e <_dtoa_r+0x8de>
 8007e70:	2300      	movs	r3, #0
 8007e72:	9306      	str	r3, [sp, #24]
 8007e74:	6933      	ldr	r3, [r6, #16]
 8007e76:	eb06 0383 	add.w	r3, r6, r3, lsl #2
 8007e7a:	6918      	ldr	r0, [r3, #16]
 8007e7c:	f000 fcc4 	bl	8008808 <__hi0bits>
 8007e80:	f1c0 0020 	rsb	r0, r0, #32
 8007e84:	9b04      	ldr	r3, [sp, #16]
 8007e86:	4418      	add	r0, r3
 8007e88:	f010 001f 	ands.w	r0, r0, #31
 8007e8c:	f000 8086 	beq.w	8007f9c <_dtoa_r+0x91c>
 8007e90:	f1c0 0320 	rsb	r3, r0, #32
 8007e94:	2b04      	cmp	r3, #4
 8007e96:	dd7f      	ble.n	8007f98 <_dtoa_r+0x918>
 8007e98:	f1c0 001c 	rsb	r0, r0, #28
 8007e9c:	9b04      	ldr	r3, [sp, #16]
 8007e9e:	4403      	add	r3, r0
 8007ea0:	4480      	add	r8, r0
 8007ea2:	4405      	add	r5, r0
 8007ea4:	9304      	str	r3, [sp, #16]
 8007ea6:	f1b8 0f00 	cmp.w	r8, #0
 8007eaa:	dd05      	ble.n	8007eb8 <_dtoa_r+0x838>
 8007eac:	4659      	mov	r1, fp
 8007eae:	4642      	mov	r2, r8
 8007eb0:	4620      	mov	r0, r4
 8007eb2:	f000 fe0f 	bl	8008ad4 <__lshift>
 8007eb6:	4683      	mov	fp, r0
 8007eb8:	9b04      	ldr	r3, [sp, #16]
 8007eba:	2b00      	cmp	r3, #0
 8007ebc:	dd05      	ble.n	8007eca <_dtoa_r+0x84a>
 8007ebe:	4631      	mov	r1, r6
 8007ec0:	461a      	mov	r2, r3
 8007ec2:	4620      	mov	r0, r4
 8007ec4:	f000 fe06 	bl	8008ad4 <__lshift>
 8007ec8:	4606      	mov	r6, r0
 8007eca:	9b0e      	ldr	r3, [sp, #56]	; 0x38
 8007ecc:	2b00      	cmp	r3, #0
 8007ece:	d069      	beq.n	8007fa4 <_dtoa_r+0x924>
 8007ed0:	4631      	mov	r1, r6
 8007ed2:	4658      	mov	r0, fp
 8007ed4:	f000 fe6a 	bl	8008bac <__mcmp>
 8007ed8:	2800      	cmp	r0, #0
 8007eda:	da63      	bge.n	8007fa4 <_dtoa_r+0x924>
 8007edc:	2300      	movs	r3, #0
 8007ede:	4659      	mov	r1, fp
 8007ee0:	220a      	movs	r2, #10
 8007ee2:	4620      	mov	r0, r4
 8007ee4:	f000 fc46 	bl	8008774 <__multadd>
 8007ee8:	9b08      	ldr	r3, [sp, #32]
 8007eea:	f10a 3aff 	add.w	sl, sl, #4294967295
 8007eee:	4683      	mov	fp, r0
 8007ef0:	2b00      	cmp	r3, #0
 8007ef2:	f000 818f 	beq.w	8008214 <_dtoa_r+0xb94>
 8007ef6:	4639      	mov	r1, r7
 8007ef8:	2300      	movs	r3, #0
 8007efa:	220a      	movs	r2, #10
 8007efc:	4620      	mov	r0, r4
 8007efe:	f000 fc39 	bl	8008774 <__multadd>
 8007f02:	f1b9 0f00 	cmp.w	r9, #0
 8007f06:	4607      	mov	r7, r0
 8007f08:	f300 808e 	bgt.w	8008028 <_dtoa_r+0x9a8>
 8007f0c:	9b05      	ldr	r3, [sp, #20]
 8007f0e:	2b02      	cmp	r3, #2
 8007f10:	dc50      	bgt.n	8007fb4 <_dtoa_r+0x934>
 8007f12:	e089      	b.n	8008028 <_dtoa_r+0x9a8>
 8007f14:	9b12      	ldr	r3, [sp, #72]	; 0x48
 8007f16:	f1c3 0336 	rsb	r3, r3, #54	; 0x36
 8007f1a:	e75d      	b.n	8007dd8 <_dtoa_r+0x758>
 8007f1c:	9b01      	ldr	r3, [sp, #4]
 8007f1e:	1e5e      	subs	r6, r3, #1
 8007f20:	9b06      	ldr	r3, [sp, #24]
 8007f22:	42b3      	cmp	r3, r6
 8007f24:	bfbf      	itttt	lt
 8007f26:	9b06      	ldrlt	r3, [sp, #24]
 8007f28:	9606      	strlt	r6, [sp, #24]
 8007f2a:	1af2      	sublt	r2, r6, r3
 8007f2c:	9b0d      	ldrlt	r3, [sp, #52]	; 0x34
 8007f2e:	bfb6      	itet	lt
 8007f30:	189b      	addlt	r3, r3, r2
 8007f32:	1b9e      	subge	r6, r3, r6
 8007f34:	930d      	strlt	r3, [sp, #52]	; 0x34
 8007f36:	9b01      	ldr	r3, [sp, #4]
 8007f38:	bfb8      	it	lt
 8007f3a:	2600      	movlt	r6, #0
 8007f3c:	2b00      	cmp	r3, #0
 8007f3e:	bfb5      	itete	lt
 8007f40:	eba8 0503 	sublt.w	r5, r8, r3
 8007f44:	9b01      	ldrge	r3, [sp, #4]
 8007f46:	2300      	movlt	r3, #0
 8007f48:	4645      	movge	r5, r8
 8007f4a:	e747      	b.n	8007ddc <_dtoa_r+0x75c>
 8007f4c:	9e06      	ldr	r6, [sp, #24]
 8007f4e:	9f08      	ldr	r7, [sp, #32]
 8007f50:	4645      	mov	r5, r8
 8007f52:	e74c      	b.n	8007dee <_dtoa_r+0x76e>
 8007f54:	9a06      	ldr	r2, [sp, #24]
 8007f56:	e775      	b.n	8007e44 <_dtoa_r+0x7c4>
 8007f58:	9b05      	ldr	r3, [sp, #20]
 8007f5a:	2b01      	cmp	r3, #1
 8007f5c:	dc18      	bgt.n	8007f90 <_dtoa_r+0x910>
 8007f5e:	9b02      	ldr	r3, [sp, #8]
 8007f60:	b9b3      	cbnz	r3, 8007f90 <_dtoa_r+0x910>
 8007f62:	9b03      	ldr	r3, [sp, #12]
 8007f64:	f3c3 0313 	ubfx	r3, r3, #0, #20
 8007f68:	b9a3      	cbnz	r3, 8007f94 <_dtoa_r+0x914>
 8007f6a:	9b03      	ldr	r3, [sp, #12]
 8007f6c:	f023 4300 	bic.w	r3, r3, #2147483648	; 0x80000000
 8007f70:	0d1b      	lsrs	r3, r3, #20
 8007f72:	051b      	lsls	r3, r3, #20
 8007f74:	b12b      	cbz	r3, 8007f82 <_dtoa_r+0x902>
 8007f76:	9b04      	ldr	r3, [sp, #16]
 8007f78:	3301      	adds	r3, #1
 8007f7a:	9304      	str	r3, [sp, #16]
 8007f7c:	f108 0801 	add.w	r8, r8, #1
 8007f80:	2301      	movs	r3, #1
 8007f82:	9306      	str	r3, [sp, #24]
 8007f84:	9b0d      	ldr	r3, [sp, #52]	; 0x34
 8007f86:	2b00      	cmp	r3, #0
 8007f88:	f47f af74 	bne.w	8007e74 <_dtoa_r+0x7f4>
 8007f8c:	2001      	movs	r0, #1
 8007f8e:	e779      	b.n	8007e84 <_dtoa_r+0x804>
 8007f90:	2300      	movs	r3, #0
 8007f92:	e7f6      	b.n	8007f82 <_dtoa_r+0x902>
 8007f94:	9b02      	ldr	r3, [sp, #8]
 8007f96:	e7f4      	b.n	8007f82 <_dtoa_r+0x902>
 8007f98:	d085      	beq.n	8007ea6 <_dtoa_r+0x826>
 8007f9a:	4618      	mov	r0, r3
 8007f9c:	301c      	adds	r0, #28
 8007f9e:	e77d      	b.n	8007e9c <_dtoa_r+0x81c>
 8007fa0:	40240000 	.word	0x40240000
 8007fa4:	9b01      	ldr	r3, [sp, #4]
 8007fa6:	2b00      	cmp	r3, #0
 8007fa8:	dc38      	bgt.n	800801c <_dtoa_r+0x99c>
 8007faa:	9b05      	ldr	r3, [sp, #20]
 8007fac:	2b02      	cmp	r3, #2
 8007fae:	dd35      	ble.n	800801c <_dtoa_r+0x99c>
 8007fb0:	f8dd 9004 	ldr.w	r9, [sp, #4]
 8007fb4:	f1b9 0f00 	cmp.w	r9, #0
 8007fb8:	d10d      	bne.n	8007fd6 <_dtoa_r+0x956>
 8007fba:	4631      	mov	r1, r6
 8007fbc:	464b      	mov	r3, r9
 8007fbe:	2205      	movs	r2, #5
 8007fc0:	4620      	mov	r0, r4
 8007fc2:	f000 fbd7 	bl	8008774 <__multadd>
 8007fc6:	4601      	mov	r1, r0
 8007fc8:	4606      	mov	r6, r0
 8007fca:	4658      	mov	r0, fp
 8007fcc:	f000 fdee 	bl	8008bac <__mcmp>
 8007fd0:	2800      	cmp	r0, #0
 8007fd2:	f73f adbd 	bgt.w	8007b50 <_dtoa_r+0x4d0>
 8007fd6:	9b09      	ldr	r3, [sp, #36]	; 0x24
 8007fd8:	9d00      	ldr	r5, [sp, #0]
 8007fda:	ea6f 0a03 	mvn.w	sl, r3
 8007fde:	f04f 0800 	mov.w	r8, #0
 8007fe2:	4631      	mov	r1, r6
 8007fe4:	4620      	mov	r0, r4
 8007fe6:	f000 fba3 	bl	8008730 <_Bfree>
 8007fea:	2f00      	cmp	r7, #0
 8007fec:	f43f aeb4 	beq.w	8007d58 <_dtoa_r+0x6d8>
 8007ff0:	f1b8 0f00 	cmp.w	r8, #0
 8007ff4:	d005      	beq.n	8008002 <_dtoa_r+0x982>
 8007ff6:	45b8      	cmp	r8, r7
 8007ff8:	d003      	beq.n	8008002 <_dtoa_r+0x982>
 8007ffa:	4641      	mov	r1, r8
 8007ffc:	4620      	mov	r0, r4
 8007ffe:	f000 fb97 	bl	8008730 <_Bfree>
 8008002:	4639      	mov	r1, r7
 8008004:	4620      	mov	r0, r4
 8008006:	f000 fb93 	bl	8008730 <_Bfree>
 800800a:	e6a5      	b.n	8007d58 <_dtoa_r+0x6d8>
 800800c:	2600      	movs	r6, #0
 800800e:	4637      	mov	r7, r6
 8008010:	e7e1      	b.n	8007fd6 <_dtoa_r+0x956>
 8008012:	9e0c      	ldr	r6, [sp, #48]	; 0x30
 8008014:	f8dd a01c 	ldr.w	sl, [sp, #28]
 8008018:	4637      	mov	r7, r6
 800801a:	e599      	b.n	8007b50 <_dtoa_r+0x4d0>
 800801c:	9b08      	ldr	r3, [sp, #32]
 800801e:	f8dd 9004 	ldr.w	r9, [sp, #4]
 8008022:	2b00      	cmp	r3, #0
 8008024:	f000 80fd 	beq.w	8008222 <_dtoa_r+0xba2>
 8008028:	2d00      	cmp	r5, #0
 800802a:	dd05      	ble.n	8008038 <_dtoa_r+0x9b8>
 800802c:	4639      	mov	r1, r7
 800802e:	462a      	mov	r2, r5
 8008030:	4620      	mov	r0, r4
 8008032:	f000 fd4f 	bl	8008ad4 <__lshift>
 8008036:	4607      	mov	r7, r0
 8008038:	9b06      	ldr	r3, [sp, #24]
 800803a:	2b00      	cmp	r3, #0
 800803c:	d05c      	beq.n	80080f8 <_dtoa_r+0xa78>
 800803e:	6879      	ldr	r1, [r7, #4]
 8008040:	4620      	mov	r0, r4
 8008042:	f000 fb35 	bl	80086b0 <_Balloc>
 8008046:	4605      	mov	r5, r0
 8008048:	b928      	cbnz	r0, 8008056 <_dtoa_r+0x9d6>
 800804a:	4b80      	ldr	r3, [pc, #512]	; (800824c <_dtoa_r+0xbcc>)
 800804c:	4602      	mov	r2, r0
 800804e:	f240 21ea 	movw	r1, #746	; 0x2ea
 8008052:	f7ff bb2e 	b.w	80076b2 <_dtoa_r+0x32>
 8008056:	693a      	ldr	r2, [r7, #16]
 8008058:	3202      	adds	r2, #2
 800805a:	0092      	lsls	r2, r2, #2
 800805c:	f107 010c 	add.w	r1, r7, #12
 8008060:	300c      	adds	r0, #12
 8008062:	f7fe fc6f 	bl	8006944 <memcpy>
 8008066:	2201      	movs	r2, #1
 8008068:	4629      	mov	r1, r5
 800806a:	4620      	mov	r0, r4
 800806c:	f000 fd32 	bl	8008ad4 <__lshift>
 8008070:	9b00      	ldr	r3, [sp, #0]
 8008072:	3301      	adds	r3, #1
 8008074:	9301      	str	r3, [sp, #4]
 8008076:	9b00      	ldr	r3, [sp, #0]
 8008078:	444b      	add	r3, r9
 800807a:	9307      	str	r3, [sp, #28]
 800807c:	9b02      	ldr	r3, [sp, #8]
 800807e:	f003 0301 	and.w	r3, r3, #1
 8008082:	46b8      	mov	r8, r7
 8008084:	9306      	str	r3, [sp, #24]
 8008086:	4607      	mov	r7, r0
 8008088:	9b01      	ldr	r3, [sp, #4]
 800808a:	4631      	mov	r1, r6
 800808c:	3b01      	subs	r3, #1
 800808e:	4658      	mov	r0, fp
 8008090:	9302      	str	r3, [sp, #8]
 8008092:	f7ff fa67 	bl	8007564 <quorem>
 8008096:	4603      	mov	r3, r0
 8008098:	3330      	adds	r3, #48	; 0x30
 800809a:	9004      	str	r0, [sp, #16]
 800809c:	4641      	mov	r1, r8
 800809e:	4658      	mov	r0, fp
 80080a0:	9308      	str	r3, [sp, #32]
 80080a2:	f000 fd83 	bl	8008bac <__mcmp>
 80080a6:	463a      	mov	r2, r7
 80080a8:	4681      	mov	r9, r0
 80080aa:	4631      	mov	r1, r6
 80080ac:	4620      	mov	r0, r4
 80080ae:	f000 fd99 	bl	8008be4 <__mdiff>
 80080b2:	68c2      	ldr	r2, [r0, #12]
 80080b4:	9b08      	ldr	r3, [sp, #32]
 80080b6:	4605      	mov	r5, r0
 80080b8:	bb02      	cbnz	r2, 80080fc <_dtoa_r+0xa7c>
 80080ba:	4601      	mov	r1, r0
 80080bc:	4658      	mov	r0, fp
 80080be:	f000 fd75 	bl	8008bac <__mcmp>
 80080c2:	9b08      	ldr	r3, [sp, #32]
 80080c4:	4602      	mov	r2, r0
 80080c6:	4629      	mov	r1, r5
 80080c8:	4620      	mov	r0, r4
 80080ca:	e9cd 3208 	strd	r3, r2, [sp, #32]
 80080ce:	f000 fb2f 	bl	8008730 <_Bfree>
 80080d2:	9b05      	ldr	r3, [sp, #20]
 80080d4:	9a09      	ldr	r2, [sp, #36]	; 0x24
 80080d6:	9d01      	ldr	r5, [sp, #4]
 80080d8:	ea43 0102 	orr.w	r1, r3, r2
 80080dc:	9b06      	ldr	r3, [sp, #24]
 80080de:	430b      	orrs	r3, r1
 80080e0:	9b08      	ldr	r3, [sp, #32]
 80080e2:	d10d      	bne.n	8008100 <_dtoa_r+0xa80>
 80080e4:	2b39      	cmp	r3, #57	; 0x39
 80080e6:	d029      	beq.n	800813c <_dtoa_r+0xabc>
 80080e8:	f1b9 0f00 	cmp.w	r9, #0
 80080ec:	dd01      	ble.n	80080f2 <_dtoa_r+0xa72>
 80080ee:	9b04      	ldr	r3, [sp, #16]
 80080f0:	3331      	adds	r3, #49	; 0x31
 80080f2:	9a02      	ldr	r2, [sp, #8]
 80080f4:	7013      	strb	r3, [r2, #0]
 80080f6:	e774      	b.n	8007fe2 <_dtoa_r+0x962>
 80080f8:	4638      	mov	r0, r7
 80080fa:	e7b9      	b.n	8008070 <_dtoa_r+0x9f0>
 80080fc:	2201      	movs	r2, #1
 80080fe:	e7e2      	b.n	80080c6 <_dtoa_r+0xa46>
 8008100:	f1b9 0f00 	cmp.w	r9, #0
 8008104:	db06      	blt.n	8008114 <_dtoa_r+0xa94>
 8008106:	9905      	ldr	r1, [sp, #20]
 8008108:	ea41 0909 	orr.w	r9, r1, r9
 800810c:	9906      	ldr	r1, [sp, #24]
 800810e:	ea59 0101 	orrs.w	r1, r9, r1
 8008112:	d120      	bne.n	8008156 <_dtoa_r+0xad6>
 8008114:	2a00      	cmp	r2, #0
 8008116:	ddec      	ble.n	80080f2 <_dtoa_r+0xa72>
 8008118:	4659      	mov	r1, fp
 800811a:	2201      	movs	r2, #1
 800811c:	4620      	mov	r0, r4
 800811e:	9301      	str	r3, [sp, #4]
 8008120:	f000 fcd8 	bl	8008ad4 <__lshift>
 8008124:	4631      	mov	r1, r6
 8008126:	4683      	mov	fp, r0
 8008128:	f000 fd40 	bl	8008bac <__mcmp>
 800812c:	2800      	cmp	r0, #0
 800812e:	9b01      	ldr	r3, [sp, #4]
 8008130:	dc02      	bgt.n	8008138 <_dtoa_r+0xab8>
 8008132:	d1de      	bne.n	80080f2 <_dtoa_r+0xa72>
 8008134:	07da      	lsls	r2, r3, #31
 8008136:	d5dc      	bpl.n	80080f2 <_dtoa_r+0xa72>
 8008138:	2b39      	cmp	r3, #57	; 0x39
 800813a:	d1d8      	bne.n	80080ee <_dtoa_r+0xa6e>
 800813c:	9a02      	ldr	r2, [sp, #8]
 800813e:	2339      	movs	r3, #57	; 0x39
 8008140:	7013      	strb	r3, [r2, #0]
 8008142:	462b      	mov	r3, r5
 8008144:	461d      	mov	r5, r3
 8008146:	3b01      	subs	r3, #1
 8008148:	f815 2c01 	ldrb.w	r2, [r5, #-1]
 800814c:	2a39      	cmp	r2, #57	; 0x39
 800814e:	d050      	beq.n	80081f2 <_dtoa_r+0xb72>
 8008150:	3201      	adds	r2, #1
 8008152:	701a      	strb	r2, [r3, #0]
 8008154:	e745      	b.n	8007fe2 <_dtoa_r+0x962>
 8008156:	2a00      	cmp	r2, #0
 8008158:	dd03      	ble.n	8008162 <_dtoa_r+0xae2>
 800815a:	2b39      	cmp	r3, #57	; 0x39
 800815c:	d0ee      	beq.n	800813c <_dtoa_r+0xabc>
 800815e:	3301      	adds	r3, #1
 8008160:	e7c7      	b.n	80080f2 <_dtoa_r+0xa72>
 8008162:	9a01      	ldr	r2, [sp, #4]
 8008164:	9907      	ldr	r1, [sp, #28]
 8008166:	f802 3c01 	strb.w	r3, [r2, #-1]
 800816a:	428a      	cmp	r2, r1
 800816c:	d02a      	beq.n	80081c4 <_dtoa_r+0xb44>
 800816e:	4659      	mov	r1, fp
 8008170:	2300      	movs	r3, #0
 8008172:	220a      	movs	r2, #10
 8008174:	4620      	mov	r0, r4
 8008176:	f000 fafd 	bl	8008774 <__multadd>
 800817a:	45b8      	cmp	r8, r7
 800817c:	4683      	mov	fp, r0
 800817e:	f04f 0300 	mov.w	r3, #0
 8008182:	f04f 020a 	mov.w	r2, #10
 8008186:	4641      	mov	r1, r8
 8008188:	4620      	mov	r0, r4
 800818a:	d107      	bne.n	800819c <_dtoa_r+0xb1c>
 800818c:	f000 faf2 	bl	8008774 <__multadd>
 8008190:	4680      	mov	r8, r0
 8008192:	4607      	mov	r7, r0
 8008194:	9b01      	ldr	r3, [sp, #4]
 8008196:	3301      	adds	r3, #1
 8008198:	9301      	str	r3, [sp, #4]
 800819a:	e775      	b.n	8008088 <_dtoa_r+0xa08>
 800819c:	f000 faea 	bl	8008774 <__multadd>
 80081a0:	4639      	mov	r1, r7
 80081a2:	4680      	mov	r8, r0
 80081a4:	2300      	movs	r3, #0
 80081a6:	220a      	movs	r2, #10
 80081a8:	4620      	mov	r0, r4
 80081aa:	f000 fae3 	bl	8008774 <__multadd>
 80081ae:	4607      	mov	r7, r0
 80081b0:	e7f0      	b.n	8008194 <_dtoa_r+0xb14>
 80081b2:	f1b9 0f00 	cmp.w	r9, #0
 80081b6:	9a00      	ldr	r2, [sp, #0]
 80081b8:	bfcc      	ite	gt
 80081ba:	464d      	movgt	r5, r9
 80081bc:	2501      	movle	r5, #1
 80081be:	4415      	add	r5, r2
 80081c0:	f04f 0800 	mov.w	r8, #0
 80081c4:	4659      	mov	r1, fp
 80081c6:	2201      	movs	r2, #1
 80081c8:	4620      	mov	r0, r4
 80081ca:	9301      	str	r3, [sp, #4]
 80081cc:	f000 fc82 	bl	8008ad4 <__lshift>
 80081d0:	4631      	mov	r1, r6
 80081d2:	4683      	mov	fp, r0
 80081d4:	f000 fcea 	bl	8008bac <__mcmp>
 80081d8:	2800      	cmp	r0, #0
 80081da:	dcb2      	bgt.n	8008142 <_dtoa_r+0xac2>
 80081dc:	d102      	bne.n	80081e4 <_dtoa_r+0xb64>
 80081de:	9b01      	ldr	r3, [sp, #4]
 80081e0:	07db      	lsls	r3, r3, #31
 80081e2:	d4ae      	bmi.n	8008142 <_dtoa_r+0xac2>
 80081e4:	462b      	mov	r3, r5
 80081e6:	461d      	mov	r5, r3
 80081e8:	f813 2d01 	ldrb.w	r2, [r3, #-1]!
 80081ec:	2a30      	cmp	r2, #48	; 0x30
 80081ee:	d0fa      	beq.n	80081e6 <_dtoa_r+0xb66>
 80081f0:	e6f7      	b.n	8007fe2 <_dtoa_r+0x962>
 80081f2:	9a00      	ldr	r2, [sp, #0]
 80081f4:	429a      	cmp	r2, r3
 80081f6:	d1a5      	bne.n	8008144 <_dtoa_r+0xac4>
 80081f8:	f10a 0a01 	add.w	sl, sl, #1
 80081fc:	2331      	movs	r3, #49	; 0x31
 80081fe:	e779      	b.n	80080f4 <_dtoa_r+0xa74>
 8008200:	4b13      	ldr	r3, [pc, #76]	; (8008250 <_dtoa_r+0xbd0>)
 8008202:	f7ff baaf 	b.w	8007764 <_dtoa_r+0xe4>
 8008206:	9b21      	ldr	r3, [sp, #132]	; 0x84
 8008208:	2b00      	cmp	r3, #0
 800820a:	f47f aa86 	bne.w	800771a <_dtoa_r+0x9a>
 800820e:	4b11      	ldr	r3, [pc, #68]	; (8008254 <_dtoa_r+0xbd4>)
 8008210:	f7ff baa8 	b.w	8007764 <_dtoa_r+0xe4>
 8008214:	f1b9 0f00 	cmp.w	r9, #0
 8008218:	dc03      	bgt.n	8008222 <_dtoa_r+0xba2>
 800821a:	9b05      	ldr	r3, [sp, #20]
 800821c:	2b02      	cmp	r3, #2
 800821e:	f73f aec9 	bgt.w	8007fb4 <_dtoa_r+0x934>
 8008222:	9d00      	ldr	r5, [sp, #0]
 8008224:	4631      	mov	r1, r6
 8008226:	4658      	mov	r0, fp
 8008228:	f7ff f99c 	bl	8007564 <quorem>
 800822c:	f100 0330 	add.w	r3, r0, #48	; 0x30
 8008230:	f805 3b01 	strb.w	r3, [r5], #1
 8008234:	9a00      	ldr	r2, [sp, #0]
 8008236:	1aaa      	subs	r2, r5, r2
 8008238:	4591      	cmp	r9, r2
 800823a:	ddba      	ble.n	80081b2 <_dtoa_r+0xb32>
 800823c:	4659      	mov	r1, fp
 800823e:	2300      	movs	r3, #0
 8008240:	220a      	movs	r2, #10
 8008242:	4620      	mov	r0, r4
 8008244:	f000 fa96 	bl	8008774 <__multadd>
 8008248:	4683      	mov	fp, r0
 800824a:	e7eb      	b.n	8008224 <_dtoa_r+0xba4>
 800824c:	0800ad43 	.word	0x0800ad43
 8008250:	0800ac9c 	.word	0x0800ac9c
 8008254:	0800acc0 	.word	0x0800acc0

08008258 <__sflush_r>:
 8008258:	898a      	ldrh	r2, [r1, #12]
 800825a:	e92d 41f0 	stmdb	sp!, {r4, r5, r6, r7, r8, lr}
 800825e:	4605      	mov	r5, r0
 8008260:	0710      	lsls	r0, r2, #28
 8008262:	460c      	mov	r4, r1
 8008264:	d458      	bmi.n	8008318 <__sflush_r+0xc0>
 8008266:	684b      	ldr	r3, [r1, #4]
 8008268:	2b00      	cmp	r3, #0
 800826a:	dc05      	bgt.n	8008278 <__sflush_r+0x20>
 800826c:	6c0b      	ldr	r3, [r1, #64]	; 0x40
 800826e:	2b00      	cmp	r3, #0
 8008270:	dc02      	bgt.n	8008278 <__sflush_r+0x20>
 8008272:	2000      	movs	r0, #0
 8008274:	e8bd 81f0 	ldmia.w	sp!, {r4, r5, r6, r7, r8, pc}
 8008278:	6ae6      	ldr	r6, [r4, #44]	; 0x2c
 800827a:	2e00      	cmp	r6, #0
 800827c:	d0f9      	beq.n	8008272 <__sflush_r+0x1a>
 800827e:	2300      	movs	r3, #0
 8008280:	f412 5280 	ands.w	r2, r2, #4096	; 0x1000
 8008284:	682f      	ldr	r7, [r5, #0]
 8008286:	602b      	str	r3, [r5, #0]
 8008288:	d032      	beq.n	80082f0 <__sflush_r+0x98>
 800828a:	6d60      	ldr	r0, [r4, #84]	; 0x54
 800828c:	89a3      	ldrh	r3, [r4, #12]
 800828e:	075a      	lsls	r2, r3, #29
 8008290:	d505      	bpl.n	800829e <__sflush_r+0x46>
 8008292:	6863      	ldr	r3, [r4, #4]
 8008294:	1ac0      	subs	r0, r0, r3
 8008296:	6b63      	ldr	r3, [r4, #52]	; 0x34
 8008298:	b10b      	cbz	r3, 800829e <__sflush_r+0x46>
 800829a:	6c23      	ldr	r3, [r4, #64]	; 0x40
 800829c:	1ac0      	subs	r0, r0, r3
 800829e:	2300      	movs	r3, #0
 80082a0:	4602      	mov	r2, r0
 80082a2:	6ae6      	ldr	r6, [r4, #44]	; 0x2c
 80082a4:	6a21      	ldr	r1, [r4, #32]
 80082a6:	4628      	mov	r0, r5
 80082a8:	47b0      	blx	r6
 80082aa:	1c43      	adds	r3, r0, #1
 80082ac:	89a3      	ldrh	r3, [r4, #12]
 80082ae:	d106      	bne.n	80082be <__sflush_r+0x66>
 80082b0:	6829      	ldr	r1, [r5, #0]
 80082b2:	291d      	cmp	r1, #29
 80082b4:	d82c      	bhi.n	8008310 <__sflush_r+0xb8>
 80082b6:	4a2a      	ldr	r2, [pc, #168]	; (8008360 <__sflush_r+0x108>)
 80082b8:	40ca      	lsrs	r2, r1
 80082ba:	07d6      	lsls	r6, r2, #31
 80082bc:	d528      	bpl.n	8008310 <__sflush_r+0xb8>
 80082be:	2200      	movs	r2, #0
 80082c0:	6062      	str	r2, [r4, #4]
 80082c2:	04d9      	lsls	r1, r3, #19
 80082c4:	6922      	ldr	r2, [r4, #16]
 80082c6:	6022      	str	r2, [r4, #0]
 80082c8:	d504      	bpl.n	80082d4 <__sflush_r+0x7c>
 80082ca:	1c42      	adds	r2, r0, #1
 80082cc:	d101      	bne.n	80082d2 <__sflush_r+0x7a>
 80082ce:	682b      	ldr	r3, [r5, #0]
 80082d0:	b903      	cbnz	r3, 80082d4 <__sflush_r+0x7c>
 80082d2:	6560      	str	r0, [r4, #84]	; 0x54
 80082d4:	6b61      	ldr	r1, [r4, #52]	; 0x34
 80082d6:	602f      	str	r7, [r5, #0]
 80082d8:	2900      	cmp	r1, #0
 80082da:	d0ca      	beq.n	8008272 <__sflush_r+0x1a>
 80082dc:	f104 0344 	add.w	r3, r4, #68	; 0x44
 80082e0:	4299      	cmp	r1, r3
 80082e2:	d002      	beq.n	80082ea <__sflush_r+0x92>
 80082e4:	4628      	mov	r0, r5
 80082e6:	f000 fd71 	bl	8008dcc <_free_r>
 80082ea:	2000      	movs	r0, #0
 80082ec:	6360      	str	r0, [r4, #52]	; 0x34
 80082ee:	e7c1      	b.n	8008274 <__sflush_r+0x1c>
 80082f0:	6a21      	ldr	r1, [r4, #32]
 80082f2:	2301      	movs	r3, #1
 80082f4:	4628      	mov	r0, r5
 80082f6:	47b0      	blx	r6
 80082f8:	1c41      	adds	r1, r0, #1
 80082fa:	d1c7      	bne.n	800828c <__sflush_r+0x34>
 80082fc:	682b      	ldr	r3, [r5, #0]
 80082fe:	2b00      	cmp	r3, #0
 8008300:	d0c4      	beq.n	800828c <__sflush_r+0x34>
 8008302:	2b1d      	cmp	r3, #29
 8008304:	d001      	beq.n	800830a <__sflush_r+0xb2>
 8008306:	2b16      	cmp	r3, #22
 8008308:	d101      	bne.n	800830e <__sflush_r+0xb6>
 800830a:	602f      	str	r7, [r5, #0]
 800830c:	e7b1      	b.n	8008272 <__sflush_r+0x1a>
 800830e:	89a3      	ldrh	r3, [r4, #12]
 8008310:	f043 0340 	orr.w	r3, r3, #64	; 0x40
 8008314:	81a3      	strh	r3, [r4, #12]
 8008316:	e7ad      	b.n	8008274 <__sflush_r+0x1c>
 8008318:	690f      	ldr	r7, [r1, #16]
 800831a:	2f00      	cmp	r7, #0
 800831c:	d0a9      	beq.n	8008272 <__sflush_r+0x1a>
 800831e:	0793      	lsls	r3, r2, #30
 8008320:	680e      	ldr	r6, [r1, #0]
 8008322:	bf08      	it	eq
 8008324:	694b      	ldreq	r3, [r1, #20]
 8008326:	600f      	str	r7, [r1, #0]
 8008328:	bf18      	it	ne
 800832a:	2300      	movne	r3, #0
 800832c:	eba6 0807 	sub.w	r8, r6, r7
 8008330:	608b      	str	r3, [r1, #8]
 8008332:	f1b8 0f00 	cmp.w	r8, #0
 8008336:	dd9c      	ble.n	8008272 <__sflush_r+0x1a>
 8008338:	6a21      	ldr	r1, [r4, #32]
 800833a:	6aa6      	ldr	r6, [r4, #40]	; 0x28
 800833c:	4643      	mov	r3, r8
 800833e:	463a      	mov	r2, r7
 8008340:	4628      	mov	r0, r5
 8008342:	47b0      	blx	r6
 8008344:	2800      	cmp	r0, #0
 8008346:	dc06      	bgt.n	8008356 <__sflush_r+0xfe>
 8008348:	89a3      	ldrh	r3, [r4, #12]
 800834a:	f043 0340 	orr.w	r3, r3, #64	; 0x40
 800834e:	81a3      	strh	r3, [r4, #12]
 8008350:	f04f 30ff 	mov.w	r0, #4294967295
 8008354:	e78e      	b.n	8008274 <__sflush_r+0x1c>
 8008356:	4407      	add	r7, r0
 8008358:	eba8 0800 	sub.w	r8, r8, r0
 800835c:	e7e9      	b.n	8008332 <__sflush_r+0xda>
 800835e:	bf00      	nop
 8008360:	20400001 	.word	0x20400001

08008364 <_fflush_r>:
 8008364:	b538      	push	{r3, r4, r5, lr}
 8008366:	690b      	ldr	r3, [r1, #16]
 8008368:	4605      	mov	r5, r0
 800836a:	460c      	mov	r4, r1
 800836c:	b913      	cbnz	r3, 8008374 <_fflush_r+0x10>
 800836e:	2500      	movs	r5, #0
 8008370:	4628      	mov	r0, r5
 8008372:	bd38      	pop	{r3, r4, r5, pc}
 8008374:	b118      	cbz	r0, 800837e <_fflush_r+0x1a>
 8008376:	6983      	ldr	r3, [r0, #24]
 8008378:	b90b      	cbnz	r3, 800837e <_fflush_r+0x1a>
 800837a:	f000 f887 	bl	800848c <__sinit>
 800837e:	4b14      	ldr	r3, [pc, #80]	; (80083d0 <_fflush_r+0x6c>)
 8008380:	429c      	cmp	r4, r3
 8008382:	d11b      	bne.n	80083bc <_fflush_r+0x58>
 8008384:	686c      	ldr	r4, [r5, #4]
 8008386:	f9b4 300c 	ldrsh.w	r3, [r4, #12]
 800838a:	2b00      	cmp	r3, #0
 800838c:	d0ef      	beq.n	800836e <_fflush_r+0xa>
 800838e:	6e62      	ldr	r2, [r4, #100]	; 0x64
 8008390:	07d0      	lsls	r0, r2, #31
 8008392:	d404      	bmi.n	800839e <_fflush_r+0x3a>
 8008394:	0599      	lsls	r1, r3, #22
 8008396:	d402      	bmi.n	800839e <_fflush_r+0x3a>
 8008398:	6da0      	ldr	r0, [r4, #88]	; 0x58
 800839a:	f000 f91a 	bl	80085d2 <__retarget_lock_acquire_recursive>
 800839e:	4628      	mov	r0, r5
 80083a0:	4621      	mov	r1, r4
 80083a2:	f7ff ff59 	bl	8008258 <__sflush_r>
 80083a6:	6e63      	ldr	r3, [r4, #100]	; 0x64
 80083a8:	07da      	lsls	r2, r3, #31
 80083aa:	4605      	mov	r5, r0
 80083ac:	d4e0      	bmi.n	8008370 <_fflush_r+0xc>
 80083ae:	89a3      	ldrh	r3, [r4, #12]
 80083b0:	059b      	lsls	r3, r3, #22
 80083b2:	d4dd      	bmi.n	8008370 <_fflush_r+0xc>
 80083b4:	6da0      	ldr	r0, [r4, #88]	; 0x58
 80083b6:	f000 f90d 	bl	80085d4 <__retarget_lock_release_recursive>
 80083ba:	e7d9      	b.n	8008370 <_fflush_r+0xc>
 80083bc:	4b05      	ldr	r3, [pc, #20]	; (80083d4 <_fflush_r+0x70>)
 80083be:	429c      	cmp	r4, r3
 80083c0:	d101      	bne.n	80083c6 <_fflush_r+0x62>
 80083c2:	68ac      	ldr	r4, [r5, #8]
 80083c4:	e7df      	b.n	8008386 <_fflush_r+0x22>
 80083c6:	4b04      	ldr	r3, [pc, #16]	; (80083d8 <_fflush_r+0x74>)
 80083c8:	429c      	cmp	r4, r3
 80083ca:	bf08      	it	eq
 80083cc:	68ec      	ldreq	r4, [r5, #12]
 80083ce:	e7da      	b.n	8008386 <_fflush_r+0x22>
 80083d0:	0800ad74 	.word	0x0800ad74
 80083d4:	0800ad94 	.word	0x0800ad94
 80083d8:	0800ad54 	.word	0x0800ad54

080083dc <std>:
 80083dc:	2300      	movs	r3, #0
 80083de:	b510      	push	{r4, lr}
 80083e0:	4604      	mov	r4, r0
 80083e2:	e9c0 3300 	strd	r3, r3, [r0]
 80083e6:	e9c0 3304 	strd	r3, r3, [r0, #16]
 80083ea:	6083      	str	r3, [r0, #8]
 80083ec:	8181      	strh	r1, [r0, #12]
 80083ee:	6643      	str	r3, [r0, #100]	; 0x64
 80083f0:	81c2      	strh	r2, [r0, #14]
 80083f2:	6183      	str	r3, [r0, #24]
 80083f4:	4619      	mov	r1, r3
 80083f6:	2208      	movs	r2, #8
 80083f8:	305c      	adds	r0, #92	; 0x5c
 80083fa:	f7fe facb 	bl	8006994 <memset>
 80083fe:	4b05      	ldr	r3, [pc, #20]	; (8008414 <std+0x38>)
 8008400:	6263      	str	r3, [r4, #36]	; 0x24
 8008402:	4b05      	ldr	r3, [pc, #20]	; (8008418 <std+0x3c>)
 8008404:	62a3      	str	r3, [r4, #40]	; 0x28
 8008406:	4b05      	ldr	r3, [pc, #20]	; (800841c <std+0x40>)
 8008408:	62e3      	str	r3, [r4, #44]	; 0x2c
 800840a:	4b05      	ldr	r3, [pc, #20]	; (8008420 <std+0x44>)
 800840c:	6224      	str	r4, [r4, #32]
 800840e:	6323      	str	r3, [r4, #48]	; 0x30
 8008410:	bd10      	pop	{r4, pc}
 8008412:	bf00      	nop
 8008414:	080094ad 	.word	0x080094ad
 8008418:	080094cf 	.word	0x080094cf
 800841c:	08009507 	.word	0x08009507
 8008420:	0800952b 	.word	0x0800952b

08008424 <_cleanup_r>:
 8008424:	4901      	ldr	r1, [pc, #4]	; (800842c <_cleanup_r+0x8>)
 8008426:	f000 b8af 	b.w	8008588 <_fwalk_reent>
 800842a:	bf00      	nop
 800842c:	08008365 	.word	0x08008365

08008430 <__sfmoreglue>:
 8008430:	b570      	push	{r4, r5, r6, lr}
 8008432:	1e4a      	subs	r2, r1, #1
 8008434:	2568      	movs	r5, #104	; 0x68
 8008436:	4355      	muls	r5, r2
 8008438:	460e      	mov	r6, r1
 800843a:	f105 0174 	add.w	r1, r5, #116	; 0x74
 800843e:	f000 fd15 	bl	8008e6c <_malloc_r>
 8008442:	4604      	mov	r4, r0
 8008444:	b140      	cbz	r0, 8008458 <__sfmoreglue+0x28>
 8008446:	2100      	movs	r1, #0
 8008448:	e9c0 1600 	strd	r1, r6, [r0]
 800844c:	300c      	adds	r0, #12
 800844e:	60a0      	str	r0, [r4, #8]
 8008450:	f105 0268 	add.w	r2, r5, #104	; 0x68
 8008454:	f7fe fa9e 	bl	8006994 <memset>
 8008458:	4620      	mov	r0, r4
 800845a:	bd70      	pop	{r4, r5, r6, pc}

0800845c <__sfp_lock_acquire>:
 800845c:	4801      	ldr	r0, [pc, #4]	; (8008464 <__sfp_lock_acquire+0x8>)
 800845e:	f000 b8b8 	b.w	80085d2 <__retarget_lock_acquire_recursive>
 8008462:	bf00      	nop
 8008464:	20005148 	.word	0x20005148

08008468 <__sfp_lock_release>:
 8008468:	4801      	ldr	r0, [pc, #4]	; (8008470 <__sfp_lock_release+0x8>)
 800846a:	f000 b8b3 	b.w	80085d4 <__retarget_lock_release_recursive>
 800846e:	bf00      	nop
 8008470:	20005148 	.word	0x20005148

08008474 <__sinit_lock_acquire>:
 8008474:	4801      	ldr	r0, [pc, #4]	; (800847c <__sinit_lock_acquire+0x8>)
 8008476:	f000 b8ac 	b.w	80085d2 <__retarget_lock_acquire_recursive>
 800847a:	bf00      	nop
 800847c:	20005143 	.word	0x20005143

08008480 <__sinit_lock_release>:
 8008480:	4801      	ldr	r0, [pc, #4]	; (8008488 <__sinit_lock_release+0x8>)
 8008482:	f000 b8a7 	b.w	80085d4 <__retarget_lock_release_recursive>
 8008486:	bf00      	nop
 8008488:	20005143 	.word	0x20005143

0800848c <__sinit>:
 800848c:	b510      	push	{r4, lr}
 800848e:	4604      	mov	r4, r0
 8008490:	f7ff fff0 	bl	8008474 <__sinit_lock_acquire>
 8008494:	69a3      	ldr	r3, [r4, #24]
 8008496:	b11b      	cbz	r3, 80084a0 <__sinit+0x14>
 8008498:	e8bd 4010 	ldmia.w	sp!, {r4, lr}
 800849c:	f7ff bff0 	b.w	8008480 <__sinit_lock_release>
 80084a0:	e9c4 3312 	strd	r3, r3, [r4, #72]	; 0x48
 80084a4:	6523      	str	r3, [r4, #80]	; 0x50
 80084a6:	4b13      	ldr	r3, [pc, #76]	; (80084f4 <__sinit+0x68>)
 80084a8:	4a13      	ldr	r2, [pc, #76]	; (80084f8 <__sinit+0x6c>)
 80084aa:	681b      	ldr	r3, [r3, #0]
 80084ac:	62a2      	str	r2, [r4, #40]	; 0x28
 80084ae:	42a3      	cmp	r3, r4
 80084b0:	bf04      	itt	eq
 80084b2:	2301      	moveq	r3, #1
 80084b4:	61a3      	streq	r3, [r4, #24]
 80084b6:	4620      	mov	r0, r4
 80084b8:	f000 f820 	bl	80084fc <__sfp>
 80084bc:	6060      	str	r0, [r4, #4]
 80084be:	4620      	mov	r0, r4
 80084c0:	f000 f81c 	bl	80084fc <__sfp>
 80084c4:	60a0      	str	r0, [r4, #8]
 80084c6:	4620      	mov	r0, r4
 80084c8:	f000 f818 	bl	80084fc <__sfp>
 80084cc:	2200      	movs	r2, #0
 80084ce:	60e0      	str	r0, [r4, #12]
 80084d0:	2104      	movs	r1, #4
 80084d2:	6860      	ldr	r0, [r4, #4]
 80084d4:	f7ff ff82 	bl	80083dc <std>
 80084d8:	68a0      	ldr	r0, [r4, #8]
 80084da:	2201      	movs	r2, #1
 80084dc:	2109      	movs	r1, #9
 80084de:	f7ff ff7d 	bl	80083dc <std>
 80084e2:	68e0      	ldr	r0, [r4, #12]
 80084e4:	2202      	movs	r2, #2
 80084e6:	2112      	movs	r1, #18
 80084e8:	f7ff ff78 	bl	80083dc <std>
 80084ec:	2301      	movs	r3, #1
 80084ee:	61a3      	str	r3, [r4, #24]
 80084f0:	e7d2      	b.n	8008498 <__sinit+0xc>
 80084f2:	bf00      	nop
 80084f4:	0800ac88 	.word	0x0800ac88
 80084f8:	08008425 	.word	0x08008425

080084fc <__sfp>:
 80084fc:	b5f8      	push	{r3, r4, r5, r6, r7, lr}
 80084fe:	4607      	mov	r7, r0
 8008500:	f7ff ffac 	bl	800845c <__sfp_lock_acquire>
 8008504:	4b1e      	ldr	r3, [pc, #120]	; (8008580 <__sfp+0x84>)
 8008506:	681e      	ldr	r6, [r3, #0]
 8008508:	69b3      	ldr	r3, [r6, #24]
 800850a:	b913      	cbnz	r3, 8008512 <__sfp+0x16>
 800850c:	4630      	mov	r0, r6
 800850e:	f7ff ffbd 	bl	800848c <__sinit>
 8008512:	3648      	adds	r6, #72	; 0x48
 8008514:	e9d6 3401 	ldrd	r3, r4, [r6, #4]
 8008518:	3b01      	subs	r3, #1
 800851a:	d503      	bpl.n	8008524 <__sfp+0x28>
 800851c:	6833      	ldr	r3, [r6, #0]
 800851e:	b30b      	cbz	r3, 8008564 <__sfp+0x68>
 8008520:	6836      	ldr	r6, [r6, #0]
 8008522:	e7f7      	b.n	8008514 <__sfp+0x18>
 8008524:	f9b4 500c 	ldrsh.w	r5, [r4, #12]
 8008528:	b9d5      	cbnz	r5, 8008560 <__sfp+0x64>
 800852a:	4b16      	ldr	r3, [pc, #88]	; (8008584 <__sfp+0x88>)
 800852c:	60e3      	str	r3, [r4, #12]
 800852e:	f104 0058 	add.w	r0, r4, #88	; 0x58
 8008532:	6665      	str	r5, [r4, #100]	; 0x64
 8008534:	f000 f84c 	bl	80085d0 <__retarget_lock_init_recursive>
 8008538:	f7ff ff96 	bl	8008468 <__sfp_lock_release>
 800853c:	e9c4 5501 	strd	r5, r5, [r4, #4]
 8008540:	e9c4 5504 	strd	r5, r5, [r4, #16]
 8008544:	6025      	str	r5, [r4, #0]
 8008546:	61a5      	str	r5, [r4, #24]
 8008548:	2208      	movs	r2, #8
 800854a:	4629      	mov	r1, r5
 800854c:	f104 005c 	add.w	r0, r4, #92	; 0x5c
 8008550:	f7fe fa20 	bl	8006994 <memset>
 8008554:	e9c4 550d 	strd	r5, r5, [r4, #52]	; 0x34
 8008558:	e9c4 5512 	strd	r5, r5, [r4, #72]	; 0x48
 800855c:	4620      	mov	r0, r4
 800855e:	bdf8      	pop	{r3, r4, r5, r6, r7, pc}
 8008560:	3468      	adds	r4, #104	; 0x68
 8008562:	e7d9      	b.n	8008518 <__sfp+0x1c>
 8008564:	2104      	movs	r1, #4
 8008566:	4638      	mov	r0, r7
 8008568:	f7ff ff62 	bl	8008430 <__sfmoreglue>
 800856c:	4604      	mov	r4, r0
 800856e:	6030      	str	r0, [r6, #0]
 8008570:	2800      	cmp	r0, #0
 8008572:	d1d5      	bne.n	8008520 <__sfp+0x24>
 8008574:	f7ff ff78 	bl	8008468 <__sfp_lock_release>
 8008578:	230c      	movs	r3, #12
 800857a:	603b      	str	r3, [r7, #0]
 800857c:	e7ee      	b.n	800855c <__sfp+0x60>
 800857e:	bf00      	nop
 8008580:	0800ac88 	.word	0x0800ac88
 8008584:	ffff0001 	.word	0xffff0001

08008588 <_fwalk_reent>:
 8008588:	e92d 43f8 	stmdb	sp!, {r3, r4, r5, r6, r7, r8, r9, lr}
 800858c:	4606      	mov	r6, r0
 800858e:	4688      	mov	r8, r1
 8008590:	f100 0448 	add.w	r4, r0, #72	; 0x48
 8008594:	2700      	movs	r7, #0
 8008596:	e9d4 9501 	ldrd	r9, r5, [r4, #4]
 800859a:	f1b9 0901 	subs.w	r9, r9, #1
 800859e:	d505      	bpl.n	80085ac <_fwalk_reent+0x24>
 80085a0:	6824      	ldr	r4, [r4, #0]
 80085a2:	2c00      	cmp	r4, #0
 80085a4:	d1f7      	bne.n	8008596 <_fwalk_reent+0xe>
 80085a6:	4638      	mov	r0, r7
 80085a8:	e8bd 83f8 	ldmia.w	sp!, {r3, r4, r5, r6, r7, r8, r9, pc}
 80085ac:	89ab      	ldrh	r3, [r5, #12]
 80085ae:	2b01      	cmp	r3, #1
 80085b0:	d907      	bls.n	80085c2 <_fwalk_reent+0x3a>
 80085b2:	f9b5 300e 	ldrsh.w	r3, [r5, #14]
 80085b6:	3301      	adds	r3, #1
 80085b8:	d003      	beq.n	80085c2 <_fwalk_reent+0x3a>
 80085ba:	4629      	mov	r1, r5
 80085bc:	4630      	mov	r0, r6
 80085be:	47c0      	blx	r8
 80085c0:	4307      	orrs	r7, r0
 80085c2:	3568      	adds	r5, #104	; 0x68
 80085c4:	e7e9      	b.n	800859a <_fwalk_reent+0x12>
	...

080085c8 <_localeconv_r>:
 80085c8:	4800      	ldr	r0, [pc, #0]	; (80085cc <_localeconv_r+0x4>)
 80085ca:	4770      	bx	lr
 80085cc:	20000168 	.word	0x20000168

080085d0 <__retarget_lock_init_recursive>:
 80085d0:	4770      	bx	lr

080085d2 <__retarget_lock_acquire_recursive>:
 80085d2:	4770      	bx	lr

080085d4 <__retarget_lock_release_recursive>:
 80085d4:	4770      	bx	lr

080085d6 <__swhatbuf_r>:
 80085d6:	b570      	push	{r4, r5, r6, lr}
 80085d8:	460e      	mov	r6, r1
 80085da:	f9b1 100e 	ldrsh.w	r1, [r1, #14]
 80085de:	2900      	cmp	r1, #0
 80085e0:	b096      	sub	sp, #88	; 0x58
 80085e2:	4614      	mov	r4, r2
 80085e4:	461d      	mov	r5, r3
 80085e6:	da07      	bge.n	80085f8 <__swhatbuf_r+0x22>
 80085e8:	2300      	movs	r3, #0
 80085ea:	602b      	str	r3, [r5, #0]
 80085ec:	89b3      	ldrh	r3, [r6, #12]
 80085ee:	061a      	lsls	r2, r3, #24
 80085f0:	d410      	bmi.n	8008614 <__swhatbuf_r+0x3e>
 80085f2:	f44f 6380 	mov.w	r3, #1024	; 0x400
 80085f6:	e00e      	b.n	8008616 <__swhatbuf_r+0x40>
 80085f8:	466a      	mov	r2, sp
 80085fa:	f000 ffed 	bl	80095d8 <_fstat_r>
 80085fe:	2800      	cmp	r0, #0
 8008600:	dbf2      	blt.n	80085e8 <__swhatbuf_r+0x12>
 8008602:	9a01      	ldr	r2, [sp, #4]
 8008604:	f402 4270 	and.w	r2, r2, #61440	; 0xf000
 8008608:	f5a2 5300 	sub.w	r3, r2, #8192	; 0x2000
 800860c:	425a      	negs	r2, r3
 800860e:	415a      	adcs	r2, r3
 8008610:	602a      	str	r2, [r5, #0]
 8008612:	e7ee      	b.n	80085f2 <__swhatbuf_r+0x1c>
 8008614:	2340      	movs	r3, #64	; 0x40
 8008616:	2000      	movs	r0, #0
 8008618:	6023      	str	r3, [r4, #0]
 800861a:	b016      	add	sp, #88	; 0x58
 800861c:	bd70      	pop	{r4, r5, r6, pc}
	...

08008620 <__smakebuf_r>:
 8008620:	898b      	ldrh	r3, [r1, #12]
 8008622:	b573      	push	{r0, r1, r4, r5, r6, lr}
 8008624:	079d      	lsls	r5, r3, #30
 8008626:	4606      	mov	r6, r0
 8008628:	460c      	mov	r4, r1
 800862a:	d507      	bpl.n	800863c <__smakebuf_r+0x1c>
 800862c:	f104 0347 	add.w	r3, r4, #71	; 0x47
 8008630:	6023      	str	r3, [r4, #0]
 8008632:	6123      	str	r3, [r4, #16]
 8008634:	2301      	movs	r3, #1
 8008636:	6163      	str	r3, [r4, #20]
 8008638:	b002      	add	sp, #8
 800863a:	bd70      	pop	{r4, r5, r6, pc}
 800863c:	ab01      	add	r3, sp, #4
 800863e:	466a      	mov	r2, sp
 8008640:	f7ff ffc9 	bl	80085d6 <__swhatbuf_r>
 8008644:	9900      	ldr	r1, [sp, #0]
 8008646:	4605      	mov	r5, r0
 8008648:	4630      	mov	r0, r6
 800864a:	f000 fc0f 	bl	8008e6c <_malloc_r>
 800864e:	b948      	cbnz	r0, 8008664 <__smakebuf_r+0x44>
 8008650:	f9b4 300c 	ldrsh.w	r3, [r4, #12]
 8008654:	059a      	lsls	r2, r3, #22
 8008656:	d4ef      	bmi.n	8008638 <__smakebuf_r+0x18>
 8008658:	f023 0303 	bic.w	r3, r3, #3
 800865c:	f043 0302 	orr.w	r3, r3, #2
 8008660:	81a3      	strh	r3, [r4, #12]
 8008662:	e7e3      	b.n	800862c <__smakebuf_r+0xc>
 8008664:	4b0d      	ldr	r3, [pc, #52]	; (800869c <__smakebuf_r+0x7c>)
 8008666:	62b3      	str	r3, [r6, #40]	; 0x28
 8008668:	89a3      	ldrh	r3, [r4, #12]
 800866a:	6020      	str	r0, [r4, #0]
 800866c:	f043 0380 	orr.w	r3, r3, #128	; 0x80
 8008670:	81a3      	strh	r3, [r4, #12]
 8008672:	9b00      	ldr	r3, [sp, #0]
 8008674:	6163      	str	r3, [r4, #20]
 8008676:	9b01      	ldr	r3, [sp, #4]
 8008678:	6120      	str	r0, [r4, #16]
 800867a:	b15b      	cbz	r3, 8008694 <__smakebuf_r+0x74>
 800867c:	f9b4 100e 	ldrsh.w	r1, [r4, #14]
 8008680:	4630      	mov	r0, r6
 8008682:	f000 ffbb 	bl	80095fc <_isatty_r>
 8008686:	b128      	cbz	r0, 8008694 <__smakebuf_r+0x74>
 8008688:	89a3      	ldrh	r3, [r4, #12]
 800868a:	f023 0303 	bic.w	r3, r3, #3
 800868e:	f043 0301 	orr.w	r3, r3, #1
 8008692:	81a3      	strh	r3, [r4, #12]
 8008694:	89a0      	ldrh	r0, [r4, #12]
 8008696:	4305      	orrs	r5, r0
 8008698:	81a5      	strh	r5, [r4, #12]
 800869a:	e7cd      	b.n	8008638 <__smakebuf_r+0x18>
 800869c:	08008425 	.word	0x08008425

080086a0 <malloc>:
 80086a0:	4b02      	ldr	r3, [pc, #8]	; (80086ac <malloc+0xc>)
 80086a2:	4601      	mov	r1, r0
 80086a4:	6818      	ldr	r0, [r3, #0]
 80086a6:	f000 bbe1 	b.w	8008e6c <_malloc_r>
 80086aa:	bf00      	nop
 80086ac:	20000014 	.word	0x20000014

080086b0 <_Balloc>:
 80086b0:	b570      	push	{r4, r5, r6, lr}
 80086b2:	6a46      	ldr	r6, [r0, #36]	; 0x24
 80086b4:	4604      	mov	r4, r0
 80086b6:	460d      	mov	r5, r1
 80086b8:	b976      	cbnz	r6, 80086d8 <_Balloc+0x28>
 80086ba:	2010      	movs	r0, #16
 80086bc:	f7ff fff0 	bl	80086a0 <malloc>
 80086c0:	4602      	mov	r2, r0
 80086c2:	6260      	str	r0, [r4, #36]	; 0x24
 80086c4:	b920      	cbnz	r0, 80086d0 <_Balloc+0x20>
 80086c6:	4b18      	ldr	r3, [pc, #96]	; (8008728 <_Balloc+0x78>)
 80086c8:	4818      	ldr	r0, [pc, #96]	; (800872c <_Balloc+0x7c>)
 80086ca:	2166      	movs	r1, #102	; 0x66
 80086cc:	f000 ff44 	bl	8009558 <__assert_func>
 80086d0:	e9c0 6601 	strd	r6, r6, [r0, #4]
 80086d4:	6006      	str	r6, [r0, #0]
 80086d6:	60c6      	str	r6, [r0, #12]
 80086d8:	6a66      	ldr	r6, [r4, #36]	; 0x24
 80086da:	68f3      	ldr	r3, [r6, #12]
 80086dc:	b183      	cbz	r3, 8008700 <_Balloc+0x50>
 80086de:	6a63      	ldr	r3, [r4, #36]	; 0x24
 80086e0:	68db      	ldr	r3, [r3, #12]
 80086e2:	f853 0025 	ldr.w	r0, [r3, r5, lsl #2]
 80086e6:	b9b8      	cbnz	r0, 8008718 <_Balloc+0x68>
 80086e8:	2101      	movs	r1, #1
 80086ea:	fa01 f605 	lsl.w	r6, r1, r5
 80086ee:	1d72      	adds	r2, r6, #5
 80086f0:	0092      	lsls	r2, r2, #2
 80086f2:	4620      	mov	r0, r4
 80086f4:	f000 fb5a 	bl	8008dac <_calloc_r>
 80086f8:	b160      	cbz	r0, 8008714 <_Balloc+0x64>
 80086fa:	e9c0 5601 	strd	r5, r6, [r0, #4]
 80086fe:	e00e      	b.n	800871e <_Balloc+0x6e>
 8008700:	2221      	movs	r2, #33	; 0x21
 8008702:	2104      	movs	r1, #4
 8008704:	4620      	mov	r0, r4
 8008706:	f000 fb51 	bl	8008dac <_calloc_r>
 800870a:	6a63      	ldr	r3, [r4, #36]	; 0x24
 800870c:	60f0      	str	r0, [r6, #12]
 800870e:	68db      	ldr	r3, [r3, #12]
 8008710:	2b00      	cmp	r3, #0
 8008712:	d1e4      	bne.n	80086de <_Balloc+0x2e>
 8008714:	2000      	movs	r0, #0
 8008716:	bd70      	pop	{r4, r5, r6, pc}
 8008718:	6802      	ldr	r2, [r0, #0]
 800871a:	f843 2025 	str.w	r2, [r3, r5, lsl #2]
 800871e:	2300      	movs	r3, #0
 8008720:	e9c0 3303 	strd	r3, r3, [r0, #12]
 8008724:	e7f7      	b.n	8008716 <_Balloc+0x66>
 8008726:	bf00      	nop
 8008728:	0800accd 	.word	0x0800accd
 800872c:	0800adb4 	.word	0x0800adb4

08008730 <_Bfree>:
 8008730:	b570      	push	{r4, r5, r6, lr}
 8008732:	6a46      	ldr	r6, [r0, #36]	; 0x24
 8008734:	4605      	mov	r5, r0
 8008736:	460c      	mov	r4, r1
 8008738:	b976      	cbnz	r6, 8008758 <_Bfree+0x28>
 800873a:	2010      	movs	r0, #16
 800873c:	f7ff ffb0 	bl	80086a0 <malloc>
 8008740:	4602      	mov	r2, r0
 8008742:	6268      	str	r0, [r5, #36]	; 0x24
 8008744:	b920      	cbnz	r0, 8008750 <_Bfree+0x20>
 8008746:	4b09      	ldr	r3, [pc, #36]	; (800876c <_Bfree+0x3c>)
 8008748:	4809      	ldr	r0, [pc, #36]	; (8008770 <_Bfree+0x40>)
 800874a:	218a      	movs	r1, #138	; 0x8a
 800874c:	f000 ff04 	bl	8009558 <__assert_func>
 8008750:	e9c0 6601 	strd	r6, r6, [r0, #4]
 8008754:	6006      	str	r6, [r0, #0]
 8008756:	60c6      	str	r6, [r0, #12]
 8008758:	b13c      	cbz	r4, 800876a <_Bfree+0x3a>
 800875a:	6a6b      	ldr	r3, [r5, #36]	; 0x24
 800875c:	6862      	ldr	r2, [r4, #4]
 800875e:	68db      	ldr	r3, [r3, #12]
 8008760:	f853 1022 	ldr.w	r1, [r3, r2, lsl #2]
 8008764:	6021      	str	r1, [r4, #0]
 8008766:	f843 4022 	str.w	r4, [r3, r2, lsl #2]
 800876a:	bd70      	pop	{r4, r5, r6, pc}
 800876c:	0800accd 	.word	0x0800accd
 8008770:	0800adb4 	.word	0x0800adb4

08008774 <__multadd>:
 8008774:	e92d 41f0 	stmdb	sp!, {r4, r5, r6, r7, r8, lr}
 8008778:	690e      	ldr	r6, [r1, #16]
 800877a:	4607      	mov	r7, r0
 800877c:	4698      	mov	r8, r3
 800877e:	460c      	mov	r4, r1
 8008780:	f101 0014 	add.w	r0, r1, #20
 8008784:	2300      	movs	r3, #0
 8008786:	6805      	ldr	r5, [r0, #0]
 8008788:	b2a9      	uxth	r1, r5
 800878a:	fb02 8101 	mla	r1, r2, r1, r8
 800878e:	ea4f 4c11 	mov.w	ip, r1, lsr #16
 8008792:	0c2d      	lsrs	r5, r5, #16
 8008794:	fb02 c505 	mla	r5, r2, r5, ip
 8008798:	b289      	uxth	r1, r1
 800879a:	3301      	adds	r3, #1
 800879c:	eb01 4105 	add.w	r1, r1, r5, lsl #16
 80087a0:	429e      	cmp	r6, r3
 80087a2:	f840 1b04 	str.w	r1, [r0], #4
 80087a6:	ea4f 4815 	mov.w	r8, r5, lsr #16
 80087aa:	dcec      	bgt.n	8008786 <__multadd+0x12>
 80087ac:	f1b8 0f00 	cmp.w	r8, #0
 80087b0:	d022      	beq.n	80087f8 <__multadd+0x84>
 80087b2:	68a3      	ldr	r3, [r4, #8]
 80087b4:	42b3      	cmp	r3, r6
 80087b6:	dc19      	bgt.n	80087ec <__multadd+0x78>
 80087b8:	6861      	ldr	r1, [r4, #4]
 80087ba:	4638      	mov	r0, r7
 80087bc:	3101      	adds	r1, #1
 80087be:	f7ff ff77 	bl	80086b0 <_Balloc>
 80087c2:	4605      	mov	r5, r0
 80087c4:	b928      	cbnz	r0, 80087d2 <__multadd+0x5e>
 80087c6:	4602      	mov	r2, r0
 80087c8:	4b0d      	ldr	r3, [pc, #52]	; (8008800 <__multadd+0x8c>)
 80087ca:	480e      	ldr	r0, [pc, #56]	; (8008804 <__multadd+0x90>)
 80087cc:	21b5      	movs	r1, #181	; 0xb5
 80087ce:	f000 fec3 	bl	8009558 <__assert_func>
 80087d2:	6922      	ldr	r2, [r4, #16]
 80087d4:	3202      	adds	r2, #2
 80087d6:	f104 010c 	add.w	r1, r4, #12
 80087da:	0092      	lsls	r2, r2, #2
 80087dc:	300c      	adds	r0, #12
 80087de:	f7fe f8b1 	bl	8006944 <memcpy>
 80087e2:	4621      	mov	r1, r4
 80087e4:	4638      	mov	r0, r7
 80087e6:	f7ff ffa3 	bl	8008730 <_Bfree>
 80087ea:	462c      	mov	r4, r5
 80087ec:	eb04 0386 	add.w	r3, r4, r6, lsl #2
 80087f0:	3601      	adds	r6, #1
 80087f2:	f8c3 8014 	str.w	r8, [r3, #20]
 80087f6:	6126      	str	r6, [r4, #16]
 80087f8:	4620      	mov	r0, r4
 80087fa:	e8bd 81f0 	ldmia.w	sp!, {r4, r5, r6, r7, r8, pc}
 80087fe:	bf00      	nop
 8008800:	0800ad43 	.word	0x0800ad43
 8008804:	0800adb4 	.word	0x0800adb4

08008808 <__hi0bits>:
 8008808:	0c03      	lsrs	r3, r0, #16
 800880a:	041b      	lsls	r3, r3, #16
 800880c:	b9d3      	cbnz	r3, 8008844 <__hi0bits+0x3c>
 800880e:	0400      	lsls	r0, r0, #16
 8008810:	2310      	movs	r3, #16
 8008812:	f010 4f7f 	tst.w	r0, #4278190080	; 0xff000000
 8008816:	bf04      	itt	eq
 8008818:	0200      	lsleq	r0, r0, #8
 800881a:	3308      	addeq	r3, #8
 800881c:	f010 4f70 	tst.w	r0, #4026531840	; 0xf0000000
 8008820:	bf04      	itt	eq
 8008822:	0100      	lsleq	r0, r0, #4
 8008824:	3304      	addeq	r3, #4
 8008826:	f010 4f40 	tst.w	r0, #3221225472	; 0xc0000000
 800882a:	bf04      	itt	eq
 800882c:	0080      	lsleq	r0, r0, #2
 800882e:	3302      	addeq	r3, #2
 8008830:	2800      	cmp	r0, #0
 8008832:	db05      	blt.n	8008840 <__hi0bits+0x38>
 8008834:	f010 4f80 	tst.w	r0, #1073741824	; 0x40000000
 8008838:	f103 0301 	add.w	r3, r3, #1
 800883c:	bf08      	it	eq
 800883e:	2320      	moveq	r3, #32
 8008840:	4618      	mov	r0, r3
 8008842:	4770      	bx	lr
 8008844:	2300      	movs	r3, #0
 8008846:	e7e4      	b.n	8008812 <__hi0bits+0xa>

08008848 <__lo0bits>:
 8008848:	6803      	ldr	r3, [r0, #0]
 800884a:	f013 0207 	ands.w	r2, r3, #7
 800884e:	4601      	mov	r1, r0
 8008850:	d00b      	beq.n	800886a <__lo0bits+0x22>
 8008852:	07da      	lsls	r2, r3, #31
 8008854:	d424      	bmi.n	80088a0 <__lo0bits+0x58>
 8008856:	0798      	lsls	r0, r3, #30
 8008858:	bf49      	itett	mi
 800885a:	085b      	lsrmi	r3, r3, #1
 800885c:	089b      	lsrpl	r3, r3, #2
 800885e:	2001      	movmi	r0, #1
 8008860:	600b      	strmi	r3, [r1, #0]
 8008862:	bf5c      	itt	pl
 8008864:	600b      	strpl	r3, [r1, #0]
 8008866:	2002      	movpl	r0, #2
 8008868:	4770      	bx	lr
 800886a:	b298      	uxth	r0, r3
 800886c:	b9b0      	cbnz	r0, 800889c <__lo0bits+0x54>
 800886e:	0c1b      	lsrs	r3, r3, #16
 8008870:	2010      	movs	r0, #16
 8008872:	f013 0fff 	tst.w	r3, #255	; 0xff
 8008876:	bf04      	itt	eq
 8008878:	0a1b      	lsreq	r3, r3, #8
 800887a:	3008      	addeq	r0, #8
 800887c:	071a      	lsls	r2, r3, #28
 800887e:	bf04      	itt	eq
 8008880:	091b      	lsreq	r3, r3, #4
 8008882:	3004      	addeq	r0, #4
 8008884:	079a      	lsls	r2, r3, #30
 8008886:	bf04      	itt	eq
 8008888:	089b      	lsreq	r3, r3, #2
 800888a:	3002      	addeq	r0, #2
 800888c:	07da      	lsls	r2, r3, #31
 800888e:	d403      	bmi.n	8008898 <__lo0bits+0x50>
 8008890:	085b      	lsrs	r3, r3, #1
 8008892:	f100 0001 	add.w	r0, r0, #1
 8008896:	d005      	beq.n	80088a4 <__lo0bits+0x5c>
 8008898:	600b      	str	r3, [r1, #0]
 800889a:	4770      	bx	lr
 800889c:	4610      	mov	r0, r2
 800889e:	e7e8      	b.n	8008872 <__lo0bits+0x2a>
 80088a0:	2000      	movs	r0, #0
 80088a2:	4770      	bx	lr
 80088a4:	2020      	movs	r0, #32
 80088a6:	4770      	bx	lr

080088a8 <__i2b>:
 80088a8:	b510      	push	{r4, lr}
 80088aa:	460c      	mov	r4, r1
 80088ac:	2101      	movs	r1, #1
 80088ae:	f7ff feff 	bl	80086b0 <_Balloc>
 80088b2:	4602      	mov	r2, r0
 80088b4:	b928      	cbnz	r0, 80088c2 <__i2b+0x1a>
 80088b6:	4b05      	ldr	r3, [pc, #20]	; (80088cc <__i2b+0x24>)
 80088b8:	4805      	ldr	r0, [pc, #20]	; (80088d0 <__i2b+0x28>)
 80088ba:	f44f 71a0 	mov.w	r1, #320	; 0x140
 80088be:	f000 fe4b 	bl	8009558 <__assert_func>
 80088c2:	2301      	movs	r3, #1
 80088c4:	6144      	str	r4, [r0, #20]
 80088c6:	6103      	str	r3, [r0, #16]
 80088c8:	bd10      	pop	{r4, pc}
 80088ca:	bf00      	nop
 80088cc:	0800ad43 	.word	0x0800ad43
 80088d0:	0800adb4 	.word	0x0800adb4

080088d4 <__multiply>:
 80088d4:	e92d 4ff0 	stmdb	sp!, {r4, r5, r6, r7, r8, r9, sl, fp, lr}
 80088d8:	4614      	mov	r4, r2
 80088da:	690a      	ldr	r2, [r1, #16]
 80088dc:	6923      	ldr	r3, [r4, #16]
 80088de:	429a      	cmp	r2, r3
 80088e0:	bfb8      	it	lt
 80088e2:	460b      	movlt	r3, r1
 80088e4:	460d      	mov	r5, r1
 80088e6:	bfbc      	itt	lt
 80088e8:	4625      	movlt	r5, r4
 80088ea:	461c      	movlt	r4, r3
 80088ec:	f8d5 a010 	ldr.w	sl, [r5, #16]
 80088f0:	f8d4 9010 	ldr.w	r9, [r4, #16]
 80088f4:	68ab      	ldr	r3, [r5, #8]
 80088f6:	6869      	ldr	r1, [r5, #4]
 80088f8:	eb0a 0709 	add.w	r7, sl, r9
 80088fc:	42bb      	cmp	r3, r7
 80088fe:	b085      	sub	sp, #20
 8008900:	bfb8      	it	lt
 8008902:	3101      	addlt	r1, #1
 8008904:	f7ff fed4 	bl	80086b0 <_Balloc>
 8008908:	b930      	cbnz	r0, 8008918 <__multiply+0x44>
 800890a:	4602      	mov	r2, r0
 800890c:	4b42      	ldr	r3, [pc, #264]	; (8008a18 <__multiply+0x144>)
 800890e:	4843      	ldr	r0, [pc, #268]	; (8008a1c <__multiply+0x148>)
 8008910:	f240 115d 	movw	r1, #349	; 0x15d
 8008914:	f000 fe20 	bl	8009558 <__assert_func>
 8008918:	f100 0614 	add.w	r6, r0, #20
 800891c:	eb06 0887 	add.w	r8, r6, r7, lsl #2
 8008920:	4633      	mov	r3, r6
 8008922:	2200      	movs	r2, #0
 8008924:	4543      	cmp	r3, r8
 8008926:	d31e      	bcc.n	8008966 <__multiply+0x92>
 8008928:	f105 0c14 	add.w	ip, r5, #20
 800892c:	f104 0314 	add.w	r3, r4, #20
 8008930:	eb0c 0c8a 	add.w	ip, ip, sl, lsl #2
 8008934:	eb03 0289 	add.w	r2, r3, r9, lsl #2
 8008938:	9202      	str	r2, [sp, #8]
 800893a:	ebac 0205 	sub.w	r2, ip, r5
 800893e:	3a15      	subs	r2, #21
 8008940:	f022 0203 	bic.w	r2, r2, #3
 8008944:	3204      	adds	r2, #4
 8008946:	f105 0115 	add.w	r1, r5, #21
 800894a:	458c      	cmp	ip, r1
 800894c:	bf38      	it	cc
 800894e:	2204      	movcc	r2, #4
 8008950:	9201      	str	r2, [sp, #4]
 8008952:	9a02      	ldr	r2, [sp, #8]
 8008954:	9303      	str	r3, [sp, #12]
 8008956:	429a      	cmp	r2, r3
 8008958:	d808      	bhi.n	800896c <__multiply+0x98>
 800895a:	2f00      	cmp	r7, #0
 800895c:	dc55      	bgt.n	8008a0a <__multiply+0x136>
 800895e:	6107      	str	r7, [r0, #16]
 8008960:	b005      	add	sp, #20
 8008962:	e8bd 8ff0 	ldmia.w	sp!, {r4, r5, r6, r7, r8, r9, sl, fp, pc}
 8008966:	f843 2b04 	str.w	r2, [r3], #4
 800896a:	e7db      	b.n	8008924 <__multiply+0x50>
 800896c:	f8b3 a000 	ldrh.w	sl, [r3]
 8008970:	f1ba 0f00 	cmp.w	sl, #0
 8008974:	d020      	beq.n	80089b8 <__multiply+0xe4>
 8008976:	f105 0e14 	add.w	lr, r5, #20
 800897a:	46b1      	mov	r9, r6
 800897c:	2200      	movs	r2, #0
 800897e:	f85e 4b04 	ldr.w	r4, [lr], #4
 8008982:	f8d9 b000 	ldr.w	fp, [r9]
 8008986:	b2a1      	uxth	r1, r4
 8008988:	fa1f fb8b 	uxth.w	fp, fp
 800898c:	fb0a b101 	mla	r1, sl, r1, fp
 8008990:	4411      	add	r1, r2
 8008992:	f8d9 2000 	ldr.w	r2, [r9]
 8008996:	0c24      	lsrs	r4, r4, #16
 8008998:	0c12      	lsrs	r2, r2, #16
 800899a:	fb0a 2404 	mla	r4, sl, r4, r2
 800899e:	eb04 4411 	add.w	r4, r4, r1, lsr #16
 80089a2:	b289      	uxth	r1, r1
 80089a4:	ea41 4104 	orr.w	r1, r1, r4, lsl #16
 80089a8:	45f4      	cmp	ip, lr
 80089aa:	f849 1b04 	str.w	r1, [r9], #4
 80089ae:	ea4f 4214 	mov.w	r2, r4, lsr #16
 80089b2:	d8e4      	bhi.n	800897e <__multiply+0xaa>
 80089b4:	9901      	ldr	r1, [sp, #4]
 80089b6:	5072      	str	r2, [r6, r1]
 80089b8:	9a03      	ldr	r2, [sp, #12]
 80089ba:	f8b2 9002 	ldrh.w	r9, [r2, #2]
 80089be:	3304      	adds	r3, #4
 80089c0:	f1b9 0f00 	cmp.w	r9, #0
 80089c4:	d01f      	beq.n	8008a06 <__multiply+0x132>
 80089c6:	6834      	ldr	r4, [r6, #0]
 80089c8:	f105 0114 	add.w	r1, r5, #20
 80089cc:	46b6      	mov	lr, r6
 80089ce:	f04f 0a00 	mov.w	sl, #0
 80089d2:	880a      	ldrh	r2, [r1, #0]
 80089d4:	f8be b002 	ldrh.w	fp, [lr, #2]
 80089d8:	fb09 b202 	mla	r2, r9, r2, fp
 80089dc:	4492      	add	sl, r2
 80089de:	b2a4      	uxth	r4, r4
 80089e0:	ea44 440a 	orr.w	r4, r4, sl, lsl #16
 80089e4:	f84e 4b04 	str.w	r4, [lr], #4
 80089e8:	f851 4b04 	ldr.w	r4, [r1], #4
 80089ec:	f8be 2000 	ldrh.w	r2, [lr]
 80089f0:	0c24      	lsrs	r4, r4, #16
 80089f2:	fb09 2404 	mla	r4, r9, r4, r2
 80089f6:	eb04 441a 	add.w	r4, r4, sl, lsr #16
 80089fa:	458c      	cmp	ip, r1
 80089fc:	ea4f 4a14 	mov.w	sl, r4, lsr #16
 8008a00:	d8e7      	bhi.n	80089d2 <__multiply+0xfe>
 8008a02:	9a01      	ldr	r2, [sp, #4]
 8008a04:	50b4      	str	r4, [r6, r2]
 8008a06:	3604      	adds	r6, #4
 8008a08:	e7a3      	b.n	8008952 <__multiply+0x7e>
 8008a0a:	f858 3d04 	ldr.w	r3, [r8, #-4]!
 8008a0e:	2b00      	cmp	r3, #0
 8008a10:	d1a5      	bne.n	800895e <__multiply+0x8a>
 8008a12:	3f01      	subs	r7, #1
 8008a14:	e7a1      	b.n	800895a <__multiply+0x86>
 8008a16:	bf00      	nop
 8008a18:	0800ad43 	.word	0x0800ad43
 8008a1c:	0800adb4 	.word	0x0800adb4

08008a20 <__pow5mult>:
 8008a20:	e92d 43f8 	stmdb	sp!, {r3, r4, r5, r6, r7, r8, r9, lr}
 8008a24:	4615      	mov	r5, r2
 8008a26:	f012 0203 	ands.w	r2, r2, #3
 8008a2a:	4606      	mov	r6, r0
 8008a2c:	460f      	mov	r7, r1
 8008a2e:	d007      	beq.n	8008a40 <__pow5mult+0x20>
 8008a30:	4c25      	ldr	r4, [pc, #148]	; (8008ac8 <__pow5mult+0xa8>)
 8008a32:	3a01      	subs	r2, #1
 8008a34:	2300      	movs	r3, #0
 8008a36:	f854 2022 	ldr.w	r2, [r4, r2, lsl #2]
 8008a3a:	f7ff fe9b 	bl	8008774 <__multadd>
 8008a3e:	4607      	mov	r7, r0
 8008a40:	10ad      	asrs	r5, r5, #2
 8008a42:	d03d      	beq.n	8008ac0 <__pow5mult+0xa0>
 8008a44:	6a74      	ldr	r4, [r6, #36]	; 0x24
 8008a46:	b97c      	cbnz	r4, 8008a68 <__pow5mult+0x48>
 8008a48:	2010      	movs	r0, #16
 8008a4a:	f7ff fe29 	bl	80086a0 <malloc>
 8008a4e:	4602      	mov	r2, r0
 8008a50:	6270      	str	r0, [r6, #36]	; 0x24
 8008a52:	b928      	cbnz	r0, 8008a60 <__pow5mult+0x40>
 8008a54:	4b1d      	ldr	r3, [pc, #116]	; (8008acc <__pow5mult+0xac>)
 8008a56:	481e      	ldr	r0, [pc, #120]	; (8008ad0 <__pow5mult+0xb0>)
 8008a58:	f44f 71d7 	mov.w	r1, #430	; 0x1ae
 8008a5c:	f000 fd7c 	bl	8009558 <__assert_func>
 8008a60:	e9c0 4401 	strd	r4, r4, [r0, #4]
 8008a64:	6004      	str	r4, [r0, #0]
 8008a66:	60c4      	str	r4, [r0, #12]
 8008a68:	f8d6 8024 	ldr.w	r8, [r6, #36]	; 0x24
 8008a6c:	f8d8 4008 	ldr.w	r4, [r8, #8]
 8008a70:	b94c      	cbnz	r4, 8008a86 <__pow5mult+0x66>
 8008a72:	f240 2171 	movw	r1, #625	; 0x271
 8008a76:	4630      	mov	r0, r6
 8008a78:	f7ff ff16 	bl	80088a8 <__i2b>
 8008a7c:	2300      	movs	r3, #0
 8008a7e:	f8c8 0008 	str.w	r0, [r8, #8]
 8008a82:	4604      	mov	r4, r0
 8008a84:	6003      	str	r3, [r0, #0]
 8008a86:	f04f 0900 	mov.w	r9, #0
 8008a8a:	07eb      	lsls	r3, r5, #31
 8008a8c:	d50a      	bpl.n	8008aa4 <__pow5mult+0x84>
 8008a8e:	4639      	mov	r1, r7
 8008a90:	4622      	mov	r2, r4
 8008a92:	4630      	mov	r0, r6
 8008a94:	f7ff ff1e 	bl	80088d4 <__multiply>
 8008a98:	4639      	mov	r1, r7
 8008a9a:	4680      	mov	r8, r0
 8008a9c:	4630      	mov	r0, r6
 8008a9e:	f7ff fe47 	bl	8008730 <_Bfree>
 8008aa2:	4647      	mov	r7, r8
 8008aa4:	106d      	asrs	r5, r5, #1
 8008aa6:	d00b      	beq.n	8008ac0 <__pow5mult+0xa0>
 8008aa8:	6820      	ldr	r0, [r4, #0]
 8008aaa:	b938      	cbnz	r0, 8008abc <__pow5mult+0x9c>
 8008aac:	4622      	mov	r2, r4
 8008aae:	4621      	mov	r1, r4
 8008ab0:	4630      	mov	r0, r6
 8008ab2:	f7ff ff0f 	bl	80088d4 <__multiply>
 8008ab6:	6020      	str	r0, [r4, #0]
 8008ab8:	f8c0 9000 	str.w	r9, [r0]
 8008abc:	4604      	mov	r4, r0
 8008abe:	e7e4      	b.n	8008a8a <__pow5mult+0x6a>
 8008ac0:	4638      	mov	r0, r7
 8008ac2:	e8bd 83f8 	ldmia.w	sp!, {r3, r4, r5, r6, r7, r8, r9, pc}
 8008ac6:	bf00      	nop
 8008ac8:	0800af08 	.word	0x0800af08
 8008acc:	0800accd 	.word	0x0800accd
 8008ad0:	0800adb4 	.word	0x0800adb4

08008ad4 <__lshift>:
 8008ad4:	e92d 47f0 	stmdb	sp!, {r4, r5, r6, r7, r8, r9, sl, lr}
 8008ad8:	460c      	mov	r4, r1
 8008ada:	6849      	ldr	r1, [r1, #4]
 8008adc:	6923      	ldr	r3, [r4, #16]
 8008ade:	eb03 1862 	add.w	r8, r3, r2, asr #5
 8008ae2:	68a3      	ldr	r3, [r4, #8]
 8008ae4:	4607      	mov	r7, r0
 8008ae6:	4691      	mov	r9, r2
 8008ae8:	ea4f 1a62 	mov.w	sl, r2, asr #5
 8008aec:	f108 0601 	add.w	r6, r8, #1
 8008af0:	42b3      	cmp	r3, r6
 8008af2:	db0b      	blt.n	8008b0c <__lshift+0x38>
 8008af4:	4638      	mov	r0, r7
 8008af6:	f7ff fddb 	bl	80086b0 <_Balloc>
 8008afa:	4605      	mov	r5, r0
 8008afc:	b948      	cbnz	r0, 8008b12 <__lshift+0x3e>
 8008afe:	4602      	mov	r2, r0
 8008b00:	4b28      	ldr	r3, [pc, #160]	; (8008ba4 <__lshift+0xd0>)
 8008b02:	4829      	ldr	r0, [pc, #164]	; (8008ba8 <__lshift+0xd4>)
 8008b04:	f240 11d9 	movw	r1, #473	; 0x1d9
 8008b08:	f000 fd26 	bl	8009558 <__assert_func>
 8008b0c:	3101      	adds	r1, #1
 8008b0e:	005b      	lsls	r3, r3, #1
 8008b10:	e7ee      	b.n	8008af0 <__lshift+0x1c>
 8008b12:	2300      	movs	r3, #0
 8008b14:	f100 0114 	add.w	r1, r0, #20
 8008b18:	f100 0210 	add.w	r2, r0, #16
 8008b1c:	4618      	mov	r0, r3
 8008b1e:	4553      	cmp	r3, sl
 8008b20:	db33      	blt.n	8008b8a <__lshift+0xb6>
 8008b22:	6920      	ldr	r0, [r4, #16]
 8008b24:	ea2a 7aea 	bic.w	sl, sl, sl, asr #31
 8008b28:	f104 0314 	add.w	r3, r4, #20
 8008b2c:	f019 091f 	ands.w	r9, r9, #31
 8008b30:	eb01 018a 	add.w	r1, r1, sl, lsl #2
 8008b34:	eb03 0c80 	add.w	ip, r3, r0, lsl #2
 8008b38:	d02b      	beq.n	8008b92 <__lshift+0xbe>
 8008b3a:	f1c9 0e20 	rsb	lr, r9, #32
 8008b3e:	468a      	mov	sl, r1
 8008b40:	2200      	movs	r2, #0
 8008b42:	6818      	ldr	r0, [r3, #0]
 8008b44:	fa00 f009 	lsl.w	r0, r0, r9
 8008b48:	4302      	orrs	r2, r0
 8008b4a:	f84a 2b04 	str.w	r2, [sl], #4
 8008b4e:	f853 2b04 	ldr.w	r2, [r3], #4
 8008b52:	459c      	cmp	ip, r3
 8008b54:	fa22 f20e 	lsr.w	r2, r2, lr
 8008b58:	d8f3      	bhi.n	8008b42 <__lshift+0x6e>
 8008b5a:	ebac 0304 	sub.w	r3, ip, r4
 8008b5e:	3b15      	subs	r3, #21
 8008b60:	f023 0303 	bic.w	r3, r3, #3
 8008b64:	3304      	adds	r3, #4
 8008b66:	f104 0015 	add.w	r0, r4, #21
 8008b6a:	4584      	cmp	ip, r0
 8008b6c:	bf38      	it	cc
 8008b6e:	2304      	movcc	r3, #4
 8008b70:	50ca      	str	r2, [r1, r3]
 8008b72:	b10a      	cbz	r2, 8008b78 <__lshift+0xa4>
 8008b74:	f108 0602 	add.w	r6, r8, #2
 8008b78:	3e01      	subs	r6, #1
 8008b7a:	4638      	mov	r0, r7
 8008b7c:	612e      	str	r6, [r5, #16]
 8008b7e:	4621      	mov	r1, r4
 8008b80:	f7ff fdd6 	bl	8008730 <_Bfree>
 8008b84:	4628      	mov	r0, r5
 8008b86:	e8bd 87f0 	ldmia.w	sp!, {r4, r5, r6, r7, r8, r9, sl, pc}
 8008b8a:	f842 0f04 	str.w	r0, [r2, #4]!
 8008b8e:	3301      	adds	r3, #1
 8008b90:	e7c5      	b.n	8008b1e <__lshift+0x4a>
 8008b92:	3904      	subs	r1, #4
 8008b94:	f853 2b04 	ldr.w	r2, [r3], #4
 8008b98:	f841 2f04 	str.w	r2, [r1, #4]!
 8008b9c:	459c      	cmp	ip, r3
 8008b9e:	d8f9      	bhi.n	8008b94 <__lshift+0xc0>
 8008ba0:	e7ea      	b.n	8008b78 <__lshift+0xa4>
 8008ba2:	bf00      	nop
 8008ba4:	0800ad43 	.word	0x0800ad43
 8008ba8:	0800adb4 	.word	0x0800adb4

08008bac <__mcmp>:
 8008bac:	b530      	push	{r4, r5, lr}
 8008bae:	6902      	ldr	r2, [r0, #16]
 8008bb0:	690c      	ldr	r4, [r1, #16]
 8008bb2:	1b12      	subs	r2, r2, r4
 8008bb4:	d10e      	bne.n	8008bd4 <__mcmp+0x28>
 8008bb6:	f100 0314 	add.w	r3, r0, #20
 8008bba:	3114      	adds	r1, #20
 8008bbc:	eb03 0084 	add.w	r0, r3, r4, lsl #2
 8008bc0:	eb01 0184 	add.w	r1, r1, r4, lsl #2
 8008bc4:	f850 5d04 	ldr.w	r5, [r0, #-4]!
 8008bc8:	f851 4d04 	ldr.w	r4, [r1, #-4]!
 8008bcc:	42a5      	cmp	r5, r4
 8008bce:	d003      	beq.n	8008bd8 <__mcmp+0x2c>
 8008bd0:	d305      	bcc.n	8008bde <__mcmp+0x32>
 8008bd2:	2201      	movs	r2, #1
 8008bd4:	4610      	mov	r0, r2
 8008bd6:	bd30      	pop	{r4, r5, pc}
 8008bd8:	4283      	cmp	r3, r0
 8008bda:	d3f3      	bcc.n	8008bc4 <__mcmp+0x18>
 8008bdc:	e7fa      	b.n	8008bd4 <__mcmp+0x28>
 8008bde:	f04f 32ff 	mov.w	r2, #4294967295
 8008be2:	e7f7      	b.n	8008bd4 <__mcmp+0x28>

08008be4 <__mdiff>:
 8008be4:	e92d 4ff8 	stmdb	sp!, {r3, r4, r5, r6, r7, r8, r9, sl, fp, lr}
 8008be8:	460c      	mov	r4, r1
 8008bea:	4606      	mov	r6, r0
 8008bec:	4611      	mov	r1, r2
 8008bee:	4620      	mov	r0, r4
 8008bf0:	4617      	mov	r7, r2
 8008bf2:	f7ff ffdb 	bl	8008bac <__mcmp>
 8008bf6:	1e05      	subs	r5, r0, #0
 8008bf8:	d110      	bne.n	8008c1c <__mdiff+0x38>
 8008bfa:	4629      	mov	r1, r5
 8008bfc:	4630      	mov	r0, r6
 8008bfe:	f7ff fd57 	bl	80086b0 <_Balloc>
 8008c02:	b930      	cbnz	r0, 8008c12 <__mdiff+0x2e>
 8008c04:	4b39      	ldr	r3, [pc, #228]	; (8008cec <__mdiff+0x108>)
 8008c06:	4602      	mov	r2, r0
 8008c08:	f240 2132 	movw	r1, #562	; 0x232
 8008c0c:	4838      	ldr	r0, [pc, #224]	; (8008cf0 <__mdiff+0x10c>)
 8008c0e:	f000 fca3 	bl	8009558 <__assert_func>
 8008c12:	2301      	movs	r3, #1
 8008c14:	e9c0 3504 	strd	r3, r5, [r0, #16]
 8008c18:	e8bd 8ff8 	ldmia.w	sp!, {r3, r4, r5, r6, r7, r8, r9, sl, fp, pc}
 8008c1c:	bfa4      	itt	ge
 8008c1e:	463b      	movge	r3, r7
 8008c20:	4627      	movge	r7, r4
 8008c22:	4630      	mov	r0, r6
 8008c24:	6879      	ldr	r1, [r7, #4]
 8008c26:	bfa6      	itte	ge
 8008c28:	461c      	movge	r4, r3
 8008c2a:	2500      	movge	r5, #0
 8008c2c:	2501      	movlt	r5, #1
 8008c2e:	f7ff fd3f 	bl	80086b0 <_Balloc>
 8008c32:	b920      	cbnz	r0, 8008c3e <__mdiff+0x5a>
 8008c34:	4b2d      	ldr	r3, [pc, #180]	; (8008cec <__mdiff+0x108>)
 8008c36:	4602      	mov	r2, r0
 8008c38:	f44f 7110 	mov.w	r1, #576	; 0x240
 8008c3c:	e7e6      	b.n	8008c0c <__mdiff+0x28>
 8008c3e:	693e      	ldr	r6, [r7, #16]
 8008c40:	60c5      	str	r5, [r0, #12]
 8008c42:	6925      	ldr	r5, [r4, #16]
 8008c44:	f107 0114 	add.w	r1, r7, #20
 8008c48:	f104 0914 	add.w	r9, r4, #20
 8008c4c:	f100 0e14 	add.w	lr, r0, #20
 8008c50:	f107 0210 	add.w	r2, r7, #16
 8008c54:	eb01 0c86 	add.w	ip, r1, r6, lsl #2
 8008c58:	eb09 0585 	add.w	r5, r9, r5, lsl #2
 8008c5c:	46f2      	mov	sl, lr
 8008c5e:	2700      	movs	r7, #0
 8008c60:	f859 3b04 	ldr.w	r3, [r9], #4
 8008c64:	f852 bf04 	ldr.w	fp, [r2, #4]!
 8008c68:	fa1f f883 	uxth.w	r8, r3
 8008c6c:	fa17 f78b 	uxtah	r7, r7, fp
 8008c70:	0c1b      	lsrs	r3, r3, #16
 8008c72:	eba7 0808 	sub.w	r8, r7, r8
 8008c76:	ebc3 431b 	rsb	r3, r3, fp, lsr #16
 8008c7a:	eb03 4328 	add.w	r3, r3, r8, asr #16
 8008c7e:	fa1f f888 	uxth.w	r8, r8
 8008c82:	141f      	asrs	r7, r3, #16
 8008c84:	454d      	cmp	r5, r9
 8008c86:	ea48 4303 	orr.w	r3, r8, r3, lsl #16
 8008c8a:	f84a 3b04 	str.w	r3, [sl], #4
 8008c8e:	d8e7      	bhi.n	8008c60 <__mdiff+0x7c>
 8008c90:	1b2b      	subs	r3, r5, r4
 8008c92:	3b15      	subs	r3, #21
 8008c94:	f023 0303 	bic.w	r3, r3, #3
 8008c98:	3304      	adds	r3, #4
 8008c9a:	3415      	adds	r4, #21
 8008c9c:	42a5      	cmp	r5, r4
 8008c9e:	bf38      	it	cc
 8008ca0:	2304      	movcc	r3, #4
 8008ca2:	4419      	add	r1, r3
 8008ca4:	4473      	add	r3, lr
 8008ca6:	469e      	mov	lr, r3
 8008ca8:	460d      	mov	r5, r1
 8008caa:	4565      	cmp	r5, ip
 8008cac:	d30e      	bcc.n	8008ccc <__mdiff+0xe8>
 8008cae:	f10c 0203 	add.w	r2, ip, #3
 8008cb2:	1a52      	subs	r2, r2, r1
 8008cb4:	f022 0203 	bic.w	r2, r2, #3
 8008cb8:	3903      	subs	r1, #3
 8008cba:	458c      	cmp	ip, r1
 8008cbc:	bf38      	it	cc
 8008cbe:	2200      	movcc	r2, #0
 8008cc0:	441a      	add	r2, r3
 8008cc2:	f852 3d04 	ldr.w	r3, [r2, #-4]!
 8008cc6:	b17b      	cbz	r3, 8008ce8 <__mdiff+0x104>
 8008cc8:	6106      	str	r6, [r0, #16]
 8008cca:	e7a5      	b.n	8008c18 <__mdiff+0x34>
 8008ccc:	f855 8b04 	ldr.w	r8, [r5], #4
 8008cd0:	fa17 f488 	uxtah	r4, r7, r8
 8008cd4:	1422      	asrs	r2, r4, #16
 8008cd6:	eb02 4218 	add.w	r2, r2, r8, lsr #16
 8008cda:	b2a4      	uxth	r4, r4
 8008cdc:	ea44 4402 	orr.w	r4, r4, r2, lsl #16
 8008ce0:	f84e 4b04 	str.w	r4, [lr], #4
 8008ce4:	1417      	asrs	r7, r2, #16
 8008ce6:	e7e0      	b.n	8008caa <__mdiff+0xc6>
 8008ce8:	3e01      	subs	r6, #1
 8008cea:	e7ea      	b.n	8008cc2 <__mdiff+0xde>
 8008cec:	0800ad43 	.word	0x0800ad43
 8008cf0:	0800adb4 	.word	0x0800adb4

08008cf4 <__d2b>:
 8008cf4:	e92d 43f7 	stmdb	sp!, {r0, r1, r2, r4, r5, r6, r7, r8, r9, lr}
 8008cf8:	4689      	mov	r9, r1
 8008cfa:	2101      	movs	r1, #1
 8008cfc:	ec57 6b10 	vmov	r6, r7, d0
 8008d00:	4690      	mov	r8, r2
 8008d02:	f7ff fcd5 	bl	80086b0 <_Balloc>
 8008d06:	4604      	mov	r4, r0
 8008d08:	b930      	cbnz	r0, 8008d18 <__d2b+0x24>
 8008d0a:	4602      	mov	r2, r0
 8008d0c:	4b25      	ldr	r3, [pc, #148]	; (8008da4 <__d2b+0xb0>)
 8008d0e:	4826      	ldr	r0, [pc, #152]	; (8008da8 <__d2b+0xb4>)
 8008d10:	f240 310a 	movw	r1, #778	; 0x30a
 8008d14:	f000 fc20 	bl	8009558 <__assert_func>
 8008d18:	f3c7 550a 	ubfx	r5, r7, #20, #11
 8008d1c:	f3c7 0313 	ubfx	r3, r7, #0, #20
 8008d20:	bb35      	cbnz	r5, 8008d70 <__d2b+0x7c>
 8008d22:	2e00      	cmp	r6, #0
 8008d24:	9301      	str	r3, [sp, #4]
 8008d26:	d028      	beq.n	8008d7a <__d2b+0x86>
 8008d28:	4668      	mov	r0, sp
 8008d2a:	9600      	str	r6, [sp, #0]
 8008d2c:	f7ff fd8c 	bl	8008848 <__lo0bits>
 8008d30:	9900      	ldr	r1, [sp, #0]
 8008d32:	b300      	cbz	r0, 8008d76 <__d2b+0x82>
 8008d34:	9a01      	ldr	r2, [sp, #4]
 8008d36:	f1c0 0320 	rsb	r3, r0, #32
 8008d3a:	fa02 f303 	lsl.w	r3, r2, r3
 8008d3e:	430b      	orrs	r3, r1
 8008d40:	40c2      	lsrs	r2, r0
 8008d42:	6163      	str	r3, [r4, #20]
 8008d44:	9201      	str	r2, [sp, #4]
 8008d46:	9b01      	ldr	r3, [sp, #4]
 8008d48:	61a3      	str	r3, [r4, #24]
 8008d4a:	2b00      	cmp	r3, #0
 8008d4c:	bf14      	ite	ne
 8008d4e:	2202      	movne	r2, #2
 8008d50:	2201      	moveq	r2, #1
 8008d52:	6122      	str	r2, [r4, #16]
 8008d54:	b1d5      	cbz	r5, 8008d8c <__d2b+0x98>
 8008d56:	f2a5 4533 	subw	r5, r5, #1075	; 0x433
 8008d5a:	4405      	add	r5, r0
 8008d5c:	f8c9 5000 	str.w	r5, [r9]
 8008d60:	f1c0 0035 	rsb	r0, r0, #53	; 0x35
 8008d64:	f8c8 0000 	str.w	r0, [r8]
 8008d68:	4620      	mov	r0, r4
 8008d6a:	b003      	add	sp, #12
 8008d6c:	e8bd 83f0 	ldmia.w	sp!, {r4, r5, r6, r7, r8, r9, pc}
 8008d70:	f443 1380 	orr.w	r3, r3, #1048576	; 0x100000
 8008d74:	e7d5      	b.n	8008d22 <__d2b+0x2e>
 8008d76:	6161      	str	r1, [r4, #20]
 8008d78:	e7e5      	b.n	8008d46 <__d2b+0x52>
 8008d7a:	a801      	add	r0, sp, #4
 8008d7c:	f7ff fd64 	bl	8008848 <__lo0bits>
 8008d80:	9b01      	ldr	r3, [sp, #4]
 8008d82:	6163      	str	r3, [r4, #20]
 8008d84:	2201      	movs	r2, #1
 8008d86:	6122      	str	r2, [r4, #16]
 8008d88:	3020      	adds	r0, #32
 8008d8a:	e7e3      	b.n	8008d54 <__d2b+0x60>
 8008d8c:	eb04 0382 	add.w	r3, r4, r2, lsl #2
 8008d90:	f2a0 4032 	subw	r0, r0, #1074	; 0x432
 8008d94:	f8c9 0000 	str.w	r0, [r9]
 8008d98:	6918      	ldr	r0, [r3, #16]
 8008d9a:	f7ff fd35 	bl	8008808 <__hi0bits>
 8008d9e:	ebc0 1042 	rsb	r0, r0, r2, lsl #5
 8008da2:	e7df      	b.n	8008d64 <__d2b+0x70>
 8008da4:	0800ad43 	.word	0x0800ad43
 8008da8:	0800adb4 	.word	0x0800adb4

08008dac <_calloc_r>:
 8008dac:	b513      	push	{r0, r1, r4, lr}
 8008dae:	434a      	muls	r2, r1
 8008db0:	4611      	mov	r1, r2
 8008db2:	9201      	str	r2, [sp, #4]
 8008db4:	f000 f85a 	bl	8008e6c <_malloc_r>
 8008db8:	4604      	mov	r4, r0
 8008dba:	b118      	cbz	r0, 8008dc4 <_calloc_r+0x18>
 8008dbc:	9a01      	ldr	r2, [sp, #4]
 8008dbe:	2100      	movs	r1, #0
 8008dc0:	f7fd fde8 	bl	8006994 <memset>
 8008dc4:	4620      	mov	r0, r4
 8008dc6:	b002      	add	sp, #8
 8008dc8:	bd10      	pop	{r4, pc}
	...

08008dcc <_free_r>:
 8008dcc:	b537      	push	{r0, r1, r2, r4, r5, lr}
 8008dce:	2900      	cmp	r1, #0
 8008dd0:	d048      	beq.n	8008e64 <_free_r+0x98>
 8008dd2:	f851 3c04 	ldr.w	r3, [r1, #-4]
 8008dd6:	9001      	str	r0, [sp, #4]
 8008dd8:	2b00      	cmp	r3, #0
 8008dda:	f1a1 0404 	sub.w	r4, r1, #4
 8008dde:	bfb8      	it	lt
 8008de0:	18e4      	addlt	r4, r4, r3
 8008de2:	f000 fc3f 	bl	8009664 <__malloc_lock>
 8008de6:	4a20      	ldr	r2, [pc, #128]	; (8008e68 <_free_r+0x9c>)
 8008de8:	9801      	ldr	r0, [sp, #4]
 8008dea:	6813      	ldr	r3, [r2, #0]
 8008dec:	4615      	mov	r5, r2
 8008dee:	b933      	cbnz	r3, 8008dfe <_free_r+0x32>
 8008df0:	6063      	str	r3, [r4, #4]
 8008df2:	6014      	str	r4, [r2, #0]
 8008df4:	b003      	add	sp, #12
 8008df6:	e8bd 4030 	ldmia.w	sp!, {r4, r5, lr}
 8008dfa:	f000 bc39 	b.w	8009670 <__malloc_unlock>
 8008dfe:	42a3      	cmp	r3, r4
 8008e00:	d90b      	bls.n	8008e1a <_free_r+0x4e>
 8008e02:	6821      	ldr	r1, [r4, #0]
 8008e04:	1862      	adds	r2, r4, r1
 8008e06:	4293      	cmp	r3, r2
 8008e08:	bf04      	itt	eq
 8008e0a:	681a      	ldreq	r2, [r3, #0]
 8008e0c:	685b      	ldreq	r3, [r3, #4]
 8008e0e:	6063      	str	r3, [r4, #4]
 8008e10:	bf04      	itt	eq
 8008e12:	1852      	addeq	r2, r2, r1
 8008e14:	6022      	streq	r2, [r4, #0]
 8008e16:	602c      	str	r4, [r5, #0]
 8008e18:	e7ec      	b.n	8008df4 <_free_r+0x28>
 8008e1a:	461a      	mov	r2, r3
 8008e1c:	685b      	ldr	r3, [r3, #4]
 8008e1e:	b10b      	cbz	r3, 8008e24 <_free_r+0x58>
 8008e20:	42a3      	cmp	r3, r4
 8008e22:	d9fa      	bls.n	8008e1a <_free_r+0x4e>
 8008e24:	6811      	ldr	r1, [r2, #0]
 8008e26:	1855      	adds	r5, r2, r1
 8008e28:	42a5      	cmp	r5, r4
 8008e2a:	d10b      	bne.n	8008e44 <_free_r+0x78>
 8008e2c:	6824      	ldr	r4, [r4, #0]
 8008e2e:	4421      	add	r1, r4
 8008e30:	1854      	adds	r4, r2, r1
 8008e32:	42a3      	cmp	r3, r4
 8008e34:	6011      	str	r1, [r2, #0]
 8008e36:	d1dd      	bne.n	8008df4 <_free_r+0x28>
 8008e38:	681c      	ldr	r4, [r3, #0]
 8008e3a:	685b      	ldr	r3, [r3, #4]
 8008e3c:	6053      	str	r3, [r2, #4]
 8008e3e:	4421      	add	r1, r4
 8008e40:	6011      	str	r1, [r2, #0]
 8008e42:	e7d7      	b.n	8008df4 <_free_r+0x28>
 8008e44:	d902      	bls.n	8008e4c <_free_r+0x80>
 8008e46:	230c      	movs	r3, #12
 8008e48:	6003      	str	r3, [r0, #0]
 8008e4a:	e7d3      	b.n	8008df4 <_free_r+0x28>
 8008e4c:	6825      	ldr	r5, [r4, #0]
 8008e4e:	1961      	adds	r1, r4, r5
 8008e50:	428b      	cmp	r3, r1
 8008e52:	bf04      	itt	eq
 8008e54:	6819      	ldreq	r1, [r3, #0]
 8008e56:	685b      	ldreq	r3, [r3, #4]
 8008e58:	6063      	str	r3, [r4, #4]
 8008e5a:	bf04      	itt	eq
 8008e5c:	1949      	addeq	r1, r1, r5
 8008e5e:	6021      	streq	r1, [r4, #0]
 8008e60:	6054      	str	r4, [r2, #4]
 8008e62:	e7c7      	b.n	8008df4 <_free_r+0x28>
 8008e64:	b003      	add	sp, #12
 8008e66:	bd30      	pop	{r4, r5, pc}
 8008e68:	20004b20 	.word	0x20004b20

08008e6c <_malloc_r>:
 8008e6c:	b5f8      	push	{r3, r4, r5, r6, r7, lr}
 8008e6e:	1ccd      	adds	r5, r1, #3
 8008e70:	f025 0503 	bic.w	r5, r5, #3
 8008e74:	3508      	adds	r5, #8
 8008e76:	2d0c      	cmp	r5, #12
 8008e78:	bf38      	it	cc
 8008e7a:	250c      	movcc	r5, #12
 8008e7c:	2d00      	cmp	r5, #0
 8008e7e:	4606      	mov	r6, r0
 8008e80:	db01      	blt.n	8008e86 <_malloc_r+0x1a>
 8008e82:	42a9      	cmp	r1, r5
 8008e84:	d903      	bls.n	8008e8e <_malloc_r+0x22>
 8008e86:	230c      	movs	r3, #12
 8008e88:	6033      	str	r3, [r6, #0]
 8008e8a:	2000      	movs	r0, #0
 8008e8c:	bdf8      	pop	{r3, r4, r5, r6, r7, pc}
 8008e8e:	f000 fbe9 	bl	8009664 <__malloc_lock>
 8008e92:	4921      	ldr	r1, [pc, #132]	; (8008f18 <_malloc_r+0xac>)
 8008e94:	680a      	ldr	r2, [r1, #0]
 8008e96:	4614      	mov	r4, r2
 8008e98:	b99c      	cbnz	r4, 8008ec2 <_malloc_r+0x56>
 8008e9a:	4f20      	ldr	r7, [pc, #128]	; (8008f1c <_malloc_r+0xb0>)
 8008e9c:	683b      	ldr	r3, [r7, #0]
 8008e9e:	b923      	cbnz	r3, 8008eaa <_malloc_r+0x3e>
 8008ea0:	4621      	mov	r1, r4
 8008ea2:	4630      	mov	r0, r6
 8008ea4:	f000 faf2 	bl	800948c <_sbrk_r>
 8008ea8:	6038      	str	r0, [r7, #0]
 8008eaa:	4629      	mov	r1, r5
 8008eac:	4630      	mov	r0, r6
 8008eae:	f000 faed 	bl	800948c <_sbrk_r>
 8008eb2:	1c43      	adds	r3, r0, #1
 8008eb4:	d123      	bne.n	8008efe <_malloc_r+0x92>
 8008eb6:	230c      	movs	r3, #12
 8008eb8:	6033      	str	r3, [r6, #0]
 8008eba:	4630      	mov	r0, r6
 8008ebc:	f000 fbd8 	bl	8009670 <__malloc_unlock>
 8008ec0:	e7e3      	b.n	8008e8a <_malloc_r+0x1e>
 8008ec2:	6823      	ldr	r3, [r4, #0]
 8008ec4:	1b5b      	subs	r3, r3, r5
 8008ec6:	d417      	bmi.n	8008ef8 <_malloc_r+0x8c>
 8008ec8:	2b0b      	cmp	r3, #11
 8008eca:	d903      	bls.n	8008ed4 <_malloc_r+0x68>
 8008ecc:	6023      	str	r3, [r4, #0]
 8008ece:	441c      	add	r4, r3
 8008ed0:	6025      	str	r5, [r4, #0]
 8008ed2:	e004      	b.n	8008ede <_malloc_r+0x72>
 8008ed4:	6863      	ldr	r3, [r4, #4]
 8008ed6:	42a2      	cmp	r2, r4
 8008ed8:	bf0c      	ite	eq
 8008eda:	600b      	streq	r3, [r1, #0]
 8008edc:	6053      	strne	r3, [r2, #4]
 8008ede:	4630      	mov	r0, r6
 8008ee0:	f000 fbc6 	bl	8009670 <__malloc_unlock>
 8008ee4:	f104 000b 	add.w	r0, r4, #11
 8008ee8:	1d23      	adds	r3, r4, #4
 8008eea:	f020 0007 	bic.w	r0, r0, #7
 8008eee:	1ac2      	subs	r2, r0, r3
 8008ef0:	d0cc      	beq.n	8008e8c <_malloc_r+0x20>
 8008ef2:	1a1b      	subs	r3, r3, r0
 8008ef4:	50a3      	str	r3, [r4, r2]
 8008ef6:	e7c9      	b.n	8008e8c <_malloc_r+0x20>
 8008ef8:	4622      	mov	r2, r4
 8008efa:	6864      	ldr	r4, [r4, #4]
 8008efc:	e7cc      	b.n	8008e98 <_malloc_r+0x2c>
 8008efe:	1cc4      	adds	r4, r0, #3
 8008f00:	f024 0403 	bic.w	r4, r4, #3
 8008f04:	42a0      	cmp	r0, r4
 8008f06:	d0e3      	beq.n	8008ed0 <_malloc_r+0x64>
 8008f08:	1a21      	subs	r1, r4, r0
 8008f0a:	4630      	mov	r0, r6
 8008f0c:	f000 fabe 	bl	800948c <_sbrk_r>
 8008f10:	3001      	adds	r0, #1
 8008f12:	d1dd      	bne.n	8008ed0 <_malloc_r+0x64>
 8008f14:	e7cf      	b.n	8008eb6 <_malloc_r+0x4a>
 8008f16:	bf00      	nop
 8008f18:	20004b20 	.word	0x20004b20
 8008f1c:	20004b24 	.word	0x20004b24

08008f20 <__ssputs_r>:
 8008f20:	e92d 47f0 	stmdb	sp!, {r4, r5, r6, r7, r8, r9, sl, lr}
 8008f24:	688e      	ldr	r6, [r1, #8]
 8008f26:	429e      	cmp	r6, r3
 8008f28:	4682      	mov	sl, r0
 8008f2a:	460c      	mov	r4, r1
 8008f2c:	4690      	mov	r8, r2
 8008f2e:	461f      	mov	r7, r3
 8008f30:	d838      	bhi.n	8008fa4 <__ssputs_r+0x84>
 8008f32:	898a      	ldrh	r2, [r1, #12]
 8008f34:	f412 6f90 	tst.w	r2, #1152	; 0x480
 8008f38:	d032      	beq.n	8008fa0 <__ssputs_r+0x80>
 8008f3a:	6825      	ldr	r5, [r4, #0]
 8008f3c:	6909      	ldr	r1, [r1, #16]
 8008f3e:	eba5 0901 	sub.w	r9, r5, r1
 8008f42:	6965      	ldr	r5, [r4, #20]
 8008f44:	eb05 0545 	add.w	r5, r5, r5, lsl #1
 8008f48:	eb05 75d5 	add.w	r5, r5, r5, lsr #31
 8008f4c:	3301      	adds	r3, #1
 8008f4e:	444b      	add	r3, r9
 8008f50:	106d      	asrs	r5, r5, #1
 8008f52:	429d      	cmp	r5, r3
 8008f54:	bf38      	it	cc
 8008f56:	461d      	movcc	r5, r3
 8008f58:	0553      	lsls	r3, r2, #21
 8008f5a:	d531      	bpl.n	8008fc0 <__ssputs_r+0xa0>
 8008f5c:	4629      	mov	r1, r5
 8008f5e:	f7ff ff85 	bl	8008e6c <_malloc_r>
 8008f62:	4606      	mov	r6, r0
 8008f64:	b950      	cbnz	r0, 8008f7c <__ssputs_r+0x5c>
 8008f66:	230c      	movs	r3, #12
 8008f68:	f8ca 3000 	str.w	r3, [sl]
 8008f6c:	89a3      	ldrh	r3, [r4, #12]
 8008f6e:	f043 0340 	orr.w	r3, r3, #64	; 0x40
 8008f72:	81a3      	strh	r3, [r4, #12]
 8008f74:	f04f 30ff 	mov.w	r0, #4294967295
 8008f78:	e8bd 87f0 	ldmia.w	sp!, {r4, r5, r6, r7, r8, r9, sl, pc}
 8008f7c:	6921      	ldr	r1, [r4, #16]
 8008f7e:	464a      	mov	r2, r9
 8008f80:	f7fd fce0 	bl	8006944 <memcpy>
 8008f84:	89a3      	ldrh	r3, [r4, #12]
 8008f86:	f423 6390 	bic.w	r3, r3, #1152	; 0x480
 8008f8a:	f043 0380 	orr.w	r3, r3, #128	; 0x80
 8008f8e:	81a3      	strh	r3, [r4, #12]
 8008f90:	6126      	str	r6, [r4, #16]
 8008f92:	6165      	str	r5, [r4, #20]
 8008f94:	444e      	add	r6, r9
 8008f96:	eba5 0509 	sub.w	r5, r5, r9
 8008f9a:	6026      	str	r6, [r4, #0]
 8008f9c:	60a5      	str	r5, [r4, #8]
 8008f9e:	463e      	mov	r6, r7
 8008fa0:	42be      	cmp	r6, r7
 8008fa2:	d900      	bls.n	8008fa6 <__ssputs_r+0x86>
 8008fa4:	463e      	mov	r6, r7
 8008fa6:	4632      	mov	r2, r6
 8008fa8:	6820      	ldr	r0, [r4, #0]
 8008faa:	4641      	mov	r1, r8
 8008fac:	f7fd fcd8 	bl	8006960 <memmove>
 8008fb0:	68a3      	ldr	r3, [r4, #8]
 8008fb2:	6822      	ldr	r2, [r4, #0]
 8008fb4:	1b9b      	subs	r3, r3, r6
 8008fb6:	4432      	add	r2, r6
 8008fb8:	60a3      	str	r3, [r4, #8]
 8008fba:	6022      	str	r2, [r4, #0]
 8008fbc:	2000      	movs	r0, #0
 8008fbe:	e7db      	b.n	8008f78 <__ssputs_r+0x58>
 8008fc0:	462a      	mov	r2, r5
 8008fc2:	f000 fb5b 	bl	800967c <_realloc_r>
 8008fc6:	4606      	mov	r6, r0
 8008fc8:	2800      	cmp	r0, #0
 8008fca:	d1e1      	bne.n	8008f90 <__ssputs_r+0x70>
 8008fcc:	6921      	ldr	r1, [r4, #16]
 8008fce:	4650      	mov	r0, sl
 8008fd0:	f7ff fefc 	bl	8008dcc <_free_r>
 8008fd4:	e7c7      	b.n	8008f66 <__ssputs_r+0x46>
	...

08008fd8 <_svfiprintf_r>:
 8008fd8:	e92d 4ff0 	stmdb	sp!, {r4, r5, r6, r7, r8, r9, sl, fp, lr}
 8008fdc:	4698      	mov	r8, r3
 8008fde:	898b      	ldrh	r3, [r1, #12]
 8008fe0:	061b      	lsls	r3, r3, #24
 8008fe2:	b09d      	sub	sp, #116	; 0x74
 8008fe4:	4607      	mov	r7, r0
 8008fe6:	460d      	mov	r5, r1
 8008fe8:	4614      	mov	r4, r2
 8008fea:	d50e      	bpl.n	800900a <_svfiprintf_r+0x32>
 8008fec:	690b      	ldr	r3, [r1, #16]
 8008fee:	b963      	cbnz	r3, 800900a <_svfiprintf_r+0x32>
 8008ff0:	2140      	movs	r1, #64	; 0x40
 8008ff2:	f7ff ff3b 	bl	8008e6c <_malloc_r>
 8008ff6:	6028      	str	r0, [r5, #0]
 8008ff8:	6128      	str	r0, [r5, #16]
 8008ffa:	b920      	cbnz	r0, 8009006 <_svfiprintf_r+0x2e>
 8008ffc:	230c      	movs	r3, #12
 8008ffe:	603b      	str	r3, [r7, #0]
 8009000:	f04f 30ff 	mov.w	r0, #4294967295
 8009004:	e0d1      	b.n	80091aa <_svfiprintf_r+0x1d2>
 8009006:	2340      	movs	r3, #64	; 0x40
 8009008:	616b      	str	r3, [r5, #20]
 800900a:	2300      	movs	r3, #0
 800900c:	9309      	str	r3, [sp, #36]	; 0x24
 800900e:	2320      	movs	r3, #32
 8009010:	f88d 3029 	strb.w	r3, [sp, #41]	; 0x29
 8009014:	f8cd 800c 	str.w	r8, [sp, #12]
 8009018:	2330      	movs	r3, #48	; 0x30
 800901a:	f8df 81a8 	ldr.w	r8, [pc, #424]	; 80091c4 <_svfiprintf_r+0x1ec>
 800901e:	f88d 302a 	strb.w	r3, [sp, #42]	; 0x2a
 8009022:	f04f 0901 	mov.w	r9, #1
 8009026:	4623      	mov	r3, r4
 8009028:	469a      	mov	sl, r3
 800902a:	f813 2b01 	ldrb.w	r2, [r3], #1
 800902e:	b10a      	cbz	r2, 8009034 <_svfiprintf_r+0x5c>
 8009030:	2a25      	cmp	r2, #37	; 0x25
 8009032:	d1f9      	bne.n	8009028 <_svfiprintf_r+0x50>
 8009034:	ebba 0b04 	subs.w	fp, sl, r4
 8009038:	d00b      	beq.n	8009052 <_svfiprintf_r+0x7a>
 800903a:	465b      	mov	r3, fp
 800903c:	4622      	mov	r2, r4
 800903e:	4629      	mov	r1, r5
 8009040:	4638      	mov	r0, r7
 8009042:	f7ff ff6d 	bl	8008f20 <__ssputs_r>
 8009046:	3001      	adds	r0, #1
 8009048:	f000 80aa 	beq.w	80091a0 <_svfiprintf_r+0x1c8>
 800904c:	9a09      	ldr	r2, [sp, #36]	; 0x24
 800904e:	445a      	add	r2, fp
 8009050:	9209      	str	r2, [sp, #36]	; 0x24
 8009052:	f89a 3000 	ldrb.w	r3, [sl]
 8009056:	2b00      	cmp	r3, #0
 8009058:	f000 80a2 	beq.w	80091a0 <_svfiprintf_r+0x1c8>
 800905c:	2300      	movs	r3, #0
 800905e:	f04f 32ff 	mov.w	r2, #4294967295
 8009062:	e9cd 2305 	strd	r2, r3, [sp, #20]
 8009066:	f10a 0a01 	add.w	sl, sl, #1
 800906a:	9304      	str	r3, [sp, #16]
 800906c:	9307      	str	r3, [sp, #28]
 800906e:	f88d 3053 	strb.w	r3, [sp, #83]	; 0x53
 8009072:	931a      	str	r3, [sp, #104]	; 0x68
 8009074:	4654      	mov	r4, sl
 8009076:	2205      	movs	r2, #5
 8009078:	f814 1b01 	ldrb.w	r1, [r4], #1
 800907c:	4851      	ldr	r0, [pc, #324]	; (80091c4 <_svfiprintf_r+0x1ec>)
 800907e:	f7f7 f8af 	bl	80001e0 <memchr>
 8009082:	9a04      	ldr	r2, [sp, #16]
 8009084:	b9d8      	cbnz	r0, 80090be <_svfiprintf_r+0xe6>
 8009086:	06d0      	lsls	r0, r2, #27
 8009088:	bf44      	itt	mi
 800908a:	2320      	movmi	r3, #32
 800908c:	f88d 3053 	strbmi.w	r3, [sp, #83]	; 0x53
 8009090:	0711      	lsls	r1, r2, #28
 8009092:	bf44      	itt	mi
 8009094:	232b      	movmi	r3, #43	; 0x2b
 8009096:	f88d 3053 	strbmi.w	r3, [sp, #83]	; 0x53
 800909a:	f89a 3000 	ldrb.w	r3, [sl]
 800909e:	2b2a      	cmp	r3, #42	; 0x2a
 80090a0:	d015      	beq.n	80090ce <_svfiprintf_r+0xf6>
 80090a2:	9a07      	ldr	r2, [sp, #28]
 80090a4:	4654      	mov	r4, sl
 80090a6:	2000      	movs	r0, #0
 80090a8:	f04f 0c0a 	mov.w	ip, #10
 80090ac:	4621      	mov	r1, r4
 80090ae:	f811 3b01 	ldrb.w	r3, [r1], #1
 80090b2:	3b30      	subs	r3, #48	; 0x30
 80090b4:	2b09      	cmp	r3, #9
 80090b6:	d94e      	bls.n	8009156 <_svfiprintf_r+0x17e>
 80090b8:	b1b0      	cbz	r0, 80090e8 <_svfiprintf_r+0x110>
 80090ba:	9207      	str	r2, [sp, #28]
 80090bc:	e014      	b.n	80090e8 <_svfiprintf_r+0x110>
 80090be:	eba0 0308 	sub.w	r3, r0, r8
 80090c2:	fa09 f303 	lsl.w	r3, r9, r3
 80090c6:	4313      	orrs	r3, r2
 80090c8:	9304      	str	r3, [sp, #16]
 80090ca:	46a2      	mov	sl, r4
 80090cc:	e7d2      	b.n	8009074 <_svfiprintf_r+0x9c>
 80090ce:	9b03      	ldr	r3, [sp, #12]
 80090d0:	1d19      	adds	r1, r3, #4
 80090d2:	681b      	ldr	r3, [r3, #0]
 80090d4:	9103      	str	r1, [sp, #12]
 80090d6:	2b00      	cmp	r3, #0
 80090d8:	bfbb      	ittet	lt
 80090da:	425b      	neglt	r3, r3
 80090dc:	f042 0202 	orrlt.w	r2, r2, #2
 80090e0:	9307      	strge	r3, [sp, #28]
 80090e2:	9307      	strlt	r3, [sp, #28]
 80090e4:	bfb8      	it	lt
 80090e6:	9204      	strlt	r2, [sp, #16]
 80090e8:	7823      	ldrb	r3, [r4, #0]
 80090ea:	2b2e      	cmp	r3, #46	; 0x2e
 80090ec:	d10c      	bne.n	8009108 <_svfiprintf_r+0x130>
 80090ee:	7863      	ldrb	r3, [r4, #1]
 80090f0:	2b2a      	cmp	r3, #42	; 0x2a
 80090f2:	d135      	bne.n	8009160 <_svfiprintf_r+0x188>
 80090f4:	9b03      	ldr	r3, [sp, #12]
 80090f6:	1d1a      	adds	r2, r3, #4
 80090f8:	681b      	ldr	r3, [r3, #0]
 80090fa:	9203      	str	r2, [sp, #12]
 80090fc:	2b00      	cmp	r3, #0
 80090fe:	bfb8      	it	lt
 8009100:	f04f 33ff 	movlt.w	r3, #4294967295
 8009104:	3402      	adds	r4, #2
 8009106:	9305      	str	r3, [sp, #20]
 8009108:	f8df a0c8 	ldr.w	sl, [pc, #200]	; 80091d4 <_svfiprintf_r+0x1fc>
 800910c:	7821      	ldrb	r1, [r4, #0]
 800910e:	2203      	movs	r2, #3
 8009110:	4650      	mov	r0, sl
 8009112:	f7f7 f865 	bl	80001e0 <memchr>
 8009116:	b140      	cbz	r0, 800912a <_svfiprintf_r+0x152>
 8009118:	2340      	movs	r3, #64	; 0x40
 800911a:	eba0 000a 	sub.w	r0, r0, sl
 800911e:	fa03 f000 	lsl.w	r0, r3, r0
 8009122:	9b04      	ldr	r3, [sp, #16]
 8009124:	4303      	orrs	r3, r0
 8009126:	3401      	adds	r4, #1
 8009128:	9304      	str	r3, [sp, #16]
 800912a:	f814 1b01 	ldrb.w	r1, [r4], #1
 800912e:	4826      	ldr	r0, [pc, #152]	; (80091c8 <_svfiprintf_r+0x1f0>)
 8009130:	f88d 1028 	strb.w	r1, [sp, #40]	; 0x28
 8009134:	2206      	movs	r2, #6
 8009136:	f7f7 f853 	bl	80001e0 <memchr>
 800913a:	2800      	cmp	r0, #0
 800913c:	d038      	beq.n	80091b0 <_svfiprintf_r+0x1d8>
 800913e:	4b23      	ldr	r3, [pc, #140]	; (80091cc <_svfiprintf_r+0x1f4>)
 8009140:	bb1b      	cbnz	r3, 800918a <_svfiprintf_r+0x1b2>
 8009142:	9b03      	ldr	r3, [sp, #12]
 8009144:	3307      	adds	r3, #7
 8009146:	f023 0307 	bic.w	r3, r3, #7
 800914a:	3308      	adds	r3, #8
 800914c:	9303      	str	r3, [sp, #12]
 800914e:	9b09      	ldr	r3, [sp, #36]	; 0x24
 8009150:	4433      	add	r3, r6
 8009152:	9309      	str	r3, [sp, #36]	; 0x24
 8009154:	e767      	b.n	8009026 <_svfiprintf_r+0x4e>
 8009156:	fb0c 3202 	mla	r2, ip, r2, r3
 800915a:	460c      	mov	r4, r1
 800915c:	2001      	movs	r0, #1
 800915e:	e7a5      	b.n	80090ac <_svfiprintf_r+0xd4>
 8009160:	2300      	movs	r3, #0
 8009162:	3401      	adds	r4, #1
 8009164:	9305      	str	r3, [sp, #20]
 8009166:	4619      	mov	r1, r3
 8009168:	f04f 0c0a 	mov.w	ip, #10
 800916c:	4620      	mov	r0, r4
 800916e:	f810 2b01 	ldrb.w	r2, [r0], #1
 8009172:	3a30      	subs	r2, #48	; 0x30
 8009174:	2a09      	cmp	r2, #9
 8009176:	d903      	bls.n	8009180 <_svfiprintf_r+0x1a8>
 8009178:	2b00      	cmp	r3, #0
 800917a:	d0c5      	beq.n	8009108 <_svfiprintf_r+0x130>
 800917c:	9105      	str	r1, [sp, #20]
 800917e:	e7c3      	b.n	8009108 <_svfiprintf_r+0x130>
 8009180:	fb0c 2101 	mla	r1, ip, r1, r2
 8009184:	4604      	mov	r4, r0
 8009186:	2301      	movs	r3, #1
 8009188:	e7f0      	b.n	800916c <_svfiprintf_r+0x194>
 800918a:	ab03      	add	r3, sp, #12
 800918c:	9300      	str	r3, [sp, #0]
 800918e:	462a      	mov	r2, r5
 8009190:	4b0f      	ldr	r3, [pc, #60]	; (80091d0 <_svfiprintf_r+0x1f8>)
 8009192:	a904      	add	r1, sp, #16
 8009194:	4638      	mov	r0, r7
 8009196:	f7fd fca5 	bl	8006ae4 <_printf_float>
 800919a:	1c42      	adds	r2, r0, #1
 800919c:	4606      	mov	r6, r0
 800919e:	d1d6      	bne.n	800914e <_svfiprintf_r+0x176>
 80091a0:	89ab      	ldrh	r3, [r5, #12]
 80091a2:	065b      	lsls	r3, r3, #25
 80091a4:	f53f af2c 	bmi.w	8009000 <_svfiprintf_r+0x28>
 80091a8:	9809      	ldr	r0, [sp, #36]	; 0x24
 80091aa:	b01d      	add	sp, #116	; 0x74
 80091ac:	e8bd 8ff0 	ldmia.w	sp!, {r4, r5, r6, r7, r8, r9, sl, fp, pc}
 80091b0:	ab03      	add	r3, sp, #12
 80091b2:	9300      	str	r3, [sp, #0]
 80091b4:	462a      	mov	r2, r5
 80091b6:	4b06      	ldr	r3, [pc, #24]	; (80091d0 <_svfiprintf_r+0x1f8>)
 80091b8:	a904      	add	r1, sp, #16
 80091ba:	4638      	mov	r0, r7
 80091bc:	f7fd ff36 	bl	800702c <_printf_i>
 80091c0:	e7eb      	b.n	800919a <_svfiprintf_r+0x1c2>
 80091c2:	bf00      	nop
 80091c4:	0800af14 	.word	0x0800af14
 80091c8:	0800af1e 	.word	0x0800af1e
 80091cc:	08006ae5 	.word	0x08006ae5
 80091d0:	08008f21 	.word	0x08008f21
 80091d4:	0800af1a 	.word	0x0800af1a

080091d8 <__sfputc_r>:
 80091d8:	6893      	ldr	r3, [r2, #8]
 80091da:	3b01      	subs	r3, #1
 80091dc:	2b00      	cmp	r3, #0
 80091de:	b410      	push	{r4}
 80091e0:	6093      	str	r3, [r2, #8]
 80091e2:	da08      	bge.n	80091f6 <__sfputc_r+0x1e>
 80091e4:	6994      	ldr	r4, [r2, #24]
 80091e6:	42a3      	cmp	r3, r4
 80091e8:	db01      	blt.n	80091ee <__sfputc_r+0x16>
 80091ea:	290a      	cmp	r1, #10
 80091ec:	d103      	bne.n	80091f6 <__sfputc_r+0x1e>
 80091ee:	f85d 4b04 	ldr.w	r4, [sp], #4
 80091f2:	f7fe b8f7 	b.w	80073e4 <__swbuf_r>
 80091f6:	6813      	ldr	r3, [r2, #0]
 80091f8:	1c58      	adds	r0, r3, #1
 80091fa:	6010      	str	r0, [r2, #0]
 80091fc:	7019      	strb	r1, [r3, #0]
 80091fe:	4608      	mov	r0, r1
 8009200:	f85d 4b04 	ldr.w	r4, [sp], #4
 8009204:	4770      	bx	lr

08009206 <__sfputs_r>:
 8009206:	b5f8      	push	{r3, r4, r5, r6, r7, lr}
 8009208:	4606      	mov	r6, r0
 800920a:	460f      	mov	r7, r1
 800920c:	4614      	mov	r4, r2
 800920e:	18d5      	adds	r5, r2, r3
 8009210:	42ac      	cmp	r4, r5
 8009212:	d101      	bne.n	8009218 <__sfputs_r+0x12>
 8009214:	2000      	movs	r0, #0
 8009216:	e007      	b.n	8009228 <__sfputs_r+0x22>
 8009218:	f814 1b01 	ldrb.w	r1, [r4], #1
 800921c:	463a      	mov	r2, r7
 800921e:	4630      	mov	r0, r6
 8009220:	f7ff ffda 	bl	80091d8 <__sfputc_r>
 8009224:	1c43      	adds	r3, r0, #1
 8009226:	d1f3      	bne.n	8009210 <__sfputs_r+0xa>
 8009228:	bdf8      	pop	{r3, r4, r5, r6, r7, pc}
	...

0800922c <_vfiprintf_r>:
 800922c:	e92d 4ff0 	stmdb	sp!, {r4, r5, r6, r7, r8, r9, sl, fp, lr}
 8009230:	460d      	mov	r5, r1
 8009232:	b09d      	sub	sp, #116	; 0x74
 8009234:	4614      	mov	r4, r2
 8009236:	4698      	mov	r8, r3
 8009238:	4606      	mov	r6, r0
 800923a:	b118      	cbz	r0, 8009244 <_vfiprintf_r+0x18>
 800923c:	6983      	ldr	r3, [r0, #24]
 800923e:	b90b      	cbnz	r3, 8009244 <_vfiprintf_r+0x18>
 8009240:	f7ff f924 	bl	800848c <__sinit>
 8009244:	4b89      	ldr	r3, [pc, #548]	; (800946c <_vfiprintf_r+0x240>)
 8009246:	429d      	cmp	r5, r3
 8009248:	d11b      	bne.n	8009282 <_vfiprintf_r+0x56>
 800924a:	6875      	ldr	r5, [r6, #4]
 800924c:	6e6b      	ldr	r3, [r5, #100]	; 0x64
 800924e:	07d9      	lsls	r1, r3, #31
 8009250:	d405      	bmi.n	800925e <_vfiprintf_r+0x32>
 8009252:	89ab      	ldrh	r3, [r5, #12]
 8009254:	059a      	lsls	r2, r3, #22
 8009256:	d402      	bmi.n	800925e <_vfiprintf_r+0x32>
 8009258:	6da8      	ldr	r0, [r5, #88]	; 0x58
 800925a:	f7ff f9ba 	bl	80085d2 <__retarget_lock_acquire_recursive>
 800925e:	89ab      	ldrh	r3, [r5, #12]
 8009260:	071b      	lsls	r3, r3, #28
 8009262:	d501      	bpl.n	8009268 <_vfiprintf_r+0x3c>
 8009264:	692b      	ldr	r3, [r5, #16]
 8009266:	b9eb      	cbnz	r3, 80092a4 <_vfiprintf_r+0x78>
 8009268:	4629      	mov	r1, r5
 800926a:	4630      	mov	r0, r6
 800926c:	f7fe f90c 	bl	8007488 <__swsetup_r>
 8009270:	b1c0      	cbz	r0, 80092a4 <_vfiprintf_r+0x78>
 8009272:	6e6b      	ldr	r3, [r5, #100]	; 0x64
 8009274:	07dc      	lsls	r4, r3, #31
 8009276:	d50e      	bpl.n	8009296 <_vfiprintf_r+0x6a>
 8009278:	f04f 30ff 	mov.w	r0, #4294967295
 800927c:	b01d      	add	sp, #116	; 0x74
 800927e:	e8bd 8ff0 	ldmia.w	sp!, {r4, r5, r6, r7, r8, r9, sl, fp, pc}
 8009282:	4b7b      	ldr	r3, [pc, #492]	; (8009470 <_vfiprintf_r+0x244>)
 8009284:	429d      	cmp	r5, r3
 8009286:	d101      	bne.n	800928c <_vfiprintf_r+0x60>
 8009288:	68b5      	ldr	r5, [r6, #8]
 800928a:	e7df      	b.n	800924c <_vfiprintf_r+0x20>
 800928c:	4b79      	ldr	r3, [pc, #484]	; (8009474 <_vfiprintf_r+0x248>)
 800928e:	429d      	cmp	r5, r3
 8009290:	bf08      	it	eq
 8009292:	68f5      	ldreq	r5, [r6, #12]
 8009294:	e7da      	b.n	800924c <_vfiprintf_r+0x20>
 8009296:	89ab      	ldrh	r3, [r5, #12]
 8009298:	0598      	lsls	r0, r3, #22
 800929a:	d4ed      	bmi.n	8009278 <_vfiprintf_r+0x4c>
 800929c:	6da8      	ldr	r0, [r5, #88]	; 0x58
 800929e:	f7ff f999 	bl	80085d4 <__retarget_lock_release_recursive>
 80092a2:	e7e9      	b.n	8009278 <_vfiprintf_r+0x4c>
 80092a4:	2300      	movs	r3, #0
 80092a6:	9309      	str	r3, [sp, #36]	; 0x24
 80092a8:	2320      	movs	r3, #32
 80092aa:	f88d 3029 	strb.w	r3, [sp, #41]	; 0x29
 80092ae:	f8cd 800c 	str.w	r8, [sp, #12]
 80092b2:	2330      	movs	r3, #48	; 0x30
 80092b4:	f8df 81c0 	ldr.w	r8, [pc, #448]	; 8009478 <_vfiprintf_r+0x24c>
 80092b8:	f88d 302a 	strb.w	r3, [sp, #42]	; 0x2a
 80092bc:	f04f 0901 	mov.w	r9, #1
 80092c0:	4623      	mov	r3, r4
 80092c2:	469a      	mov	sl, r3
 80092c4:	f813 2b01 	ldrb.w	r2, [r3], #1
 80092c8:	b10a      	cbz	r2, 80092ce <_vfiprintf_r+0xa2>
 80092ca:	2a25      	cmp	r2, #37	; 0x25
 80092cc:	d1f9      	bne.n	80092c2 <_vfiprintf_r+0x96>
 80092ce:	ebba 0b04 	subs.w	fp, sl, r4
 80092d2:	d00b      	beq.n	80092ec <_vfiprintf_r+0xc0>
 80092d4:	465b      	mov	r3, fp
 80092d6:	4622      	mov	r2, r4
 80092d8:	4629      	mov	r1, r5
 80092da:	4630      	mov	r0, r6
 80092dc:	f7ff ff93 	bl	8009206 <__sfputs_r>
 80092e0:	3001      	adds	r0, #1
 80092e2:	f000 80aa 	beq.w	800943a <_vfiprintf_r+0x20e>
 80092e6:	9a09      	ldr	r2, [sp, #36]	; 0x24
 80092e8:	445a      	add	r2, fp
 80092ea:	9209      	str	r2, [sp, #36]	; 0x24
 80092ec:	f89a 3000 	ldrb.w	r3, [sl]
 80092f0:	2b00      	cmp	r3, #0
 80092f2:	f000 80a2 	beq.w	800943a <_vfiprintf_r+0x20e>
 80092f6:	2300      	movs	r3, #0
 80092f8:	f04f 32ff 	mov.w	r2, #4294967295
 80092fc:	e9cd 2305 	strd	r2, r3, [sp, #20]
 8009300:	f10a 0a01 	add.w	sl, sl, #1
 8009304:	9304      	str	r3, [sp, #16]
 8009306:	9307      	str	r3, [sp, #28]
 8009308:	f88d 3053 	strb.w	r3, [sp, #83]	; 0x53
 800930c:	931a      	str	r3, [sp, #104]	; 0x68
 800930e:	4654      	mov	r4, sl
 8009310:	2205      	movs	r2, #5
 8009312:	f814 1b01 	ldrb.w	r1, [r4], #1
 8009316:	4858      	ldr	r0, [pc, #352]	; (8009478 <_vfiprintf_r+0x24c>)
 8009318:	f7f6 ff62 	bl	80001e0 <memchr>
 800931c:	9a04      	ldr	r2, [sp, #16]
 800931e:	b9d8      	cbnz	r0, 8009358 <_vfiprintf_r+0x12c>
 8009320:	06d1      	lsls	r1, r2, #27
 8009322:	bf44      	itt	mi
 8009324:	2320      	movmi	r3, #32
 8009326:	f88d 3053 	strbmi.w	r3, [sp, #83]	; 0x53
 800932a:	0713      	lsls	r3, r2, #28
 800932c:	bf44      	itt	mi
 800932e:	232b      	movmi	r3, #43	; 0x2b
 8009330:	f88d 3053 	strbmi.w	r3, [sp, #83]	; 0x53
 8009334:	f89a 3000 	ldrb.w	r3, [sl]
 8009338:	2b2a      	cmp	r3, #42	; 0x2a
 800933a:	d015      	beq.n	8009368 <_vfiprintf_r+0x13c>
 800933c:	9a07      	ldr	r2, [sp, #28]
 800933e:	4654      	mov	r4, sl
 8009340:	2000      	movs	r0, #0
 8009342:	f04f 0c0a 	mov.w	ip, #10
 8009346:	4621      	mov	r1, r4
 8009348:	f811 3b01 	ldrb.w	r3, [r1], #1
 800934c:	3b30      	subs	r3, #48	; 0x30
 800934e:	2b09      	cmp	r3, #9
 8009350:	d94e      	bls.n	80093f0 <_vfiprintf_r+0x1c4>
 8009352:	b1b0      	cbz	r0, 8009382 <_vfiprintf_r+0x156>
 8009354:	9207      	str	r2, [sp, #28]
 8009356:	e014      	b.n	8009382 <_vfiprintf_r+0x156>
 8009358:	eba0 0308 	sub.w	r3, r0, r8
 800935c:	fa09 f303 	lsl.w	r3, r9, r3
 8009360:	4313      	orrs	r3, r2
 8009362:	9304      	str	r3, [sp, #16]
 8009364:	46a2      	mov	sl, r4
 8009366:	e7d2      	b.n	800930e <_vfiprintf_r+0xe2>
 8009368:	9b03      	ldr	r3, [sp, #12]
 800936a:	1d19      	adds	r1, r3, #4
 800936c:	681b      	ldr	r3, [r3, #0]
 800936e:	9103      	str	r1, [sp, #12]
 8009370:	2b00      	cmp	r3, #0
 8009372:	bfbb      	ittet	lt
 8009374:	425b      	neglt	r3, r3
 8009376:	f042 0202 	orrlt.w	r2, r2, #2
 800937a:	9307      	strge	r3, [sp, #28]
 800937c:	9307      	strlt	r3, [sp, #28]
 800937e:	bfb8      	it	lt
 8009380:	9204      	strlt	r2, [sp, #16]
 8009382:	7823      	ldrb	r3, [r4, #0]
 8009384:	2b2e      	cmp	r3, #46	; 0x2e
 8009386:	d10c      	bne.n	80093a2 <_vfiprintf_r+0x176>
 8009388:	7863      	ldrb	r3, [r4, #1]
 800938a:	2b2a      	cmp	r3, #42	; 0x2a
 800938c:	d135      	bne.n	80093fa <_vfiprintf_r+0x1ce>
 800938e:	9b03      	ldr	r3, [sp, #12]
 8009390:	1d1a      	adds	r2, r3, #4
 8009392:	681b      	ldr	r3, [r3, #0]
 8009394:	9203      	str	r2, [sp, #12]
 8009396:	2b00      	cmp	r3, #0
 8009398:	bfb8      	it	lt
 800939a:	f04f 33ff 	movlt.w	r3, #4294967295
 800939e:	3402      	adds	r4, #2
 80093a0:	9305      	str	r3, [sp, #20]
 80093a2:	f8df a0e4 	ldr.w	sl, [pc, #228]	; 8009488 <_vfiprintf_r+0x25c>
 80093a6:	7821      	ldrb	r1, [r4, #0]
 80093a8:	2203      	movs	r2, #3
 80093aa:	4650      	mov	r0, sl
 80093ac:	f7f6 ff18 	bl	80001e0 <memchr>
 80093b0:	b140      	cbz	r0, 80093c4 <_vfiprintf_r+0x198>
 80093b2:	2340      	movs	r3, #64	; 0x40
 80093b4:	eba0 000a 	sub.w	r0, r0, sl
 80093b8:	fa03 f000 	lsl.w	r0, r3, r0
 80093bc:	9b04      	ldr	r3, [sp, #16]
 80093be:	4303      	orrs	r3, r0
 80093c0:	3401      	adds	r4, #1
 80093c2:	9304      	str	r3, [sp, #16]
 80093c4:	f814 1b01 	ldrb.w	r1, [r4], #1
 80093c8:	482c      	ldr	r0, [pc, #176]	; (800947c <_vfiprintf_r+0x250>)
 80093ca:	f88d 1028 	strb.w	r1, [sp, #40]	; 0x28
 80093ce:	2206      	movs	r2, #6
 80093d0:	f7f6 ff06 	bl	80001e0 <memchr>
 80093d4:	2800      	cmp	r0, #0
 80093d6:	d03f      	beq.n	8009458 <_vfiprintf_r+0x22c>
 80093d8:	4b29      	ldr	r3, [pc, #164]	; (8009480 <_vfiprintf_r+0x254>)
 80093da:	bb1b      	cbnz	r3, 8009424 <_vfiprintf_r+0x1f8>
 80093dc:	9b03      	ldr	r3, [sp, #12]
 80093de:	3307      	adds	r3, #7
 80093e0:	f023 0307 	bic.w	r3, r3, #7
 80093e4:	3308      	adds	r3, #8
 80093e6:	9303      	str	r3, [sp, #12]
 80093e8:	9b09      	ldr	r3, [sp, #36]	; 0x24
 80093ea:	443b      	add	r3, r7
 80093ec:	9309      	str	r3, [sp, #36]	; 0x24
 80093ee:	e767      	b.n	80092c0 <_vfiprintf_r+0x94>
 80093f0:	fb0c 3202 	mla	r2, ip, r2, r3
 80093f4:	460c      	mov	r4, r1
 80093f6:	2001      	movs	r0, #1
 80093f8:	e7a5      	b.n	8009346 <_vfiprintf_r+0x11a>
 80093fa:	2300      	movs	r3, #0
 80093fc:	3401      	adds	r4, #1
 80093fe:	9305      	str	r3, [sp, #20]
 8009400:	4619      	mov	r1, r3
 8009402:	f04f 0c0a 	mov.w	ip, #10
 8009406:	4620      	mov	r0, r4
 8009408:	f810 2b01 	ldrb.w	r2, [r0], #1
 800940c:	3a30      	subs	r2, #48	; 0x30
 800940e:	2a09      	cmp	r2, #9
 8009410:	d903      	bls.n	800941a <_vfiprintf_r+0x1ee>
 8009412:	2b00      	cmp	r3, #0
 8009414:	d0c5      	beq.n	80093a2 <_vfiprintf_r+0x176>
 8009416:	9105      	str	r1, [sp, #20]
 8009418:	e7c3      	b.n	80093a2 <_vfiprintf_r+0x176>
 800941a:	fb0c 2101 	mla	r1, ip, r1, r2
 800941e:	4604      	mov	r4, r0
 8009420:	2301      	movs	r3, #1
 8009422:	e7f0      	b.n	8009406 <_vfiprintf_r+0x1da>
 8009424:	ab03      	add	r3, sp, #12
 8009426:	9300      	str	r3, [sp, #0]
 8009428:	462a      	mov	r2, r5
 800942a:	4b16      	ldr	r3, [pc, #88]	; (8009484 <_vfiprintf_r+0x258>)
 800942c:	a904      	add	r1, sp, #16
 800942e:	4630      	mov	r0, r6
 8009430:	f7fd fb58 	bl	8006ae4 <_printf_float>
 8009434:	4607      	mov	r7, r0
 8009436:	1c78      	adds	r0, r7, #1
 8009438:	d1d6      	bne.n	80093e8 <_vfiprintf_r+0x1bc>
 800943a:	6e6b      	ldr	r3, [r5, #100]	; 0x64
 800943c:	07d9      	lsls	r1, r3, #31
 800943e:	d405      	bmi.n	800944c <_vfiprintf_r+0x220>
 8009440:	89ab      	ldrh	r3, [r5, #12]
 8009442:	059a      	lsls	r2, r3, #22
 8009444:	d402      	bmi.n	800944c <_vfiprintf_r+0x220>
 8009446:	6da8      	ldr	r0, [r5, #88]	; 0x58
 8009448:	f7ff f8c4 	bl	80085d4 <__retarget_lock_release_recursive>
 800944c:	89ab      	ldrh	r3, [r5, #12]
 800944e:	065b      	lsls	r3, r3, #25
 8009450:	f53f af12 	bmi.w	8009278 <_vfiprintf_r+0x4c>
 8009454:	9809      	ldr	r0, [sp, #36]	; 0x24
 8009456:	e711      	b.n	800927c <_vfiprintf_r+0x50>
 8009458:	ab03      	add	r3, sp, #12
 800945a:	9300      	str	r3, [sp, #0]
 800945c:	462a      	mov	r2, r5
 800945e:	4b09      	ldr	r3, [pc, #36]	; (8009484 <_vfiprintf_r+0x258>)
 8009460:	a904      	add	r1, sp, #16
 8009462:	4630      	mov	r0, r6
 8009464:	f7fd fde2 	bl	800702c <_printf_i>
 8009468:	e7e4      	b.n	8009434 <_vfiprintf_r+0x208>
 800946a:	bf00      	nop
 800946c:	0800ad74 	.word	0x0800ad74
 8009470:	0800ad94 	.word	0x0800ad94
 8009474:	0800ad54 	.word	0x0800ad54
 8009478:	0800af14 	.word	0x0800af14
 800947c:	0800af1e 	.word	0x0800af1e
 8009480:	08006ae5 	.word	0x08006ae5
 8009484:	08009207 	.word	0x08009207
 8009488:	0800af1a 	.word	0x0800af1a

0800948c <_sbrk_r>:
 800948c:	b538      	push	{r3, r4, r5, lr}
 800948e:	4d06      	ldr	r5, [pc, #24]	; (80094a8 <_sbrk_r+0x1c>)
 8009490:	2300      	movs	r3, #0
 8009492:	4604      	mov	r4, r0
 8009494:	4608      	mov	r0, r1
 8009496:	602b      	str	r3, [r5, #0]
 8009498:	f7f9 fbb2 	bl	8002c00 <_sbrk>
 800949c:	1c43      	adds	r3, r0, #1
 800949e:	d102      	bne.n	80094a6 <_sbrk_r+0x1a>
 80094a0:	682b      	ldr	r3, [r5, #0]
 80094a2:	b103      	cbz	r3, 80094a6 <_sbrk_r+0x1a>
 80094a4:	6023      	str	r3, [r4, #0]
 80094a6:	bd38      	pop	{r3, r4, r5, pc}
 80094a8:	2000514c 	.word	0x2000514c

080094ac <__sread>:
 80094ac:	b510      	push	{r4, lr}
 80094ae:	460c      	mov	r4, r1
 80094b0:	f9b1 100e 	ldrsh.w	r1, [r1, #14]
 80094b4:	f000 f908 	bl	80096c8 <_read_r>
 80094b8:	2800      	cmp	r0, #0
 80094ba:	bfab      	itete	ge
 80094bc:	6d63      	ldrge	r3, [r4, #84]	; 0x54
 80094be:	89a3      	ldrhlt	r3, [r4, #12]
 80094c0:	181b      	addge	r3, r3, r0
 80094c2:	f423 5380 	biclt.w	r3, r3, #4096	; 0x1000
 80094c6:	bfac      	ite	ge
 80094c8:	6563      	strge	r3, [r4, #84]	; 0x54
 80094ca:	81a3      	strhlt	r3, [r4, #12]
 80094cc:	bd10      	pop	{r4, pc}

080094ce <__swrite>:
 80094ce:	e92d 41f0 	stmdb	sp!, {r4, r5, r6, r7, r8, lr}
 80094d2:	461f      	mov	r7, r3
 80094d4:	898b      	ldrh	r3, [r1, #12]
 80094d6:	05db      	lsls	r3, r3, #23
 80094d8:	4605      	mov	r5, r0
 80094da:	460c      	mov	r4, r1
 80094dc:	4616      	mov	r6, r2
 80094de:	d505      	bpl.n	80094ec <__swrite+0x1e>
 80094e0:	f9b1 100e 	ldrsh.w	r1, [r1, #14]
 80094e4:	2302      	movs	r3, #2
 80094e6:	2200      	movs	r2, #0
 80094e8:	f000 f898 	bl	800961c <_lseek_r>
 80094ec:	89a3      	ldrh	r3, [r4, #12]
 80094ee:	f9b4 100e 	ldrsh.w	r1, [r4, #14]
 80094f2:	f423 5380 	bic.w	r3, r3, #4096	; 0x1000
 80094f6:	81a3      	strh	r3, [r4, #12]
 80094f8:	4632      	mov	r2, r6
 80094fa:	463b      	mov	r3, r7
 80094fc:	4628      	mov	r0, r5
 80094fe:	e8bd 41f0 	ldmia.w	sp!, {r4, r5, r6, r7, r8, lr}
 8009502:	f000 b817 	b.w	8009534 <_write_r>

08009506 <__sseek>:
 8009506:	b510      	push	{r4, lr}
 8009508:	460c      	mov	r4, r1
 800950a:	f9b1 100e 	ldrsh.w	r1, [r1, #14]
 800950e:	f000 f885 	bl	800961c <_lseek_r>
 8009512:	1c43      	adds	r3, r0, #1
 8009514:	89a3      	ldrh	r3, [r4, #12]
 8009516:	bf15      	itete	ne
 8009518:	6560      	strne	r0, [r4, #84]	; 0x54
 800951a:	f423 5380 	biceq.w	r3, r3, #4096	; 0x1000
 800951e:	f443 5380 	orrne.w	r3, r3, #4096	; 0x1000
 8009522:	81a3      	strheq	r3, [r4, #12]
 8009524:	bf18      	it	ne
 8009526:	81a3      	strhne	r3, [r4, #12]
 8009528:	bd10      	pop	{r4, pc}

0800952a <__sclose>:
 800952a:	f9b1 100e 	ldrsh.w	r1, [r1, #14]
 800952e:	f000 b831 	b.w	8009594 <_close_r>
	...

08009534 <_write_r>:
 8009534:	b538      	push	{r3, r4, r5, lr}
 8009536:	4d07      	ldr	r5, [pc, #28]	; (8009554 <_write_r+0x20>)
 8009538:	4604      	mov	r4, r0
 800953a:	4608      	mov	r0, r1
 800953c:	4611      	mov	r1, r2
 800953e:	2200      	movs	r2, #0
 8009540:	602a      	str	r2, [r5, #0]
 8009542:	461a      	mov	r2, r3
 8009544:	f7f9 fb43 	bl	8002bce <_write>
 8009548:	1c43      	adds	r3, r0, #1
 800954a:	d102      	bne.n	8009552 <_write_r+0x1e>
 800954c:	682b      	ldr	r3, [r5, #0]
 800954e:	b103      	cbz	r3, 8009552 <_write_r+0x1e>
 8009550:	6023      	str	r3, [r4, #0]
 8009552:	bd38      	pop	{r3, r4, r5, pc}
 8009554:	2000514c 	.word	0x2000514c

08009558 <__assert_func>:
 8009558:	b51f      	push	{r0, r1, r2, r3, r4, lr}
 800955a:	4614      	mov	r4, r2
 800955c:	461a      	mov	r2, r3
 800955e:	4b09      	ldr	r3, [pc, #36]	; (8009584 <__assert_func+0x2c>)
 8009560:	681b      	ldr	r3, [r3, #0]
 8009562:	4605      	mov	r5, r0
 8009564:	68d8      	ldr	r0, [r3, #12]
 8009566:	b14c      	cbz	r4, 800957c <__assert_func+0x24>
 8009568:	4b07      	ldr	r3, [pc, #28]	; (8009588 <__assert_func+0x30>)
 800956a:	9100      	str	r1, [sp, #0]
 800956c:	e9cd 3401 	strd	r3, r4, [sp, #4]
 8009570:	4906      	ldr	r1, [pc, #24]	; (800958c <__assert_func+0x34>)
 8009572:	462b      	mov	r3, r5
 8009574:	f000 f81e 	bl	80095b4 <fiprintf>
 8009578:	f000 f8c5 	bl	8009706 <abort>
 800957c:	4b04      	ldr	r3, [pc, #16]	; (8009590 <__assert_func+0x38>)
 800957e:	461c      	mov	r4, r3
 8009580:	e7f3      	b.n	800956a <__assert_func+0x12>
 8009582:	bf00      	nop
 8009584:	20000014 	.word	0x20000014
 8009588:	0800af25 	.word	0x0800af25
 800958c:	0800af32 	.word	0x0800af32
 8009590:	0800aba5 	.word	0x0800aba5

08009594 <_close_r>:
 8009594:	b538      	push	{r3, r4, r5, lr}
 8009596:	4d06      	ldr	r5, [pc, #24]	; (80095b0 <_close_r+0x1c>)
 8009598:	2300      	movs	r3, #0
 800959a:	4604      	mov	r4, r0
 800959c:	4608      	mov	r0, r1
 800959e:	602b      	str	r3, [r5, #0]
 80095a0:	f7f9 fb22 	bl	8002be8 <_close>
 80095a4:	1c43      	adds	r3, r0, #1
 80095a6:	d102      	bne.n	80095ae <_close_r+0x1a>
 80095a8:	682b      	ldr	r3, [r5, #0]
 80095aa:	b103      	cbz	r3, 80095ae <_close_r+0x1a>
 80095ac:	6023      	str	r3, [r4, #0]
 80095ae:	bd38      	pop	{r3, r4, r5, pc}
 80095b0:	2000514c 	.word	0x2000514c

080095b4 <fiprintf>:
 80095b4:	b40e      	push	{r1, r2, r3}
 80095b6:	b503      	push	{r0, r1, lr}
 80095b8:	4601      	mov	r1, r0
 80095ba:	ab03      	add	r3, sp, #12
 80095bc:	4805      	ldr	r0, [pc, #20]	; (80095d4 <fiprintf+0x20>)
 80095be:	f853 2b04 	ldr.w	r2, [r3], #4
 80095c2:	6800      	ldr	r0, [r0, #0]
 80095c4:	9301      	str	r3, [sp, #4]
 80095c6:	f7ff fe31 	bl	800922c <_vfiprintf_r>
 80095ca:	b002      	add	sp, #8
 80095cc:	f85d eb04 	ldr.w	lr, [sp], #4
 80095d0:	b003      	add	sp, #12
 80095d2:	4770      	bx	lr
 80095d4:	20000014 	.word	0x20000014

080095d8 <_fstat_r>:
 80095d8:	b538      	push	{r3, r4, r5, lr}
 80095da:	4d07      	ldr	r5, [pc, #28]	; (80095f8 <_fstat_r+0x20>)
 80095dc:	2300      	movs	r3, #0
 80095de:	4604      	mov	r4, r0
 80095e0:	4608      	mov	r0, r1
 80095e2:	4611      	mov	r1, r2
 80095e4:	602b      	str	r3, [r5, #0]
 80095e6:	f7f9 fb02 	bl	8002bee <_fstat>
 80095ea:	1c43      	adds	r3, r0, #1
 80095ec:	d102      	bne.n	80095f4 <_fstat_r+0x1c>
 80095ee:	682b      	ldr	r3, [r5, #0]
 80095f0:	b103      	cbz	r3, 80095f4 <_fstat_r+0x1c>
 80095f2:	6023      	str	r3, [r4, #0]
 80095f4:	bd38      	pop	{r3, r4, r5, pc}
 80095f6:	bf00      	nop
 80095f8:	2000514c 	.word	0x2000514c

080095fc <_isatty_r>:
 80095fc:	b538      	push	{r3, r4, r5, lr}
 80095fe:	4d06      	ldr	r5, [pc, #24]	; (8009618 <_isatty_r+0x1c>)
 8009600:	2300      	movs	r3, #0
 8009602:	4604      	mov	r4, r0
 8009604:	4608      	mov	r0, r1
 8009606:	602b      	str	r3, [r5, #0]
 8009608:	f7f9 faf6 	bl	8002bf8 <_isatty>
 800960c:	1c43      	adds	r3, r0, #1
 800960e:	d102      	bne.n	8009616 <_isatty_r+0x1a>
 8009610:	682b      	ldr	r3, [r5, #0]
 8009612:	b103      	cbz	r3, 8009616 <_isatty_r+0x1a>
 8009614:	6023      	str	r3, [r4, #0]
 8009616:	bd38      	pop	{r3, r4, r5, pc}
 8009618:	2000514c 	.word	0x2000514c

0800961c <_lseek_r>:
 800961c:	b538      	push	{r3, r4, r5, lr}
 800961e:	4d07      	ldr	r5, [pc, #28]	; (800963c <_lseek_r+0x20>)
 8009620:	4604      	mov	r4, r0
 8009622:	4608      	mov	r0, r1
 8009624:	4611      	mov	r1, r2
 8009626:	2200      	movs	r2, #0
 8009628:	602a      	str	r2, [r5, #0]
 800962a:	461a      	mov	r2, r3
 800962c:	f7f9 fae6 	bl	8002bfc <_lseek>
 8009630:	1c43      	adds	r3, r0, #1
 8009632:	d102      	bne.n	800963a <_lseek_r+0x1e>
 8009634:	682b      	ldr	r3, [r5, #0]
 8009636:	b103      	cbz	r3, 800963a <_lseek_r+0x1e>
 8009638:	6023      	str	r3, [r4, #0]
 800963a:	bd38      	pop	{r3, r4, r5, pc}
 800963c:	2000514c 	.word	0x2000514c

08009640 <__ascii_mbtowc>:
 8009640:	b082      	sub	sp, #8
 8009642:	b901      	cbnz	r1, 8009646 <__ascii_mbtowc+0x6>
 8009644:	a901      	add	r1, sp, #4
 8009646:	b142      	cbz	r2, 800965a <__ascii_mbtowc+0x1a>
 8009648:	b14b      	cbz	r3, 800965e <__ascii_mbtowc+0x1e>
 800964a:	7813      	ldrb	r3, [r2, #0]
 800964c:	600b      	str	r3, [r1, #0]
 800964e:	7812      	ldrb	r2, [r2, #0]
 8009650:	1e10      	subs	r0, r2, #0
 8009652:	bf18      	it	ne
 8009654:	2001      	movne	r0, #1
 8009656:	b002      	add	sp, #8
 8009658:	4770      	bx	lr
 800965a:	4610      	mov	r0, r2
 800965c:	e7fb      	b.n	8009656 <__ascii_mbtowc+0x16>
 800965e:	f06f 0001 	mvn.w	r0, #1
 8009662:	e7f8      	b.n	8009656 <__ascii_mbtowc+0x16>

08009664 <__malloc_lock>:
 8009664:	4801      	ldr	r0, [pc, #4]	; (800966c <__malloc_lock+0x8>)
 8009666:	f7fe bfb4 	b.w	80085d2 <__retarget_lock_acquire_recursive>
 800966a:	bf00      	nop
 800966c:	20005144 	.word	0x20005144

08009670 <__malloc_unlock>:
 8009670:	4801      	ldr	r0, [pc, #4]	; (8009678 <__malloc_unlock+0x8>)
 8009672:	f7fe bfaf 	b.w	80085d4 <__retarget_lock_release_recursive>
 8009676:	bf00      	nop
 8009678:	20005144 	.word	0x20005144

0800967c <_realloc_r>:
 800967c:	b5f8      	push	{r3, r4, r5, r6, r7, lr}
 800967e:	4607      	mov	r7, r0
 8009680:	4614      	mov	r4, r2
 8009682:	460e      	mov	r6, r1
 8009684:	b921      	cbnz	r1, 8009690 <_realloc_r+0x14>
 8009686:	e8bd 40f8 	ldmia.w	sp!, {r3, r4, r5, r6, r7, lr}
 800968a:	4611      	mov	r1, r2
 800968c:	f7ff bbee 	b.w	8008e6c <_malloc_r>
 8009690:	b922      	cbnz	r2, 800969c <_realloc_r+0x20>
 8009692:	f7ff fb9b 	bl	8008dcc <_free_r>
 8009696:	4625      	mov	r5, r4
 8009698:	4628      	mov	r0, r5
 800969a:	bdf8      	pop	{r3, r4, r5, r6, r7, pc}
 800969c:	f000 f83a 	bl	8009714 <_malloc_usable_size_r>
 80096a0:	42a0      	cmp	r0, r4
 80096a2:	d20f      	bcs.n	80096c4 <_realloc_r+0x48>
 80096a4:	4621      	mov	r1, r4
 80096a6:	4638      	mov	r0, r7
 80096a8:	f7ff fbe0 	bl	8008e6c <_malloc_r>
 80096ac:	4605      	mov	r5, r0
 80096ae:	2800      	cmp	r0, #0
 80096b0:	d0f2      	beq.n	8009698 <_realloc_r+0x1c>
 80096b2:	4631      	mov	r1, r6
 80096b4:	4622      	mov	r2, r4
 80096b6:	f7fd f945 	bl	8006944 <memcpy>
 80096ba:	4631      	mov	r1, r6
 80096bc:	4638      	mov	r0, r7
 80096be:	f7ff fb85 	bl	8008dcc <_free_r>
 80096c2:	e7e9      	b.n	8009698 <_realloc_r+0x1c>
 80096c4:	4635      	mov	r5, r6
 80096c6:	e7e7      	b.n	8009698 <_realloc_r+0x1c>

080096c8 <_read_r>:
 80096c8:	b538      	push	{r3, r4, r5, lr}
 80096ca:	4d07      	ldr	r5, [pc, #28]	; (80096e8 <_read_r+0x20>)
 80096cc:	4604      	mov	r4, r0
 80096ce:	4608      	mov	r0, r1
 80096d0:	4611      	mov	r1, r2
 80096d2:	2200      	movs	r2, #0
 80096d4:	602a      	str	r2, [r5, #0]
 80096d6:	461a      	mov	r2, r3
 80096d8:	f7f9 fa6c 	bl	8002bb4 <_read>
 80096dc:	1c43      	adds	r3, r0, #1
 80096de:	d102      	bne.n	80096e6 <_read_r+0x1e>
 80096e0:	682b      	ldr	r3, [r5, #0]
 80096e2:	b103      	cbz	r3, 80096e6 <_read_r+0x1e>
 80096e4:	6023      	str	r3, [r4, #0]
 80096e6:	bd38      	pop	{r3, r4, r5, pc}
 80096e8:	2000514c 	.word	0x2000514c

080096ec <__ascii_wctomb>:
 80096ec:	b149      	cbz	r1, 8009702 <__ascii_wctomb+0x16>
 80096ee:	2aff      	cmp	r2, #255	; 0xff
 80096f0:	bf85      	ittet	hi
 80096f2:	238a      	movhi	r3, #138	; 0x8a
 80096f4:	6003      	strhi	r3, [r0, #0]
 80096f6:	700a      	strbls	r2, [r1, #0]
 80096f8:	f04f 30ff 	movhi.w	r0, #4294967295
 80096fc:	bf98      	it	ls
 80096fe:	2001      	movls	r0, #1
 8009700:	4770      	bx	lr
 8009702:	4608      	mov	r0, r1
 8009704:	4770      	bx	lr

08009706 <abort>:
 8009706:	b508      	push	{r3, lr}
 8009708:	2006      	movs	r0, #6
 800970a:	f000 f833 	bl	8009774 <raise>
 800970e:	2001      	movs	r0, #1
 8009710:	f7f9 fa4a 	bl	8002ba8 <_exit>

08009714 <_malloc_usable_size_r>:
 8009714:	f851 3c04 	ldr.w	r3, [r1, #-4]
 8009718:	1f18      	subs	r0, r3, #4
 800971a:	2b00      	cmp	r3, #0
 800971c:	bfbc      	itt	lt
 800971e:	580b      	ldrlt	r3, [r1, r0]
 8009720:	18c0      	addlt	r0, r0, r3
 8009722:	4770      	bx	lr

08009724 <_raise_r>:
 8009724:	291f      	cmp	r1, #31
 8009726:	b538      	push	{r3, r4, r5, lr}
 8009728:	4604      	mov	r4, r0
 800972a:	460d      	mov	r5, r1
 800972c:	d904      	bls.n	8009738 <_raise_r+0x14>
 800972e:	2316      	movs	r3, #22
 8009730:	6003      	str	r3, [r0, #0]
 8009732:	f04f 30ff 	mov.w	r0, #4294967295
 8009736:	bd38      	pop	{r3, r4, r5, pc}
 8009738:	6c42      	ldr	r2, [r0, #68]	; 0x44
 800973a:	b112      	cbz	r2, 8009742 <_raise_r+0x1e>
 800973c:	f852 3021 	ldr.w	r3, [r2, r1, lsl #2]
 8009740:	b94b      	cbnz	r3, 8009756 <_raise_r+0x32>
 8009742:	4620      	mov	r0, r4
 8009744:	f000 f830 	bl	80097a8 <_getpid_r>
 8009748:	462a      	mov	r2, r5
 800974a:	4601      	mov	r1, r0
 800974c:	4620      	mov	r0, r4
 800974e:	e8bd 4038 	ldmia.w	sp!, {r3, r4, r5, lr}
 8009752:	f000 b817 	b.w	8009784 <_kill_r>
 8009756:	2b01      	cmp	r3, #1
 8009758:	d00a      	beq.n	8009770 <_raise_r+0x4c>
 800975a:	1c59      	adds	r1, r3, #1
 800975c:	d103      	bne.n	8009766 <_raise_r+0x42>
 800975e:	2316      	movs	r3, #22
 8009760:	6003      	str	r3, [r0, #0]
 8009762:	2001      	movs	r0, #1
 8009764:	e7e7      	b.n	8009736 <_raise_r+0x12>
 8009766:	2400      	movs	r4, #0
 8009768:	f842 4025 	str.w	r4, [r2, r5, lsl #2]
 800976c:	4628      	mov	r0, r5
 800976e:	4798      	blx	r3
 8009770:	2000      	movs	r0, #0
 8009772:	e7e0      	b.n	8009736 <_raise_r+0x12>

08009774 <raise>:
 8009774:	4b02      	ldr	r3, [pc, #8]	; (8009780 <raise+0xc>)
 8009776:	4601      	mov	r1, r0
 8009778:	6818      	ldr	r0, [r3, #0]
 800977a:	f7ff bfd3 	b.w	8009724 <_raise_r>
 800977e:	bf00      	nop
 8009780:	20000014 	.word	0x20000014

08009784 <_kill_r>:
 8009784:	b538      	push	{r3, r4, r5, lr}
 8009786:	4d07      	ldr	r5, [pc, #28]	; (80097a4 <_kill_r+0x20>)
 8009788:	2300      	movs	r3, #0
 800978a:	4604      	mov	r4, r0
 800978c:	4608      	mov	r0, r1
 800978e:	4611      	mov	r1, r2
 8009790:	602b      	str	r3, [r5, #0]
 8009792:	f7f9 fa01 	bl	8002b98 <_kill>
 8009796:	1c43      	adds	r3, r0, #1
 8009798:	d102      	bne.n	80097a0 <_kill_r+0x1c>
 800979a:	682b      	ldr	r3, [r5, #0]
 800979c:	b103      	cbz	r3, 80097a0 <_kill_r+0x1c>
 800979e:	6023      	str	r3, [r4, #0]
 80097a0:	bd38      	pop	{r3, r4, r5, pc}
 80097a2:	bf00      	nop
 80097a4:	2000514c 	.word	0x2000514c

080097a8 <_getpid_r>:
 80097a8:	f7f9 b9f4 	b.w	8002b94 <_getpid>

080097ac <asin>:
 80097ac:	b538      	push	{r3, r4, r5, lr}
 80097ae:	ed2d 8b02 	vpush	{d8}
 80097b2:	ec55 4b10 	vmov	r4, r5, d0
 80097b6:	f000 f8bf 	bl	8009938 <__ieee754_asin>
 80097ba:	4b16      	ldr	r3, [pc, #88]	; (8009814 <asin+0x68>)
 80097bc:	eeb0 8a40 	vmov.f32	s16, s0
 80097c0:	eef0 8a60 	vmov.f32	s17, s1
 80097c4:	f993 3000 	ldrsb.w	r3, [r3]
 80097c8:	3301      	adds	r3, #1
 80097ca:	d01c      	beq.n	8009806 <asin+0x5a>
 80097cc:	4622      	mov	r2, r4
 80097ce:	462b      	mov	r3, r5
 80097d0:	4620      	mov	r0, r4
 80097d2:	4629      	mov	r1, r5
 80097d4:	f7f7 f9aa 	bl	8000b2c <__aeabi_dcmpun>
 80097d8:	b9a8      	cbnz	r0, 8009806 <asin+0x5a>
 80097da:	ec45 4b10 	vmov	d0, r4, r5
 80097de:	f000 fc5c 	bl	800a09a <fabs>
 80097e2:	4b0d      	ldr	r3, [pc, #52]	; (8009818 <asin+0x6c>)
 80097e4:	ec51 0b10 	vmov	r0, r1, d0
 80097e8:	2200      	movs	r2, #0
 80097ea:	f7f7 f995 	bl	8000b18 <__aeabi_dcmpgt>
 80097ee:	b150      	cbz	r0, 8009806 <asin+0x5a>
 80097f0:	f7fd f87e 	bl	80068f0 <__errno>
 80097f4:	ecbd 8b02 	vpop	{d8}
 80097f8:	2321      	movs	r3, #33	; 0x21
 80097fa:	6003      	str	r3, [r0, #0]
 80097fc:	e8bd 4038 	ldmia.w	sp!, {r3, r4, r5, lr}
 8009800:	4806      	ldr	r0, [pc, #24]	; (800981c <asin+0x70>)
 8009802:	f000 bc55 	b.w	800a0b0 <nan>
 8009806:	eeb0 0a48 	vmov.f32	s0, s16
 800980a:	eef0 0a68 	vmov.f32	s1, s17
 800980e:	ecbd 8b02 	vpop	{d8}
 8009812:	bd38      	pop	{r3, r4, r5, pc}
 8009814:	200001e4 	.word	0x200001e4
 8009818:	3ff00000 	.word	0x3ff00000
 800981c:	0800aba5 	.word	0x0800aba5

08009820 <sqrt>:
 8009820:	b538      	push	{r3, r4, r5, lr}
 8009822:	ed2d 8b02 	vpush	{d8}
 8009826:	ec55 4b10 	vmov	r4, r5, d0
 800982a:	f000 fa99 	bl	8009d60 <__ieee754_sqrt>
 800982e:	4b15      	ldr	r3, [pc, #84]	; (8009884 <sqrt+0x64>)
 8009830:	eeb0 8a40 	vmov.f32	s16, s0
 8009834:	eef0 8a60 	vmov.f32	s17, s1
 8009838:	f993 3000 	ldrsb.w	r3, [r3]
 800983c:	3301      	adds	r3, #1
 800983e:	d019      	beq.n	8009874 <sqrt+0x54>
 8009840:	4622      	mov	r2, r4
 8009842:	462b      	mov	r3, r5
 8009844:	4620      	mov	r0, r4
 8009846:	4629      	mov	r1, r5
 8009848:	f7f7 f970 	bl	8000b2c <__aeabi_dcmpun>
 800984c:	b990      	cbnz	r0, 8009874 <sqrt+0x54>
 800984e:	2200      	movs	r2, #0
 8009850:	2300      	movs	r3, #0
 8009852:	4620      	mov	r0, r4
 8009854:	4629      	mov	r1, r5
 8009856:	f7f7 f941 	bl	8000adc <__aeabi_dcmplt>
 800985a:	b158      	cbz	r0, 8009874 <sqrt+0x54>
 800985c:	f7fd f848 	bl	80068f0 <__errno>
 8009860:	2321      	movs	r3, #33	; 0x21
 8009862:	6003      	str	r3, [r0, #0]
 8009864:	2200      	movs	r2, #0
 8009866:	2300      	movs	r3, #0
 8009868:	4610      	mov	r0, r2
 800986a:	4619      	mov	r1, r3
 800986c:	f7f6 ffee 	bl	800084c <__aeabi_ddiv>
 8009870:	ec41 0b18 	vmov	d8, r0, r1
 8009874:	eeb0 0a48 	vmov.f32	s0, s16
 8009878:	eef0 0a68 	vmov.f32	s1, s17
 800987c:	ecbd 8b02 	vpop	{d8}
 8009880:	bd38      	pop	{r3, r4, r5, pc}
 8009882:	bf00      	nop
 8009884:	200001e4 	.word	0x200001e4

08009888 <asinf>:
 8009888:	b508      	push	{r3, lr}
 800988a:	ed2d 8b02 	vpush	{d8}
 800988e:	eeb0 8a40 	vmov.f32	s16, s0
 8009892:	f000 fb19 	bl	8009ec8 <__ieee754_asinf>
 8009896:	4b13      	ldr	r3, [pc, #76]	; (80098e4 <asinf+0x5c>)
 8009898:	f993 3000 	ldrsb.w	r3, [r3]
 800989c:	3301      	adds	r3, #1
 800989e:	eef0 8a40 	vmov.f32	s17, s0
 80098a2:	d01a      	beq.n	80098da <asinf+0x52>
 80098a4:	eeb4 8a48 	vcmp.f32	s16, s16
 80098a8:	eef1 fa10 	vmrs	APSR_nzcv, fpscr
 80098ac:	d615      	bvs.n	80098da <asinf+0x52>
 80098ae:	eeb0 0a48 	vmov.f32	s0, s16
 80098b2:	f000 fc05 	bl	800a0c0 <fabsf>
 80098b6:	eef7 7a00 	vmov.f32	s15, #112	; 0x3f800000  1.0
 80098ba:	eeb4 0ae7 	vcmpe.f32	s0, s15
 80098be:	eef1 fa10 	vmrs	APSR_nzcv, fpscr
 80098c2:	dd0a      	ble.n	80098da <asinf+0x52>
 80098c4:	f7fd f814 	bl	80068f0 <__errno>
 80098c8:	ecbd 8b02 	vpop	{d8}
 80098cc:	2321      	movs	r3, #33	; 0x21
 80098ce:	6003      	str	r3, [r0, #0]
 80098d0:	e8bd 4008 	ldmia.w	sp!, {r3, lr}
 80098d4:	4804      	ldr	r0, [pc, #16]	; (80098e8 <asinf+0x60>)
 80098d6:	f000 bbfb 	b.w	800a0d0 <nanf>
 80098da:	eeb0 0a68 	vmov.f32	s0, s17
 80098de:	ecbd 8b02 	vpop	{d8}
 80098e2:	bd08      	pop	{r3, pc}
 80098e4:	200001e4 	.word	0x200001e4
 80098e8:	0800aba5 	.word	0x0800aba5

080098ec <sqrtf>:
 80098ec:	b508      	push	{r3, lr}
 80098ee:	ed2d 8b02 	vpush	{d8}
 80098f2:	eeb0 8a40 	vmov.f32	s16, s0
 80098f6:	f000 fbcd 	bl	800a094 <__ieee754_sqrtf>
 80098fa:	4b0d      	ldr	r3, [pc, #52]	; (8009930 <sqrtf+0x44>)
 80098fc:	f993 3000 	ldrsb.w	r3, [r3]
 8009900:	3301      	adds	r3, #1
 8009902:	d011      	beq.n	8009928 <sqrtf+0x3c>
 8009904:	eeb4 8a48 	vcmp.f32	s16, s16
 8009908:	eef1 fa10 	vmrs	APSR_nzcv, fpscr
 800990c:	d60c      	bvs.n	8009928 <sqrtf+0x3c>
 800990e:	eddf 8a09 	vldr	s17, [pc, #36]	; 8009934 <sqrtf+0x48>
 8009912:	eeb4 8ae8 	vcmpe.f32	s16, s17
 8009916:	eef1 fa10 	vmrs	APSR_nzcv, fpscr
 800991a:	d505      	bpl.n	8009928 <sqrtf+0x3c>
 800991c:	f7fc ffe8 	bl	80068f0 <__errno>
 8009920:	ee88 0aa8 	vdiv.f32	s0, s17, s17
 8009924:	2321      	movs	r3, #33	; 0x21
 8009926:	6003      	str	r3, [r0, #0]
 8009928:	ecbd 8b02 	vpop	{d8}
 800992c:	bd08      	pop	{r3, pc}
 800992e:	bf00      	nop
 8009930:	200001e4 	.word	0x200001e4
 8009934:	00000000 	.word	0x00000000

08009938 <__ieee754_asin>:
 8009938:	e92d 4ff0 	stmdb	sp!, {r4, r5, r6, r7, r8, r9, sl, fp, lr}
 800993c:	ed2d 8b04 	vpush	{d8-d9}
 8009940:	ec55 4b10 	vmov	r4, r5, d0
 8009944:	4bcc      	ldr	r3, [pc, #816]	; (8009c78 <__ieee754_asin+0x340>)
 8009946:	b083      	sub	sp, #12
 8009948:	f025 4800 	bic.w	r8, r5, #2147483648	; 0x80000000
 800994c:	4598      	cmp	r8, r3
 800994e:	9501      	str	r5, [sp, #4]
 8009950:	dd35      	ble.n	80099be <__ieee754_asin+0x86>
 8009952:	ee10 3a10 	vmov	r3, s0
 8009956:	f108 4840 	add.w	r8, r8, #3221225472	; 0xc0000000
 800995a:	f508 1880 	add.w	r8, r8, #1048576	; 0x100000
 800995e:	ea58 0303 	orrs.w	r3, r8, r3
 8009962:	d117      	bne.n	8009994 <__ieee754_asin+0x5c>
 8009964:	a3aa      	add	r3, pc, #680	; (adr r3, 8009c10 <__ieee754_asin+0x2d8>)
 8009966:	e9d3 2300 	ldrd	r2, r3, [r3]
 800996a:	ee10 0a10 	vmov	r0, s0
 800996e:	4629      	mov	r1, r5
 8009970:	f7f6 fe42 	bl	80005f8 <__aeabi_dmul>
 8009974:	a3a8      	add	r3, pc, #672	; (adr r3, 8009c18 <__ieee754_asin+0x2e0>)
 8009976:	e9d3 2300 	ldrd	r2, r3, [r3]
 800997a:	4606      	mov	r6, r0
 800997c:	460f      	mov	r7, r1
 800997e:	4620      	mov	r0, r4
 8009980:	4629      	mov	r1, r5
 8009982:	f7f6 fe39 	bl	80005f8 <__aeabi_dmul>
 8009986:	4602      	mov	r2, r0
 8009988:	460b      	mov	r3, r1
 800998a:	4630      	mov	r0, r6
 800998c:	4639      	mov	r1, r7
 800998e:	f7f6 fc7d 	bl	800028c <__adddf3>
 8009992:	e00b      	b.n	80099ac <__ieee754_asin+0x74>
 8009994:	ee10 2a10 	vmov	r2, s0
 8009998:	462b      	mov	r3, r5
 800999a:	ee10 0a10 	vmov	r0, s0
 800999e:	4629      	mov	r1, r5
 80099a0:	f7f6 fc72 	bl	8000288 <__aeabi_dsub>
 80099a4:	4602      	mov	r2, r0
 80099a6:	460b      	mov	r3, r1
 80099a8:	f7f6 ff50 	bl	800084c <__aeabi_ddiv>
 80099ac:	4604      	mov	r4, r0
 80099ae:	460d      	mov	r5, r1
 80099b0:	ec45 4b10 	vmov	d0, r4, r5
 80099b4:	b003      	add	sp, #12
 80099b6:	ecbd 8b04 	vpop	{d8-d9}
 80099ba:	e8bd 8ff0 	ldmia.w	sp!, {r4, r5, r6, r7, r8, r9, sl, fp, pc}
 80099be:	4baf      	ldr	r3, [pc, #700]	; (8009c7c <__ieee754_asin+0x344>)
 80099c0:	4598      	cmp	r8, r3
 80099c2:	dc11      	bgt.n	80099e8 <__ieee754_asin+0xb0>
 80099c4:	f1b8 5f79 	cmp.w	r8, #1044381696	; 0x3e400000
 80099c8:	f280 80ae 	bge.w	8009b28 <__ieee754_asin+0x1f0>
 80099cc:	a394      	add	r3, pc, #592	; (adr r3, 8009c20 <__ieee754_asin+0x2e8>)
 80099ce:	e9d3 2300 	ldrd	r2, r3, [r3]
 80099d2:	ee10 0a10 	vmov	r0, s0
 80099d6:	4629      	mov	r1, r5
 80099d8:	f7f6 fc58 	bl	800028c <__adddf3>
 80099dc:	4ba8      	ldr	r3, [pc, #672]	; (8009c80 <__ieee754_asin+0x348>)
 80099de:	2200      	movs	r2, #0
 80099e0:	f7f7 f89a 	bl	8000b18 <__aeabi_dcmpgt>
 80099e4:	2800      	cmp	r0, #0
 80099e6:	d1e3      	bne.n	80099b0 <__ieee754_asin+0x78>
 80099e8:	ec45 4b10 	vmov	d0, r4, r5
 80099ec:	f000 fb55 	bl	800a09a <fabs>
 80099f0:	49a3      	ldr	r1, [pc, #652]	; (8009c80 <__ieee754_asin+0x348>)
 80099f2:	ec53 2b10 	vmov	r2, r3, d0
 80099f6:	2000      	movs	r0, #0
 80099f8:	f7f6 fc46 	bl	8000288 <__aeabi_dsub>
 80099fc:	4ba1      	ldr	r3, [pc, #644]	; (8009c84 <__ieee754_asin+0x34c>)
 80099fe:	2200      	movs	r2, #0
 8009a00:	f7f6 fdfa 	bl	80005f8 <__aeabi_dmul>
 8009a04:	a388      	add	r3, pc, #544	; (adr r3, 8009c28 <__ieee754_asin+0x2f0>)
 8009a06:	e9d3 2300 	ldrd	r2, r3, [r3]
 8009a0a:	4604      	mov	r4, r0
 8009a0c:	460d      	mov	r5, r1
 8009a0e:	f7f6 fdf3 	bl	80005f8 <__aeabi_dmul>
 8009a12:	a387      	add	r3, pc, #540	; (adr r3, 8009c30 <__ieee754_asin+0x2f8>)
 8009a14:	e9d3 2300 	ldrd	r2, r3, [r3]
 8009a18:	f7f6 fc38 	bl	800028c <__adddf3>
 8009a1c:	4622      	mov	r2, r4
 8009a1e:	462b      	mov	r3, r5
 8009a20:	f7f6 fdea 	bl	80005f8 <__aeabi_dmul>
 8009a24:	a384      	add	r3, pc, #528	; (adr r3, 8009c38 <__ieee754_asin+0x300>)
 8009a26:	e9d3 2300 	ldrd	r2, r3, [r3]
 8009a2a:	f7f6 fc2d 	bl	8000288 <__aeabi_dsub>
 8009a2e:	4622      	mov	r2, r4
 8009a30:	462b      	mov	r3, r5
 8009a32:	f7f6 fde1 	bl	80005f8 <__aeabi_dmul>
 8009a36:	a382      	add	r3, pc, #520	; (adr r3, 8009c40 <__ieee754_asin+0x308>)
 8009a38:	e9d3 2300 	ldrd	r2, r3, [r3]
 8009a3c:	f7f6 fc26 	bl	800028c <__adddf3>
 8009a40:	4622      	mov	r2, r4
 8009a42:	462b      	mov	r3, r5
 8009a44:	f7f6 fdd8 	bl	80005f8 <__aeabi_dmul>
 8009a48:	a37f      	add	r3, pc, #508	; (adr r3, 8009c48 <__ieee754_asin+0x310>)
 8009a4a:	e9d3 2300 	ldrd	r2, r3, [r3]
 8009a4e:	f7f6 fc1b 	bl	8000288 <__aeabi_dsub>
 8009a52:	4622      	mov	r2, r4
 8009a54:	462b      	mov	r3, r5
 8009a56:	f7f6 fdcf 	bl	80005f8 <__aeabi_dmul>
 8009a5a:	a37d      	add	r3, pc, #500	; (adr r3, 8009c50 <__ieee754_asin+0x318>)
 8009a5c:	e9d3 2300 	ldrd	r2, r3, [r3]
 8009a60:	f7f6 fc14 	bl	800028c <__adddf3>
 8009a64:	4622      	mov	r2, r4
 8009a66:	462b      	mov	r3, r5
 8009a68:	f7f6 fdc6 	bl	80005f8 <__aeabi_dmul>
 8009a6c:	a37a      	add	r3, pc, #488	; (adr r3, 8009c58 <__ieee754_asin+0x320>)
 8009a6e:	e9d3 2300 	ldrd	r2, r3, [r3]
 8009a72:	ec41 0b18 	vmov	d8, r0, r1
 8009a76:	4620      	mov	r0, r4
 8009a78:	4629      	mov	r1, r5
 8009a7a:	f7f6 fdbd 	bl	80005f8 <__aeabi_dmul>
 8009a7e:	a378      	add	r3, pc, #480	; (adr r3, 8009c60 <__ieee754_asin+0x328>)
 8009a80:	e9d3 2300 	ldrd	r2, r3, [r3]
 8009a84:	f7f6 fc00 	bl	8000288 <__aeabi_dsub>
 8009a88:	4622      	mov	r2, r4
 8009a8a:	462b      	mov	r3, r5
 8009a8c:	f7f6 fdb4 	bl	80005f8 <__aeabi_dmul>
 8009a90:	a375      	add	r3, pc, #468	; (adr r3, 8009c68 <__ieee754_asin+0x330>)
 8009a92:	e9d3 2300 	ldrd	r2, r3, [r3]
 8009a96:	f7f6 fbf9 	bl	800028c <__adddf3>
 8009a9a:	4622      	mov	r2, r4
 8009a9c:	462b      	mov	r3, r5
 8009a9e:	f7f6 fdab 	bl	80005f8 <__aeabi_dmul>
 8009aa2:	a373      	add	r3, pc, #460	; (adr r3, 8009c70 <__ieee754_asin+0x338>)
 8009aa4:	e9d3 2300 	ldrd	r2, r3, [r3]
 8009aa8:	f7f6 fbee 	bl	8000288 <__aeabi_dsub>
 8009aac:	4622      	mov	r2, r4
 8009aae:	462b      	mov	r3, r5
 8009ab0:	f7f6 fda2 	bl	80005f8 <__aeabi_dmul>
 8009ab4:	4b72      	ldr	r3, [pc, #456]	; (8009c80 <__ieee754_asin+0x348>)
 8009ab6:	2200      	movs	r2, #0
 8009ab8:	f7f6 fbe8 	bl	800028c <__adddf3>
 8009abc:	ec45 4b10 	vmov	d0, r4, r5
 8009ac0:	4606      	mov	r6, r0
 8009ac2:	460f      	mov	r7, r1
 8009ac4:	f000 f94c 	bl	8009d60 <__ieee754_sqrt>
 8009ac8:	4b6f      	ldr	r3, [pc, #444]	; (8009c88 <__ieee754_asin+0x350>)
 8009aca:	4598      	cmp	r8, r3
 8009acc:	ec5b ab10 	vmov	sl, fp, d0
 8009ad0:	f340 80dc 	ble.w	8009c8c <__ieee754_asin+0x354>
 8009ad4:	4632      	mov	r2, r6
 8009ad6:	463b      	mov	r3, r7
 8009ad8:	ec51 0b18 	vmov	r0, r1, d8
 8009adc:	f7f6 feb6 	bl	800084c <__aeabi_ddiv>
 8009ae0:	4652      	mov	r2, sl
 8009ae2:	465b      	mov	r3, fp
 8009ae4:	f7f6 fd88 	bl	80005f8 <__aeabi_dmul>
 8009ae8:	4652      	mov	r2, sl
 8009aea:	465b      	mov	r3, fp
 8009aec:	f7f6 fbce 	bl	800028c <__adddf3>
 8009af0:	4602      	mov	r2, r0
 8009af2:	460b      	mov	r3, r1
 8009af4:	f7f6 fbca 	bl	800028c <__adddf3>
 8009af8:	a347      	add	r3, pc, #284	; (adr r3, 8009c18 <__ieee754_asin+0x2e0>)
 8009afa:	e9d3 2300 	ldrd	r2, r3, [r3]
 8009afe:	f7f6 fbc3 	bl	8000288 <__aeabi_dsub>
 8009b02:	4602      	mov	r2, r0
 8009b04:	460b      	mov	r3, r1
 8009b06:	a142      	add	r1, pc, #264	; (adr r1, 8009c10 <__ieee754_asin+0x2d8>)
 8009b08:	e9d1 0100 	ldrd	r0, r1, [r1]
 8009b0c:	f7f6 fbbc 	bl	8000288 <__aeabi_dsub>
 8009b10:	9b01      	ldr	r3, [sp, #4]
 8009b12:	2b00      	cmp	r3, #0
 8009b14:	bfdc      	itt	le
 8009b16:	4602      	movle	r2, r0
 8009b18:	f101 4300 	addle.w	r3, r1, #2147483648	; 0x80000000
 8009b1c:	4604      	mov	r4, r0
 8009b1e:	460d      	mov	r5, r1
 8009b20:	bfdc      	itt	le
 8009b22:	4614      	movle	r4, r2
 8009b24:	461d      	movle	r5, r3
 8009b26:	e743      	b.n	80099b0 <__ieee754_asin+0x78>
 8009b28:	ee10 2a10 	vmov	r2, s0
 8009b2c:	ee10 0a10 	vmov	r0, s0
 8009b30:	462b      	mov	r3, r5
 8009b32:	4629      	mov	r1, r5
 8009b34:	f7f6 fd60 	bl	80005f8 <__aeabi_dmul>
 8009b38:	a33b      	add	r3, pc, #236	; (adr r3, 8009c28 <__ieee754_asin+0x2f0>)
 8009b3a:	e9d3 2300 	ldrd	r2, r3, [r3]
 8009b3e:	4606      	mov	r6, r0
 8009b40:	460f      	mov	r7, r1
 8009b42:	f7f6 fd59 	bl	80005f8 <__aeabi_dmul>
 8009b46:	a33a      	add	r3, pc, #232	; (adr r3, 8009c30 <__ieee754_asin+0x2f8>)
 8009b48:	e9d3 2300 	ldrd	r2, r3, [r3]
 8009b4c:	f7f6 fb9e 	bl	800028c <__adddf3>
 8009b50:	4632      	mov	r2, r6
 8009b52:	463b      	mov	r3, r7
 8009b54:	f7f6 fd50 	bl	80005f8 <__aeabi_dmul>
 8009b58:	a337      	add	r3, pc, #220	; (adr r3, 8009c38 <__ieee754_asin+0x300>)
 8009b5a:	e9d3 2300 	ldrd	r2, r3, [r3]
 8009b5e:	f7f6 fb93 	bl	8000288 <__aeabi_dsub>
 8009b62:	4632      	mov	r2, r6
 8009b64:	463b      	mov	r3, r7
 8009b66:	f7f6 fd47 	bl	80005f8 <__aeabi_dmul>
 8009b6a:	a335      	add	r3, pc, #212	; (adr r3, 8009c40 <__ieee754_asin+0x308>)
 8009b6c:	e9d3 2300 	ldrd	r2, r3, [r3]
 8009b70:	f7f6 fb8c 	bl	800028c <__adddf3>
 8009b74:	4632      	mov	r2, r6
 8009b76:	463b      	mov	r3, r7
 8009b78:	f7f6 fd3e 	bl	80005f8 <__aeabi_dmul>
 8009b7c:	a332      	add	r3, pc, #200	; (adr r3, 8009c48 <__ieee754_asin+0x310>)
 8009b7e:	e9d3 2300 	ldrd	r2, r3, [r3]
 8009b82:	f7f6 fb81 	bl	8000288 <__aeabi_dsub>
 8009b86:	4632      	mov	r2, r6
 8009b88:	463b      	mov	r3, r7
 8009b8a:	f7f6 fd35 	bl	80005f8 <__aeabi_dmul>
 8009b8e:	a330      	add	r3, pc, #192	; (adr r3, 8009c50 <__ieee754_asin+0x318>)
 8009b90:	e9d3 2300 	ldrd	r2, r3, [r3]
 8009b94:	f7f6 fb7a 	bl	800028c <__adddf3>
 8009b98:	4632      	mov	r2, r6
 8009b9a:	463b      	mov	r3, r7
 8009b9c:	f7f6 fd2c 	bl	80005f8 <__aeabi_dmul>
 8009ba0:	a32d      	add	r3, pc, #180	; (adr r3, 8009c58 <__ieee754_asin+0x320>)
 8009ba2:	e9d3 2300 	ldrd	r2, r3, [r3]
 8009ba6:	4680      	mov	r8, r0
 8009ba8:	4689      	mov	r9, r1
 8009baa:	4630      	mov	r0, r6
 8009bac:	4639      	mov	r1, r7
 8009bae:	f7f6 fd23 	bl	80005f8 <__aeabi_dmul>
 8009bb2:	a32b      	add	r3, pc, #172	; (adr r3, 8009c60 <__ieee754_asin+0x328>)
 8009bb4:	e9d3 2300 	ldrd	r2, r3, [r3]
 8009bb8:	f7f6 fb66 	bl	8000288 <__aeabi_dsub>
 8009bbc:	4632      	mov	r2, r6
 8009bbe:	463b      	mov	r3, r7
 8009bc0:	f7f6 fd1a 	bl	80005f8 <__aeabi_dmul>
 8009bc4:	a328      	add	r3, pc, #160	; (adr r3, 8009c68 <__ieee754_asin+0x330>)
 8009bc6:	e9d3 2300 	ldrd	r2, r3, [r3]
 8009bca:	f7f6 fb5f 	bl	800028c <__adddf3>
 8009bce:	4632      	mov	r2, r6
 8009bd0:	463b      	mov	r3, r7
 8009bd2:	f7f6 fd11 	bl	80005f8 <__aeabi_dmul>
 8009bd6:	a326      	add	r3, pc, #152	; (adr r3, 8009c70 <__ieee754_asin+0x338>)
 8009bd8:	e9d3 2300 	ldrd	r2, r3, [r3]
 8009bdc:	f7f6 fb54 	bl	8000288 <__aeabi_dsub>
 8009be0:	4632      	mov	r2, r6
 8009be2:	463b      	mov	r3, r7
 8009be4:	f7f6 fd08 	bl	80005f8 <__aeabi_dmul>
 8009be8:	4b25      	ldr	r3, [pc, #148]	; (8009c80 <__ieee754_asin+0x348>)
 8009bea:	2200      	movs	r2, #0
 8009bec:	f7f6 fb4e 	bl	800028c <__adddf3>
 8009bf0:	4602      	mov	r2, r0
 8009bf2:	460b      	mov	r3, r1
 8009bf4:	4640      	mov	r0, r8
 8009bf6:	4649      	mov	r1, r9
 8009bf8:	f7f6 fe28 	bl	800084c <__aeabi_ddiv>
 8009bfc:	4622      	mov	r2, r4
 8009bfe:	462b      	mov	r3, r5
 8009c00:	f7f6 fcfa 	bl	80005f8 <__aeabi_dmul>
 8009c04:	4602      	mov	r2, r0
 8009c06:	460b      	mov	r3, r1
 8009c08:	4620      	mov	r0, r4
 8009c0a:	4629      	mov	r1, r5
 8009c0c:	e6bf      	b.n	800998e <__ieee754_asin+0x56>
 8009c0e:	bf00      	nop
 8009c10:	54442d18 	.word	0x54442d18
 8009c14:	3ff921fb 	.word	0x3ff921fb
 8009c18:	33145c07 	.word	0x33145c07
 8009c1c:	3c91a626 	.word	0x3c91a626
 8009c20:	8800759c 	.word	0x8800759c
 8009c24:	7e37e43c 	.word	0x7e37e43c
 8009c28:	0dfdf709 	.word	0x0dfdf709
 8009c2c:	3f023de1 	.word	0x3f023de1
 8009c30:	7501b288 	.word	0x7501b288
 8009c34:	3f49efe0 	.word	0x3f49efe0
 8009c38:	b5688f3b 	.word	0xb5688f3b
 8009c3c:	3fa48228 	.word	0x3fa48228
 8009c40:	0e884455 	.word	0x0e884455
 8009c44:	3fc9c155 	.word	0x3fc9c155
 8009c48:	03eb6f7d 	.word	0x03eb6f7d
 8009c4c:	3fd4d612 	.word	0x3fd4d612
 8009c50:	55555555 	.word	0x55555555
 8009c54:	3fc55555 	.word	0x3fc55555
 8009c58:	b12e9282 	.word	0xb12e9282
 8009c5c:	3fb3b8c5 	.word	0x3fb3b8c5
 8009c60:	1b8d0159 	.word	0x1b8d0159
 8009c64:	3fe6066c 	.word	0x3fe6066c
 8009c68:	9c598ac8 	.word	0x9c598ac8
 8009c6c:	40002ae5 	.word	0x40002ae5
 8009c70:	1c8a2d4b 	.word	0x1c8a2d4b
 8009c74:	40033a27 	.word	0x40033a27
 8009c78:	3fefffff 	.word	0x3fefffff
 8009c7c:	3fdfffff 	.word	0x3fdfffff
 8009c80:	3ff00000 	.word	0x3ff00000
 8009c84:	3fe00000 	.word	0x3fe00000
 8009c88:	3fef3332 	.word	0x3fef3332
 8009c8c:	ee10 2a10 	vmov	r2, s0
 8009c90:	ee10 0a10 	vmov	r0, s0
 8009c94:	465b      	mov	r3, fp
 8009c96:	4659      	mov	r1, fp
 8009c98:	f7f6 faf8 	bl	800028c <__adddf3>
 8009c9c:	4632      	mov	r2, r6
 8009c9e:	463b      	mov	r3, r7
 8009ca0:	ec41 0b19 	vmov	d9, r0, r1
 8009ca4:	ec51 0b18 	vmov	r0, r1, d8
 8009ca8:	f7f6 fdd0 	bl	800084c <__aeabi_ddiv>
 8009cac:	4602      	mov	r2, r0
 8009cae:	460b      	mov	r3, r1
 8009cb0:	ec51 0b19 	vmov	r0, r1, d9
 8009cb4:	f7f6 fca0 	bl	80005f8 <__aeabi_dmul>
 8009cb8:	f04f 0800 	mov.w	r8, #0
 8009cbc:	4606      	mov	r6, r0
 8009cbe:	460f      	mov	r7, r1
 8009cc0:	4642      	mov	r2, r8
 8009cc2:	465b      	mov	r3, fp
 8009cc4:	4640      	mov	r0, r8
 8009cc6:	4659      	mov	r1, fp
 8009cc8:	f7f6 fc96 	bl	80005f8 <__aeabi_dmul>
 8009ccc:	4602      	mov	r2, r0
 8009cce:	460b      	mov	r3, r1
 8009cd0:	4620      	mov	r0, r4
 8009cd2:	4629      	mov	r1, r5
 8009cd4:	f7f6 fad8 	bl	8000288 <__aeabi_dsub>
 8009cd8:	4642      	mov	r2, r8
 8009cda:	4604      	mov	r4, r0
 8009cdc:	460d      	mov	r5, r1
 8009cde:	465b      	mov	r3, fp
 8009ce0:	4650      	mov	r0, sl
 8009ce2:	4659      	mov	r1, fp
 8009ce4:	f7f6 fad2 	bl	800028c <__adddf3>
 8009ce8:	4602      	mov	r2, r0
 8009cea:	460b      	mov	r3, r1
 8009cec:	4620      	mov	r0, r4
 8009cee:	4629      	mov	r1, r5
 8009cf0:	f7f6 fdac 	bl	800084c <__aeabi_ddiv>
 8009cf4:	4602      	mov	r2, r0
 8009cf6:	460b      	mov	r3, r1
 8009cf8:	f7f6 fac8 	bl	800028c <__adddf3>
 8009cfc:	4602      	mov	r2, r0
 8009cfe:	460b      	mov	r3, r1
 8009d00:	a113      	add	r1, pc, #76	; (adr r1, 8009d50 <__ieee754_asin+0x418>)
 8009d02:	e9d1 0100 	ldrd	r0, r1, [r1]
 8009d06:	f7f6 fabf 	bl	8000288 <__aeabi_dsub>
 8009d0a:	4602      	mov	r2, r0
 8009d0c:	460b      	mov	r3, r1
 8009d0e:	4630      	mov	r0, r6
 8009d10:	4639      	mov	r1, r7
 8009d12:	f7f6 fab9 	bl	8000288 <__aeabi_dsub>
 8009d16:	4642      	mov	r2, r8
 8009d18:	4604      	mov	r4, r0
 8009d1a:	460d      	mov	r5, r1
 8009d1c:	465b      	mov	r3, fp
 8009d1e:	4640      	mov	r0, r8
 8009d20:	4659      	mov	r1, fp
 8009d22:	f7f6 fab3 	bl	800028c <__adddf3>
 8009d26:	4602      	mov	r2, r0
 8009d28:	460b      	mov	r3, r1
 8009d2a:	a10b      	add	r1, pc, #44	; (adr r1, 8009d58 <__ieee754_asin+0x420>)
 8009d2c:	e9d1 0100 	ldrd	r0, r1, [r1]
 8009d30:	f7f6 faaa 	bl	8000288 <__aeabi_dsub>
 8009d34:	4602      	mov	r2, r0
 8009d36:	460b      	mov	r3, r1
 8009d38:	4620      	mov	r0, r4
 8009d3a:	4629      	mov	r1, r5
 8009d3c:	f7f6 faa4 	bl	8000288 <__aeabi_dsub>
 8009d40:	4602      	mov	r2, r0
 8009d42:	460b      	mov	r3, r1
 8009d44:	a104      	add	r1, pc, #16	; (adr r1, 8009d58 <__ieee754_asin+0x420>)
 8009d46:	e9d1 0100 	ldrd	r0, r1, [r1]
 8009d4a:	e6df      	b.n	8009b0c <__ieee754_asin+0x1d4>
 8009d4c:	f3af 8000 	nop.w
 8009d50:	33145c07 	.word	0x33145c07
 8009d54:	3c91a626 	.word	0x3c91a626
 8009d58:	54442d18 	.word	0x54442d18
 8009d5c:	3fe921fb 	.word	0x3fe921fb

08009d60 <__ieee754_sqrt>:
 8009d60:	e92d 41f0 	stmdb	sp!, {r4, r5, r6, r7, r8, lr}
 8009d64:	ec55 4b10 	vmov	r4, r5, d0
 8009d68:	4e56      	ldr	r6, [pc, #344]	; (8009ec4 <__ieee754_sqrt+0x164>)
 8009d6a:	43ae      	bics	r6, r5
 8009d6c:	ee10 0a10 	vmov	r0, s0
 8009d70:	ee10 3a10 	vmov	r3, s0
 8009d74:	4629      	mov	r1, r5
 8009d76:	462a      	mov	r2, r5
 8009d78:	d110      	bne.n	8009d9c <__ieee754_sqrt+0x3c>
 8009d7a:	ee10 2a10 	vmov	r2, s0
 8009d7e:	462b      	mov	r3, r5
 8009d80:	f7f6 fc3a 	bl	80005f8 <__aeabi_dmul>
 8009d84:	4602      	mov	r2, r0
 8009d86:	460b      	mov	r3, r1
 8009d88:	4620      	mov	r0, r4
 8009d8a:	4629      	mov	r1, r5
 8009d8c:	f7f6 fa7e 	bl	800028c <__adddf3>
 8009d90:	4604      	mov	r4, r0
 8009d92:	460d      	mov	r5, r1
 8009d94:	ec45 4b10 	vmov	d0, r4, r5
 8009d98:	e8bd 81f0 	ldmia.w	sp!, {r4, r5, r6, r7, r8, pc}
 8009d9c:	2d00      	cmp	r5, #0
 8009d9e:	dc10      	bgt.n	8009dc2 <__ieee754_sqrt+0x62>
 8009da0:	f025 4600 	bic.w	r6, r5, #2147483648	; 0x80000000
 8009da4:	4330      	orrs	r0, r6
 8009da6:	d0f5      	beq.n	8009d94 <__ieee754_sqrt+0x34>
 8009da8:	b15d      	cbz	r5, 8009dc2 <__ieee754_sqrt+0x62>
 8009daa:	ee10 2a10 	vmov	r2, s0
 8009dae:	462b      	mov	r3, r5
 8009db0:	ee10 0a10 	vmov	r0, s0
 8009db4:	f7f6 fa68 	bl	8000288 <__aeabi_dsub>
 8009db8:	4602      	mov	r2, r0
 8009dba:	460b      	mov	r3, r1
 8009dbc:	f7f6 fd46 	bl	800084c <__aeabi_ddiv>
 8009dc0:	e7e6      	b.n	8009d90 <__ieee754_sqrt+0x30>
 8009dc2:	1509      	asrs	r1, r1, #20
 8009dc4:	d076      	beq.n	8009eb4 <__ieee754_sqrt+0x154>
 8009dc6:	f3c2 0213 	ubfx	r2, r2, #0, #20
 8009dca:	07ce      	lsls	r6, r1, #31
 8009dcc:	f442 1080 	orr.w	r0, r2, #1048576	; 0x100000
 8009dd0:	bf5e      	ittt	pl
 8009dd2:	0fda      	lsrpl	r2, r3, #31
 8009dd4:	005b      	lslpl	r3, r3, #1
 8009dd6:	eb02 0040 	addpl.w	r0, r2, r0, lsl #1
 8009dda:	0fda      	lsrs	r2, r3, #31
 8009ddc:	f2a1 35ff 	subw	r5, r1, #1023	; 0x3ff
 8009de0:	eb02 0240 	add.w	r2, r2, r0, lsl #1
 8009de4:	2000      	movs	r0, #0
 8009de6:	106d      	asrs	r5, r5, #1
 8009de8:	005b      	lsls	r3, r3, #1
 8009dea:	f04f 0e16 	mov.w	lr, #22
 8009dee:	4684      	mov	ip, r0
 8009df0:	f44f 1100 	mov.w	r1, #2097152	; 0x200000
 8009df4:	eb0c 0401 	add.w	r4, ip, r1
 8009df8:	4294      	cmp	r4, r2
 8009dfa:	bfde      	ittt	le
 8009dfc:	1b12      	suble	r2, r2, r4
 8009dfe:	eb04 0c01 	addle.w	ip, r4, r1
 8009e02:	1840      	addle	r0, r0, r1
 8009e04:	0052      	lsls	r2, r2, #1
 8009e06:	f1be 0e01 	subs.w	lr, lr, #1
 8009e0a:	eb02 72d3 	add.w	r2, r2, r3, lsr #31
 8009e0e:	ea4f 0151 	mov.w	r1, r1, lsr #1
 8009e12:	ea4f 0343 	mov.w	r3, r3, lsl #1
 8009e16:	d1ed      	bne.n	8009df4 <__ieee754_sqrt+0x94>
 8009e18:	4671      	mov	r1, lr
 8009e1a:	2720      	movs	r7, #32
 8009e1c:	f04f 4400 	mov.w	r4, #2147483648	; 0x80000000
 8009e20:	4562      	cmp	r2, ip
 8009e22:	eb04 060e 	add.w	r6, r4, lr
 8009e26:	dc02      	bgt.n	8009e2e <__ieee754_sqrt+0xce>
 8009e28:	d113      	bne.n	8009e52 <__ieee754_sqrt+0xf2>
 8009e2a:	429e      	cmp	r6, r3
 8009e2c:	d811      	bhi.n	8009e52 <__ieee754_sqrt+0xf2>
 8009e2e:	2e00      	cmp	r6, #0
 8009e30:	eb06 0e04 	add.w	lr, r6, r4
 8009e34:	da43      	bge.n	8009ebe <__ieee754_sqrt+0x15e>
 8009e36:	f1be 0f00 	cmp.w	lr, #0
 8009e3a:	db40      	blt.n	8009ebe <__ieee754_sqrt+0x15e>
 8009e3c:	f10c 0801 	add.w	r8, ip, #1
 8009e40:	eba2 020c 	sub.w	r2, r2, ip
 8009e44:	429e      	cmp	r6, r3
 8009e46:	bf88      	it	hi
 8009e48:	f102 32ff 	addhi.w	r2, r2, #4294967295
 8009e4c:	1b9b      	subs	r3, r3, r6
 8009e4e:	4421      	add	r1, r4
 8009e50:	46c4      	mov	ip, r8
 8009e52:	0052      	lsls	r2, r2, #1
 8009e54:	3f01      	subs	r7, #1
 8009e56:	eb02 72d3 	add.w	r2, r2, r3, lsr #31
 8009e5a:	ea4f 0454 	mov.w	r4, r4, lsr #1
 8009e5e:	ea4f 0343 	mov.w	r3, r3, lsl #1
 8009e62:	d1dd      	bne.n	8009e20 <__ieee754_sqrt+0xc0>
 8009e64:	4313      	orrs	r3, r2
 8009e66:	d006      	beq.n	8009e76 <__ieee754_sqrt+0x116>
 8009e68:	1c4c      	adds	r4, r1, #1
 8009e6a:	bf13      	iteet	ne
 8009e6c:	3101      	addne	r1, #1
 8009e6e:	3001      	addeq	r0, #1
 8009e70:	4639      	moveq	r1, r7
 8009e72:	f021 0101 	bicne.w	r1, r1, #1
 8009e76:	1043      	asrs	r3, r0, #1
 8009e78:	f103 537f 	add.w	r3, r3, #1069547520	; 0x3fc00000
 8009e7c:	0849      	lsrs	r1, r1, #1
 8009e7e:	f503 1300 	add.w	r3, r3, #2097152	; 0x200000
 8009e82:	07c2      	lsls	r2, r0, #31
 8009e84:	bf48      	it	mi
 8009e86:	f041 4100 	orrmi.w	r1, r1, #2147483648	; 0x80000000
 8009e8a:	eb03 5705 	add.w	r7, r3, r5, lsl #20
 8009e8e:	460c      	mov	r4, r1
 8009e90:	463d      	mov	r5, r7
 8009e92:	e77f      	b.n	8009d94 <__ieee754_sqrt+0x34>
 8009e94:	0ada      	lsrs	r2, r3, #11
 8009e96:	3815      	subs	r0, #21
 8009e98:	055b      	lsls	r3, r3, #21
 8009e9a:	2a00      	cmp	r2, #0
 8009e9c:	d0fa      	beq.n	8009e94 <__ieee754_sqrt+0x134>
 8009e9e:	02d7      	lsls	r7, r2, #11
 8009ea0:	d50a      	bpl.n	8009eb8 <__ieee754_sqrt+0x158>
 8009ea2:	f1c1 0420 	rsb	r4, r1, #32
 8009ea6:	fa23 f404 	lsr.w	r4, r3, r4
 8009eaa:	1e4d      	subs	r5, r1, #1
 8009eac:	408b      	lsls	r3, r1
 8009eae:	4322      	orrs	r2, r4
 8009eb0:	1b41      	subs	r1, r0, r5
 8009eb2:	e788      	b.n	8009dc6 <__ieee754_sqrt+0x66>
 8009eb4:	4608      	mov	r0, r1
 8009eb6:	e7f0      	b.n	8009e9a <__ieee754_sqrt+0x13a>
 8009eb8:	0052      	lsls	r2, r2, #1
 8009eba:	3101      	adds	r1, #1
 8009ebc:	e7ef      	b.n	8009e9e <__ieee754_sqrt+0x13e>
 8009ebe:	46e0      	mov	r8, ip
 8009ec0:	e7be      	b.n	8009e40 <__ieee754_sqrt+0xe0>
 8009ec2:	bf00      	nop
 8009ec4:	7ff00000 	.word	0x7ff00000

08009ec8 <__ieee754_asinf>:
 8009ec8:	b538      	push	{r3, r4, r5, lr}
 8009eca:	ee10 5a10 	vmov	r5, s0
 8009ece:	f025 4400 	bic.w	r4, r5, #2147483648	; 0x80000000
 8009ed2:	f1b4 5f7e 	cmp.w	r4, #1065353216	; 0x3f800000
 8009ed6:	ed2d 8b04 	vpush	{d8-d9}
 8009eda:	d10c      	bne.n	8009ef6 <__ieee754_asinf+0x2e>
 8009edc:	eddf 7a5d 	vldr	s15, [pc, #372]	; 800a054 <__ieee754_asinf+0x18c>
 8009ee0:	ed9f 7a5d 	vldr	s14, [pc, #372]	; 800a058 <__ieee754_asinf+0x190>
 8009ee4:	ee60 7a27 	vmul.f32	s15, s0, s15
 8009ee8:	eee0 7a07 	vfma.f32	s15, s0, s14
 8009eec:	eeb0 0a67 	vmov.f32	s0, s15
 8009ef0:	ecbd 8b04 	vpop	{d8-d9}
 8009ef4:	bd38      	pop	{r3, r4, r5, pc}
 8009ef6:	dd04      	ble.n	8009f02 <__ieee754_asinf+0x3a>
 8009ef8:	ee70 7a40 	vsub.f32	s15, s0, s0
 8009efc:	ee87 0aa7 	vdiv.f32	s0, s15, s15
 8009f00:	e7f6      	b.n	8009ef0 <__ieee754_asinf+0x28>
 8009f02:	f1b4 5f7c 	cmp.w	r4, #1056964608	; 0x3f000000
 8009f06:	eef7 8a00 	vmov.f32	s17, #112	; 0x3f800000  1.0
 8009f0a:	da0b      	bge.n	8009f24 <__ieee754_asinf+0x5c>
 8009f0c:	f1b4 5f48 	cmp.w	r4, #838860800	; 0x32000000
 8009f10:	da52      	bge.n	8009fb8 <__ieee754_asinf+0xf0>
 8009f12:	eddf 7a52 	vldr	s15, [pc, #328]	; 800a05c <__ieee754_asinf+0x194>
 8009f16:	ee70 7a27 	vadd.f32	s15, s0, s15
 8009f1a:	eef4 7ae8 	vcmpe.f32	s15, s17
 8009f1e:	eef1 fa10 	vmrs	APSR_nzcv, fpscr
 8009f22:	dce5      	bgt.n	8009ef0 <__ieee754_asinf+0x28>
 8009f24:	f000 f8cc 	bl	800a0c0 <fabsf>
 8009f28:	ee38 0ac0 	vsub.f32	s0, s17, s0
 8009f2c:	eeb6 8a00 	vmov.f32	s16, #96	; 0x3f000000  0.5
 8009f30:	ee20 8a08 	vmul.f32	s16, s0, s16
 8009f34:	eddf 7a4a 	vldr	s15, [pc, #296]	; 800a060 <__ieee754_asinf+0x198>
 8009f38:	ed9f 7a4a 	vldr	s14, [pc, #296]	; 800a064 <__ieee754_asinf+0x19c>
 8009f3c:	ed9f 9a4a 	vldr	s18, [pc, #296]	; 800a068 <__ieee754_asinf+0x1a0>
 8009f40:	eea8 7a27 	vfma.f32	s14, s16, s15
 8009f44:	eddf 7a49 	vldr	s15, [pc, #292]	; 800a06c <__ieee754_asinf+0x1a4>
 8009f48:	eee7 7a08 	vfma.f32	s15, s14, s16
 8009f4c:	ed9f 7a48 	vldr	s14, [pc, #288]	; 800a070 <__ieee754_asinf+0x1a8>
 8009f50:	eea7 7a88 	vfma.f32	s14, s15, s16
 8009f54:	eddf 7a47 	vldr	s15, [pc, #284]	; 800a074 <__ieee754_asinf+0x1ac>
 8009f58:	eee7 7a08 	vfma.f32	s15, s14, s16
 8009f5c:	ed9f 7a46 	vldr	s14, [pc, #280]	; 800a078 <__ieee754_asinf+0x1b0>
 8009f60:	eea7 9a88 	vfma.f32	s18, s15, s16
 8009f64:	eddf 7a45 	vldr	s15, [pc, #276]	; 800a07c <__ieee754_asinf+0x1b4>
 8009f68:	eee8 7a07 	vfma.f32	s15, s16, s14
 8009f6c:	ed9f 7a44 	vldr	s14, [pc, #272]	; 800a080 <__ieee754_asinf+0x1b8>
 8009f70:	eea7 7a88 	vfma.f32	s14, s15, s16
 8009f74:	eddf 7a43 	vldr	s15, [pc, #268]	; 800a084 <__ieee754_asinf+0x1bc>
 8009f78:	eee7 7a08 	vfma.f32	s15, s14, s16
 8009f7c:	eeb0 0a48 	vmov.f32	s0, s16
 8009f80:	eee7 8a88 	vfma.f32	s17, s15, s16
 8009f84:	f000 f886 	bl	800a094 <__ieee754_sqrtf>
 8009f88:	4b3f      	ldr	r3, [pc, #252]	; (800a088 <__ieee754_asinf+0x1c0>)
 8009f8a:	ee29 9a08 	vmul.f32	s18, s18, s16
 8009f8e:	429c      	cmp	r4, r3
 8009f90:	ee89 6a28 	vdiv.f32	s12, s18, s17
 8009f94:	eef0 6a00 	vmov.f32	s13, #0	; 0x40000000  2.0
 8009f98:	dd3d      	ble.n	800a016 <__ieee754_asinf+0x14e>
 8009f9a:	eea0 0a06 	vfma.f32	s0, s0, s12
 8009f9e:	eddf 7a3b 	vldr	s15, [pc, #236]	; 800a08c <__ieee754_asinf+0x1c4>
 8009fa2:	eee0 7a26 	vfma.f32	s15, s0, s13
 8009fa6:	ed9f 0a2c 	vldr	s0, [pc, #176]	; 800a058 <__ieee754_asinf+0x190>
 8009faa:	ee30 0a67 	vsub.f32	s0, s0, s15
 8009fae:	2d00      	cmp	r5, #0
 8009fb0:	bfd8      	it	le
 8009fb2:	eeb1 0a40 	vnegle.f32	s0, s0
 8009fb6:	e79b      	b.n	8009ef0 <__ieee754_asinf+0x28>
 8009fb8:	ee60 7a00 	vmul.f32	s15, s0, s0
 8009fbc:	eddf 6a28 	vldr	s13, [pc, #160]	; 800a060 <__ieee754_asinf+0x198>
 8009fc0:	ed9f 7a28 	vldr	s14, [pc, #160]	; 800a064 <__ieee754_asinf+0x19c>
 8009fc4:	ed9f 6a2c 	vldr	s12, [pc, #176]	; 800a078 <__ieee754_asinf+0x1b0>
 8009fc8:	eea7 7aa6 	vfma.f32	s14, s15, s13
 8009fcc:	eddf 6a27 	vldr	s13, [pc, #156]	; 800a06c <__ieee754_asinf+0x1a4>
 8009fd0:	eee7 6a27 	vfma.f32	s13, s14, s15
 8009fd4:	ed9f 7a26 	vldr	s14, [pc, #152]	; 800a070 <__ieee754_asinf+0x1a8>
 8009fd8:	eea6 7aa7 	vfma.f32	s14, s13, s15
 8009fdc:	eddf 6a25 	vldr	s13, [pc, #148]	; 800a074 <__ieee754_asinf+0x1ac>
 8009fe0:	eee7 6a27 	vfma.f32	s13, s14, s15
 8009fe4:	ed9f 7a20 	vldr	s14, [pc, #128]	; 800a068 <__ieee754_asinf+0x1a0>
 8009fe8:	eea6 7aa7 	vfma.f32	s14, s13, s15
 8009fec:	eddf 6a23 	vldr	s13, [pc, #140]	; 800a07c <__ieee754_asinf+0x1b4>
 8009ff0:	eee7 6a86 	vfma.f32	s13, s15, s12
 8009ff4:	ed9f 6a22 	vldr	s12, [pc, #136]	; 800a080 <__ieee754_asinf+0x1b8>
 8009ff8:	eea6 6aa7 	vfma.f32	s12, s13, s15
 8009ffc:	eddf 6a21 	vldr	s13, [pc, #132]	; 800a084 <__ieee754_asinf+0x1bc>
 800a000:	eee6 6a27 	vfma.f32	s13, s12, s15
 800a004:	ee27 7a27 	vmul.f32	s14, s14, s15
 800a008:	eee6 8aa7 	vfma.f32	s17, s13, s15
 800a00c:	eec7 7a28 	vdiv.f32	s15, s14, s17
 800a010:	eea0 0a27 	vfma.f32	s0, s0, s15
 800a014:	e76c      	b.n	8009ef0 <__ieee754_asinf+0x28>
 800a016:	ee10 3a10 	vmov	r3, s0
 800a01a:	f423 637f 	bic.w	r3, r3, #4080	; 0xff0
 800a01e:	f023 030f 	bic.w	r3, r3, #15
 800a022:	ee07 3a10 	vmov	s14, r3
 800a026:	eea7 8a47 	vfms.f32	s16, s14, s14
 800a02a:	ee70 7a07 	vadd.f32	s15, s0, s14
 800a02e:	ee30 0a00 	vadd.f32	s0, s0, s0
 800a032:	eec8 5a27 	vdiv.f32	s11, s16, s15
 800a036:	eddf 7a07 	vldr	s15, [pc, #28]	; 800a054 <__ieee754_asinf+0x18c>
 800a03a:	eee5 7ae6 	vfms.f32	s15, s11, s13
 800a03e:	eed0 7a06 	vfnms.f32	s15, s0, s12
 800a042:	ed9f 0a13 	vldr	s0, [pc, #76]	; 800a090 <__ieee754_asinf+0x1c8>
 800a046:	eeb0 6a40 	vmov.f32	s12, s0
 800a04a:	eea7 6a66 	vfms.f32	s12, s14, s13
 800a04e:	ee77 7ac6 	vsub.f32	s15, s15, s12
 800a052:	e7aa      	b.n	8009faa <__ieee754_asinf+0xe2>
 800a054:	b33bbd2e 	.word	0xb33bbd2e
 800a058:	3fc90fdb 	.word	0x3fc90fdb
 800a05c:	7149f2ca 	.word	0x7149f2ca
 800a060:	3811ef08 	.word	0x3811ef08
 800a064:	3a4f7f04 	.word	0x3a4f7f04
 800a068:	3e2aaaab 	.word	0x3e2aaaab
 800a06c:	bd241146 	.word	0xbd241146
 800a070:	3e4e0aa8 	.word	0x3e4e0aa8
 800a074:	bea6b090 	.word	0xbea6b090
 800a078:	3d9dc62e 	.word	0x3d9dc62e
 800a07c:	bf303361 	.word	0xbf303361
 800a080:	4001572d 	.word	0x4001572d
 800a084:	c019d139 	.word	0xc019d139
 800a088:	3f799999 	.word	0x3f799999
 800a08c:	333bbd2e 	.word	0x333bbd2e
 800a090:	3f490fdb 	.word	0x3f490fdb

0800a094 <__ieee754_sqrtf>:
 800a094:	eeb1 0ac0 	vsqrt.f32	s0, s0
 800a098:	4770      	bx	lr

0800a09a <fabs>:
 800a09a:	ec51 0b10 	vmov	r0, r1, d0
 800a09e:	ee10 2a10 	vmov	r2, s0
 800a0a2:	f021 4300 	bic.w	r3, r1, #2147483648	; 0x80000000
 800a0a6:	ec43 2b10 	vmov	d0, r2, r3
 800a0aa:	4770      	bx	lr
 800a0ac:	0000      	movs	r0, r0
	...

0800a0b0 <nan>:
 800a0b0:	ed9f 0b01 	vldr	d0, [pc, #4]	; 800a0b8 <nan+0x8>
 800a0b4:	4770      	bx	lr
 800a0b6:	bf00      	nop
 800a0b8:	00000000 	.word	0x00000000
 800a0bc:	7ff80000 	.word	0x7ff80000

0800a0c0 <fabsf>:
 800a0c0:	ee10 3a10 	vmov	r3, s0
 800a0c4:	f023 4300 	bic.w	r3, r3, #2147483648	; 0x80000000
 800a0c8:	ee00 3a10 	vmov	s0, r3
 800a0cc:	4770      	bx	lr
	...

0800a0d0 <nanf>:
 800a0d0:	ed9f 0a01 	vldr	s0, [pc, #4]	; 800a0d8 <nanf+0x8>
 800a0d4:	4770      	bx	lr
 800a0d6:	bf00      	nop
 800a0d8:	7fc00000 	.word	0x7fc00000

0800a0dc <_init>:
 800a0dc:	b5f8      	push	{r3, r4, r5, r6, r7, lr}
 800a0de:	bf00      	nop
 800a0e0:	bcf8      	pop	{r3, r4, r5, r6, r7}
 800a0e2:	bc08      	pop	{r3}
 800a0e4:	469e      	mov	lr, r3
 800a0e6:	4770      	bx	lr

0800a0e8 <_fini>:
 800a0e8:	b5f8      	push	{r3, r4, r5, r6, r7, lr}
 800a0ea:	bf00      	nop
 800a0ec:	bcf8      	pop	{r3, r4, r5, r6, r7}
 800a0ee:	bc08      	pop	{r3}
 800a0f0:	469e      	mov	lr, r3
 800a0f2:	4770      	bx	lr
